ARM GAS  C:\Users\acw\AppData\Local\Temp\ccNuq1ny.s 			page 1


   1              		.cpu cortex-m4
   2              		.eabi_attribute 27, 1
   3              		.eabi_attribute 28, 1
   4              		.eabi_attribute 20, 1
   5              		.eabi_attribute 21, 1
   6              		.eabi_attribute 23, 3
   7              		.eabi_attribute 24, 1
   8              		.eabi_attribute 25, 1
   9              		.eabi_attribute 26, 1
  10              		.eabi_attribute 30, 1
  11              		.eabi_attribute 34, 1
  12              		.eabi_attribute 18, 4
  13              		.file	"can.c"
  14              		.text
  15              	.Ltext0:
  16              		.cfi_sections	.debug_frame
  17              		.section	.text.MX_CAN_Init,"ax",%progbits
  18              		.align	1
  19              		.global	MX_CAN_Init
  20              		.syntax unified
  21              		.thumb
  22              		.thumb_func
  23              		.fpu fpv4-sp-d16
  25              	MX_CAN_Init:
  26              	.LFB126:
  27              		.file 1 "Src/can.c"
   1:Src/can.c     **** /**
   2:Src/can.c     ****   ******************************************************************************
   3:Src/can.c     ****   * File Name          : CAN.c
   4:Src/can.c     ****   * Description        : This file provides code for the configuration
   5:Src/can.c     ****   *                      of the CAN instances.
   6:Src/can.c     ****   ******************************************************************************
   7:Src/can.c     ****   * @attention
   8:Src/can.c     ****   *
   9:Src/can.c     ****   * <h2><center>&copy; Copyright (c) 2019 STMicroelectronics.
  10:Src/can.c     ****   * All rights reserved.</center></h2>
  11:Src/can.c     ****   *
  12:Src/can.c     ****   * This software component is licensed by ST under Ultimate Liberty license
  13:Src/can.c     ****   * SLA0044, the "License"; You may not use this file except in compliance with
  14:Src/can.c     ****   * the License. You may obtain a copy of the License at:
  15:Src/can.c     ****   *                             www.st.com/SLA0044
  16:Src/can.c     ****   *
  17:Src/can.c     ****   ******************************************************************************
  18:Src/can.c     ****   */
  19:Src/can.c     **** 
  20:Src/can.c     **** /* Includes ------------------------------------------------------------------*/
  21:Src/can.c     **** #include "can.h"
  22:Src/can.c     **** 
  23:Src/can.c     **** /* USER CODE BEGIN 0 */
  24:Src/can.c     **** 
  25:Src/can.c     **** /* USER CODE END 0 */
  26:Src/can.c     **** 
  27:Src/can.c     **** CAN_HandleTypeDef hcan;
  28:Src/can.c     **** 
  29:Src/can.c     **** /* CAN init function */
  30:Src/can.c     **** void MX_CAN_Init(void)
  31:Src/can.c     **** {
ARM GAS  C:\Users\acw\AppData\Local\Temp\ccNuq1ny.s 			page 2


  28              		.loc 1 31 0
  29              		.cfi_startproc
  30              		@ args = 0, pretend = 0, frame = 0
  31              		@ frame_needed = 0, uses_anonymous_args = 0
  32 0000 08B5     		push	{r3, lr}
  33              	.LCFI0:
  34              		.cfi_def_cfa_offset 8
  35              		.cfi_offset 3, -8
  36              		.cfi_offset 14, -4
  32:Src/can.c     **** 
  33:Src/can.c     ****   hcan.Instance = CAN;
  37              		.loc 1 33 0
  38 0002 0E48     		ldr	r0, .L5
  39 0004 0E4B     		ldr	r3, .L5+4
  40 0006 0360     		str	r3, [r0]
  34:Src/can.c     ****   hcan.Init.Prescaler = 3;
  41              		.loc 1 34 0
  42 0008 0323     		movs	r3, #3
  43 000a 4360     		str	r3, [r0, #4]
  35:Src/can.c     ****   hcan.Init.Mode = CAN_MODE_NORMAL;
  44              		.loc 1 35 0
  45 000c 0023     		movs	r3, #0
  46 000e 8360     		str	r3, [r0, #8]
  36:Src/can.c     ****   hcan.Init.SyncJumpWidth = CAN_SJW_1TQ;
  47              		.loc 1 36 0
  48 0010 C360     		str	r3, [r0, #12]
  37:Src/can.c     ****   hcan.Init.TimeSeg1 = CAN_BS1_9TQ;
  49              		.loc 1 37 0
  50 0012 4FF40022 		mov	r2, #524288
  51 0016 0261     		str	r2, [r0, #16]
  38:Src/can.c     ****   hcan.Init.TimeSeg2 = CAN_BS2_2TQ;
  52              		.loc 1 38 0
  53 0018 4FF48012 		mov	r2, #1048576
  54 001c 4261     		str	r2, [r0, #20]
  39:Src/can.c     ****   hcan.Init.TimeTriggeredMode = DISABLE;
  55              		.loc 1 39 0
  56 001e 0376     		strb	r3, [r0, #24]
  40:Src/can.c     ****   hcan.Init.AutoBusOff = ENABLE;
  57              		.loc 1 40 0
  58 0020 0122     		movs	r2, #1
  59 0022 4276     		strb	r2, [r0, #25]
  41:Src/can.c     ****   hcan.Init.AutoWakeUp = ENABLE;
  60              		.loc 1 41 0
  61 0024 8276     		strb	r2, [r0, #26]
  42:Src/can.c     ****   hcan.Init.AutoRetransmission = DISABLE;
  62              		.loc 1 42 0
  63 0026 C376     		strb	r3, [r0, #27]
  43:Src/can.c     ****   hcan.Init.ReceiveFifoLocked = DISABLE;
  64              		.loc 1 43 0
  65 0028 0377     		strb	r3, [r0, #28]
  44:Src/can.c     ****   hcan.Init.TransmitFifoPriority = ENABLE;
  66              		.loc 1 44 0
  67 002a 4277     		strb	r2, [r0, #29]
  45:Src/can.c     ****   if (HAL_CAN_Init(&hcan) != HAL_OK)
  68              		.loc 1 45 0
  69 002c FFF7FEFF 		bl	HAL_CAN_Init
  70              	.LVL0:
ARM GAS  C:\Users\acw\AppData\Local\Temp\ccNuq1ny.s 			page 3


  71 0030 00B9     		cbnz	r0, .L4
  72              	.L1:
  46:Src/can.c     ****   {
  47:Src/can.c     ****     Error_Handler();
  48:Src/can.c     ****   }
  49:Src/can.c     **** 
  50:Src/can.c     **** }
  73              		.loc 1 50 0
  74 0032 08BD     		pop	{r3, pc}
  75              	.L4:
  47:Src/can.c     ****   }
  76              		.loc 1 47 0
  77 0034 FFF7FEFF 		bl	Error_Handler
  78              	.LVL1:
  79              		.loc 1 50 0
  80 0038 FBE7     		b	.L1
  81              	.L6:
  82 003a 00BF     		.align	2
  83              	.L5:
  84 003c 00000000 		.word	hcan
  85 0040 00640040 		.word	1073767424
  86              		.cfi_endproc
  87              	.LFE126:
  89              		.section	.text.HAL_CAN_MspInit,"ax",%progbits
  90              		.align	1
  91              		.global	HAL_CAN_MspInit
  92              		.syntax unified
  93              		.thumb
  94              		.thumb_func
  95              		.fpu fpv4-sp-d16
  97              	HAL_CAN_MspInit:
  98              	.LFB127:
  51:Src/can.c     **** 
  52:Src/can.c     **** void HAL_CAN_MspInit(CAN_HandleTypeDef* canHandle)
  53:Src/can.c     **** {
  99              		.loc 1 53 0
 100              		.cfi_startproc
 101              		@ args = 0, pretend = 0, frame = 32
 102              		@ frame_needed = 0, uses_anonymous_args = 0
 103              	.LVL2:
 104 0000 00B5     		push	{lr}
 105              	.LCFI1:
 106              		.cfi_def_cfa_offset 4
 107              		.cfi_offset 14, -4
 108 0002 89B0     		sub	sp, sp, #36
 109              	.LCFI2:
 110              		.cfi_def_cfa_offset 40
  54:Src/can.c     **** 
  55:Src/can.c     ****   GPIO_InitTypeDef GPIO_InitStruct = {0};
 111              		.loc 1 55 0
 112 0004 0023     		movs	r3, #0
 113 0006 0393     		str	r3, [sp, #12]
 114 0008 0493     		str	r3, [sp, #16]
 115 000a 0593     		str	r3, [sp, #20]
 116 000c 0693     		str	r3, [sp, #24]
 117 000e 0793     		str	r3, [sp, #28]
  56:Src/can.c     ****   if(canHandle->Instance==CAN)
ARM GAS  C:\Users\acw\AppData\Local\Temp\ccNuq1ny.s 			page 4


 118              		.loc 1 56 0
 119 0010 0268     		ldr	r2, [r0]
 120 0012 1C4B     		ldr	r3, .L11
 121 0014 9A42     		cmp	r2, r3
 122 0016 02D0     		beq	.L10
 123              	.LVL3:
 124              	.L7:
  57:Src/can.c     ****   {
  58:Src/can.c     ****   /* USER CODE BEGIN CAN_MspInit 0 */
  59:Src/can.c     **** 
  60:Src/can.c     ****   /* USER CODE END CAN_MspInit 0 */
  61:Src/can.c     ****     /* CAN clock enable */
  62:Src/can.c     ****     __HAL_RCC_CAN1_CLK_ENABLE();
  63:Src/can.c     ****   
  64:Src/can.c     ****     __HAL_RCC_GPIOB_CLK_ENABLE();
  65:Src/can.c     ****     /**CAN GPIO Configuration    
  66:Src/can.c     ****     PB8     ------> CAN_RX
  67:Src/can.c     ****     PB9     ------> CAN_TX 
  68:Src/can.c     ****     */
  69:Src/can.c     ****     GPIO_InitStruct.Pin = GPIO_PIN_8|GPIO_PIN_9;
  70:Src/can.c     ****     GPIO_InitStruct.Mode = GPIO_MODE_AF_PP;
  71:Src/can.c     ****     GPIO_InitStruct.Pull = GPIO_NOPULL;
  72:Src/can.c     ****     GPIO_InitStruct.Speed = GPIO_SPEED_FREQ_HIGH;
  73:Src/can.c     ****     GPIO_InitStruct.Alternate = GPIO_AF9_CAN;
  74:Src/can.c     ****     HAL_GPIO_Init(GPIOB, &GPIO_InitStruct);
  75:Src/can.c     **** 
  76:Src/can.c     ****     /* CAN interrupt Init */
  77:Src/can.c     ****     HAL_NVIC_SetPriority(CAN_RX0_IRQn, 5, 0);
  78:Src/can.c     ****     HAL_NVIC_EnableIRQ(CAN_RX0_IRQn);
  79:Src/can.c     ****     HAL_NVIC_SetPriority(CAN_RX1_IRQn, 5, 0);
  80:Src/can.c     ****     HAL_NVIC_EnableIRQ(CAN_RX1_IRQn);
  81:Src/can.c     ****   /* USER CODE BEGIN CAN_MspInit 1 */
  82:Src/can.c     **** 
  83:Src/can.c     ****   /* USER CODE END CAN_MspInit 1 */
  84:Src/can.c     ****   }
  85:Src/can.c     **** }
 125              		.loc 1 85 0
 126 0018 09B0     		add	sp, sp, #36
 127              	.LCFI3:
 128              		.cfi_remember_state
 129              		.cfi_def_cfa_offset 4
 130              		@ sp needed
 131 001a 5DF804FB 		ldr	pc, [sp], #4
 132              	.LVL4:
 133              	.L10:
 134              	.LCFI4:
 135              		.cfi_restore_state
 136              	.LBB2:
  62:Src/can.c     ****   
 137              		.loc 1 62 0
 138 001e 03F5D633 		add	r3, r3, #109568
 139 0022 DA69     		ldr	r2, [r3, #28]
 140 0024 42F00072 		orr	r2, r2, #33554432
 141 0028 DA61     		str	r2, [r3, #28]
 142 002a DA69     		ldr	r2, [r3, #28]
 143 002c 02F00072 		and	r2, r2, #33554432
 144 0030 0192     		str	r2, [sp, #4]
ARM GAS  C:\Users\acw\AppData\Local\Temp\ccNuq1ny.s 			page 5


 145 0032 019A     		ldr	r2, [sp, #4]
 146              	.LBE2:
 147              	.LBB3:
  64:Src/can.c     ****     /**CAN GPIO Configuration    
 148              		.loc 1 64 0
 149 0034 5A69     		ldr	r2, [r3, #20]
 150 0036 42F48022 		orr	r2, r2, #262144
 151 003a 5A61     		str	r2, [r3, #20]
 152 003c 5B69     		ldr	r3, [r3, #20]
 153 003e 03F48023 		and	r3, r3, #262144
 154 0042 0293     		str	r3, [sp, #8]
 155 0044 029B     		ldr	r3, [sp, #8]
 156              	.LBE3:
  69:Src/can.c     ****     GPIO_InitStruct.Mode = GPIO_MODE_AF_PP;
 157              		.loc 1 69 0
 158 0046 4FF44073 		mov	r3, #768
 159 004a 0393     		str	r3, [sp, #12]
  70:Src/can.c     ****     GPIO_InitStruct.Pull = GPIO_NOPULL;
 160              		.loc 1 70 0
 161 004c 0223     		movs	r3, #2
 162 004e 0493     		str	r3, [sp, #16]
  72:Src/can.c     ****     GPIO_InitStruct.Alternate = GPIO_AF9_CAN;
 163              		.loc 1 72 0
 164 0050 0323     		movs	r3, #3
 165 0052 0693     		str	r3, [sp, #24]
  73:Src/can.c     ****     HAL_GPIO_Init(GPIOB, &GPIO_InitStruct);
 166              		.loc 1 73 0
 167 0054 0923     		movs	r3, #9
 168 0056 0793     		str	r3, [sp, #28]
  74:Src/can.c     **** 
 169              		.loc 1 74 0
 170 0058 03A9     		add	r1, sp, #12
 171 005a 0B48     		ldr	r0, .L11+4
 172              	.LVL5:
 173 005c FFF7FEFF 		bl	HAL_GPIO_Init
 174              	.LVL6:
  77:Src/can.c     ****     HAL_NVIC_EnableIRQ(CAN_RX0_IRQn);
 175              		.loc 1 77 0
 176 0060 0022     		movs	r2, #0
 177 0062 0521     		movs	r1, #5
 178 0064 1420     		movs	r0, #20
 179 0066 FFF7FEFF 		bl	HAL_NVIC_SetPriority
 180              	.LVL7:
  78:Src/can.c     ****     HAL_NVIC_SetPriority(CAN_RX1_IRQn, 5, 0);
 181              		.loc 1 78 0
 182 006a 1420     		movs	r0, #20
 183 006c FFF7FEFF 		bl	HAL_NVIC_EnableIRQ
 184              	.LVL8:
  79:Src/can.c     ****     HAL_NVIC_EnableIRQ(CAN_RX1_IRQn);
 185              		.loc 1 79 0
 186 0070 0022     		movs	r2, #0
 187 0072 0521     		movs	r1, #5
 188 0074 1520     		movs	r0, #21
 189 0076 FFF7FEFF 		bl	HAL_NVIC_SetPriority
 190              	.LVL9:
  80:Src/can.c     ****   /* USER CODE BEGIN CAN_MspInit 1 */
 191              		.loc 1 80 0
ARM GAS  C:\Users\acw\AppData\Local\Temp\ccNuq1ny.s 			page 6


 192 007a 1520     		movs	r0, #21
 193 007c FFF7FEFF 		bl	HAL_NVIC_EnableIRQ
 194              	.LVL10:
 195              		.loc 1 85 0
 196 0080 CAE7     		b	.L7
 197              	.L12:
 198 0082 00BF     		.align	2
 199              	.L11:
 200 0084 00640040 		.word	1073767424
 201 0088 00040048 		.word	1207960576
 202              		.cfi_endproc
 203              	.LFE127:
 205              		.section	.text.HAL_CAN_MspDeInit,"ax",%progbits
 206              		.align	1
 207              		.global	HAL_CAN_MspDeInit
 208              		.syntax unified
 209              		.thumb
 210              		.thumb_func
 211              		.fpu fpv4-sp-d16
 213              	HAL_CAN_MspDeInit:
 214              	.LFB128:
  86:Src/can.c     **** 
  87:Src/can.c     **** void HAL_CAN_MspDeInit(CAN_HandleTypeDef* canHandle)
  88:Src/can.c     **** {
 215              		.loc 1 88 0
 216              		.cfi_startproc
 217              		@ args = 0, pretend = 0, frame = 0
 218              		@ frame_needed = 0, uses_anonymous_args = 0
 219              	.LVL11:
 220 0000 08B5     		push	{r3, lr}
 221              	.LCFI5:
 222              		.cfi_def_cfa_offset 8
 223              		.cfi_offset 3, -8
 224              		.cfi_offset 14, -4
  89:Src/can.c     **** 
  90:Src/can.c     ****   if(canHandle->Instance==CAN)
 225              		.loc 1 90 0
 226 0002 0268     		ldr	r2, [r0]
 227 0004 0A4B     		ldr	r3, .L17
 228 0006 9A42     		cmp	r2, r3
 229 0008 00D0     		beq	.L16
 230              	.LVL12:
 231              	.L13:
  91:Src/can.c     ****   {
  92:Src/can.c     ****   /* USER CODE BEGIN CAN_MspDeInit 0 */
  93:Src/can.c     **** 
  94:Src/can.c     ****   /* USER CODE END CAN_MspDeInit 0 */
  95:Src/can.c     ****     /* Peripheral clock disable */
  96:Src/can.c     ****     __HAL_RCC_CAN1_CLK_DISABLE();
  97:Src/can.c     ****   
  98:Src/can.c     ****     /**CAN GPIO Configuration    
  99:Src/can.c     ****     PB8     ------> CAN_RX
 100:Src/can.c     ****     PB9     ------> CAN_TX 
 101:Src/can.c     ****     */
 102:Src/can.c     ****     HAL_GPIO_DeInit(GPIOB, GPIO_PIN_8|GPIO_PIN_9);
 103:Src/can.c     **** 
 104:Src/can.c     ****     /* CAN interrupt Deinit */
ARM GAS  C:\Users\acw\AppData\Local\Temp\ccNuq1ny.s 			page 7


 105:Src/can.c     ****     HAL_NVIC_DisableIRQ(CAN_RX0_IRQn);
 106:Src/can.c     ****     HAL_NVIC_DisableIRQ(CAN_RX1_IRQn);
 107:Src/can.c     ****   /* USER CODE BEGIN CAN_MspDeInit 1 */
 108:Src/can.c     **** 
 109:Src/can.c     ****   /* USER CODE END CAN_MspDeInit 1 */
 110:Src/can.c     ****   }
 111:Src/can.c     **** } 
 232              		.loc 1 111 0
 233 000a 08BD     		pop	{r3, pc}
 234              	.LVL13:
 235              	.L16:
  96:Src/can.c     ****   
 236              		.loc 1 96 0
 237 000c 094A     		ldr	r2, .L17+4
 238 000e D369     		ldr	r3, [r2, #28]
 239 0010 23F00073 		bic	r3, r3, #33554432
 240 0014 D361     		str	r3, [r2, #28]
 102:Src/can.c     **** 
 241              		.loc 1 102 0
 242 0016 4FF44071 		mov	r1, #768
 243 001a 0748     		ldr	r0, .L17+8
 244              	.LVL14:
 245 001c FFF7FEFF 		bl	HAL_GPIO_DeInit
 246              	.LVL15:
 105:Src/can.c     ****     HAL_NVIC_DisableIRQ(CAN_RX1_IRQn);
 247              		.loc 1 105 0
 248 0020 1420     		movs	r0, #20
 249 0022 FFF7FEFF 		bl	HAL_NVIC_DisableIRQ
 250              	.LVL16:
 106:Src/can.c     ****   /* USER CODE BEGIN CAN_MspDeInit 1 */
 251              		.loc 1 106 0
 252 0026 1520     		movs	r0, #21
 253 0028 FFF7FEFF 		bl	HAL_NVIC_DisableIRQ
 254              	.LVL17:
 255              		.loc 1 111 0
 256 002c EDE7     		b	.L13
 257              	.L18:
 258 002e 00BF     		.align	2
 259              	.L17:
 260 0030 00640040 		.word	1073767424
 261 0034 00100240 		.word	1073876992
 262 0038 00040048 		.word	1207960576
 263              		.cfi_endproc
 264              	.LFE128:
 266              		.comm	hcan,40,4
 267              		.text
 268              	.Letext0:
 269              		.file 2 "c:\\program files (x86)\\gnu tools arm embedded\\7 2018-q2-update\\arm-none-eabi\\include
 270              		.file 3 "c:\\program files (x86)\\gnu tools arm embedded\\7 2018-q2-update\\arm-none-eabi\\include
 271              		.file 4 "Drivers/CMSIS/Include/core_cm4.h"
 272              		.file 5 "Drivers/CMSIS/Device/ST/STM32F3xx/Include/system_stm32f3xx.h"
 273              		.file 6 "Drivers/CMSIS/Device/ST/STM32F3xx/Include/stm32f373xc.h"
 274              		.file 7 "Drivers/CMSIS/Device/ST/STM32F3xx/Include/stm32f3xx.h"
 275              		.file 8 "c:\\program files (x86)\\gnu tools arm embedded\\7 2018-q2-update\\arm-none-eabi\\include
 276              		.file 9 "c:\\program files (x86)\\gnu tools arm embedded\\7 2018-q2-update\\arm-none-eabi\\include
 277              		.file 10 "c:\\program files (x86)\\gnu tools arm embedded\\7 2018-q2-update\\lib\\gcc\\arm-none-ea
 278              		.file 11 "c:\\program files (x86)\\gnu tools arm embedded\\7 2018-q2-update\\arm-none-eabi\\includ
ARM GAS  C:\Users\acw\AppData\Local\Temp\ccNuq1ny.s 			page 8


 279              		.file 12 "Drivers/STM32F3xx_HAL_Driver/Inc/stm32f3xx_hal_def.h"
 280              		.file 13 "Drivers/STM32F3xx_HAL_Driver/Inc/stm32f3xx_hal_gpio.h"
 281              		.file 14 "Drivers/STM32F3xx_HAL_Driver/Inc/stm32f3xx_hal_can.h"
 282              		.file 15 "Drivers/STM32F3xx_HAL_Driver/Inc/stm32f3xx_hal.h"
 283              		.file 16 "Inc/can.h"
 284              		.file 17 "Drivers/STM32F3xx_HAL_Driver/Inc/stm32f3xx_hal_cortex.h"
 285              		.file 18 "Inc/main.h"
ARM GAS  C:\Users\acw\AppData\Local\Temp\ccNuq1ny.s 			page 9


DEFINED SYMBOLS
                            *ABS*:00000000 can.c
C:\Users\acw\AppData\Local\Temp\ccNuq1ny.s:18     .text.MX_CAN_Init:00000000 $t
C:\Users\acw\AppData\Local\Temp\ccNuq1ny.s:25     .text.MX_CAN_Init:00000000 MX_CAN_Init
C:\Users\acw\AppData\Local\Temp\ccNuq1ny.s:84     .text.MX_CAN_Init:0000003c $d
                            *COM*:00000028 hcan
C:\Users\acw\AppData\Local\Temp\ccNuq1ny.s:90     .text.HAL_CAN_MspInit:00000000 $t
C:\Users\acw\AppData\Local\Temp\ccNuq1ny.s:97     .text.HAL_CAN_MspInit:00000000 HAL_CAN_MspInit
C:\Users\acw\AppData\Local\Temp\ccNuq1ny.s:200    .text.HAL_CAN_MspInit:00000084 $d
C:\Users\acw\AppData\Local\Temp\ccNuq1ny.s:206    .text.HAL_CAN_MspDeInit:00000000 $t
C:\Users\acw\AppData\Local\Temp\ccNuq1ny.s:213    .text.HAL_CAN_MspDeInit:00000000 HAL_CAN_MspDeInit
C:\Users\acw\AppData\Local\Temp\ccNuq1ny.s:260    .text.HAL_CAN_MspDeInit:00000030 $d

UNDEFINED SYMBOLS
HAL_CAN_Init
Error_Handler
HAL_GPIO_Init
HAL_NVIC_SetPriority
HAL_NVIC_EnableIRQ
HAL_GPIO_DeInit
HAL_NVIC_DisableIRQ
