ARM GAS  C:\Users\acw\AppData\Local\Temp\ccJSdFey.s 			page 1


   1              		.cpu cortex-m4
   2              		.eabi_attribute 27, 1
   3              		.eabi_attribute 28, 1
   4              		.eabi_attribute 20, 1
   5              		.eabi_attribute 21, 1
   6              		.eabi_attribute 23, 3
   7              		.eabi_attribute 24, 1
   8              		.eabi_attribute 25, 1
   9              		.eabi_attribute 26, 1
  10              		.eabi_attribute 30, 1
  11              		.eabi_attribute 34, 1
  12              		.eabi_attribute 18, 4
  13              		.file	"dac.c"
  14              		.text
  15              	.Ltext0:
  16              		.cfi_sections	.debug_frame
  17              		.section	.text.MX_DAC1_Init,"ax",%progbits
  18              		.align	1
  19              		.global	MX_DAC1_Init
  20              		.syntax unified
  21              		.thumb
  22              		.thumb_func
  23              		.fpu fpv4-sp-d16
  25              	MX_DAC1_Init:
  26              	.LFB126:
  27              		.file 1 "Src/dac.c"
   1:Src/dac.c     **** /**
   2:Src/dac.c     ****   ******************************************************************************
   3:Src/dac.c     ****   * File Name          : DAC.c
   4:Src/dac.c     ****   * Description        : This file provides code for the configuration
   5:Src/dac.c     ****   *                      of the DAC instances.
   6:Src/dac.c     ****   ******************************************************************************
   7:Src/dac.c     ****   * @attention
   8:Src/dac.c     ****   *
   9:Src/dac.c     ****   * <h2><center>&copy; Copyright (c) 2019 STMicroelectronics.
  10:Src/dac.c     ****   * All rights reserved.</center></h2>
  11:Src/dac.c     ****   *
  12:Src/dac.c     ****   * This software component is licensed by ST under Ultimate Liberty license
  13:Src/dac.c     ****   * SLA0044, the "License"; You may not use this file except in compliance with
  14:Src/dac.c     ****   * the License. You may obtain a copy of the License at:
  15:Src/dac.c     ****   *                             www.st.com/SLA0044
  16:Src/dac.c     ****   *
  17:Src/dac.c     ****   ******************************************************************************
  18:Src/dac.c     ****   */
  19:Src/dac.c     **** 
  20:Src/dac.c     **** /* Includes ------------------------------------------------------------------*/
  21:Src/dac.c     **** #include "dac.h"
  22:Src/dac.c     **** 
  23:Src/dac.c     **** /* USER CODE BEGIN 0 */
  24:Src/dac.c     **** 
  25:Src/dac.c     **** /* USER CODE END 0 */
  26:Src/dac.c     **** 
  27:Src/dac.c     **** DAC_HandleTypeDef hdac1;
  28:Src/dac.c     **** DMA_HandleTypeDef hdma_dac1_ch1;
  29:Src/dac.c     **** 
  30:Src/dac.c     **** /* DAC1 init function */
  31:Src/dac.c     **** void MX_DAC1_Init(void)
ARM GAS  C:\Users\acw\AppData\Local\Temp\ccJSdFey.s 			page 2


  32:Src/dac.c     **** {
  28              		.loc 1 32 0
  29              		.cfi_startproc
  30              		@ args = 0, pretend = 0, frame = 16
  31              		@ frame_needed = 0, uses_anonymous_args = 0
  32 0000 00B5     		push	{lr}
  33              	.LCFI0:
  34              		.cfi_def_cfa_offset 4
  35              		.cfi_offset 14, -4
  36 0002 85B0     		sub	sp, sp, #20
  37              	.LCFI1:
  38              		.cfi_def_cfa_offset 24
  33:Src/dac.c     ****   DAC_ChannelConfTypeDef sConfig = {0};
  39              		.loc 1 33 0
  40 0004 0023     		movs	r3, #0
  41 0006 0193     		str	r3, [sp, #4]
  42 0008 0293     		str	r3, [sp, #8]
  43 000a 0393     		str	r3, [sp, #12]
  34:Src/dac.c     **** 
  35:Src/dac.c     ****   /** DAC Initialization 
  36:Src/dac.c     ****   */
  37:Src/dac.c     ****   hdac1.Instance = DAC1;
  44              		.loc 1 37 0
  45 000c 0B48     		ldr	r0, .L7
  46 000e 0C4B     		ldr	r3, .L7+4
  47 0010 0360     		str	r3, [r0]
  38:Src/dac.c     ****   if (HAL_DAC_Init(&hdac1) != HAL_OK)
  48              		.loc 1 38 0
  49 0012 FFF7FEFF 		bl	HAL_DAC_Init
  50              	.LVL0:
  51 0016 50B9     		cbnz	r0, .L5
  52              	.L2:
  39:Src/dac.c     ****   {
  40:Src/dac.c     ****     Error_Handler();
  41:Src/dac.c     ****   }
  42:Src/dac.c     ****   /** DAC channel OUT1 config 
  43:Src/dac.c     ****   */
  44:Src/dac.c     ****   sConfig.DAC_Trigger = DAC_TRIGGER_NONE;
  53              		.loc 1 44 0
  54 0018 0022     		movs	r2, #0
  55 001a 0192     		str	r2, [sp, #4]
  45:Src/dac.c     ****   sConfig.DAC_OutputBuffer = DAC_OUTPUTBUFFER_ENABLE;
  56              		.loc 1 45 0
  57 001c 0292     		str	r2, [sp, #8]
  46:Src/dac.c     ****   if (HAL_DAC_ConfigChannel(&hdac1, &sConfig, DAC_CHANNEL_1) != HAL_OK)
  58              		.loc 1 46 0
  59 001e 01A9     		add	r1, sp, #4
  60 0020 0648     		ldr	r0, .L7
  61 0022 FFF7FEFF 		bl	HAL_DAC_ConfigChannel
  62              	.LVL1:
  63 0026 28B9     		cbnz	r0, .L6
  64              	.L1:
  47:Src/dac.c     ****   {
  48:Src/dac.c     ****     Error_Handler();
  49:Src/dac.c     ****   }
  50:Src/dac.c     **** 
  51:Src/dac.c     **** }
ARM GAS  C:\Users\acw\AppData\Local\Temp\ccJSdFey.s 			page 3


  65              		.loc 1 51 0
  66 0028 05B0     		add	sp, sp, #20
  67              	.LCFI2:
  68              		.cfi_remember_state
  69              		.cfi_def_cfa_offset 4
  70              		@ sp needed
  71 002a 5DF804FB 		ldr	pc, [sp], #4
  72              	.L5:
  73              	.LCFI3:
  74              		.cfi_restore_state
  40:Src/dac.c     ****   }
  75              		.loc 1 40 0
  76 002e FFF7FEFF 		bl	Error_Handler
  77              	.LVL2:
  78 0032 F1E7     		b	.L2
  79              	.L6:
  48:Src/dac.c     ****   }
  80              		.loc 1 48 0
  81 0034 FFF7FEFF 		bl	Error_Handler
  82              	.LVL3:
  83              		.loc 1 51 0
  84 0038 F6E7     		b	.L1
  85              	.L8:
  86 003a 00BF     		.align	2
  87              	.L7:
  88 003c 00000000 		.word	hdac1
  89 0040 00740040 		.word	1073771520
  90              		.cfi_endproc
  91              	.LFE126:
  93              		.section	.text.HAL_DAC_MspInit,"ax",%progbits
  94              		.align	1
  95              		.global	HAL_DAC_MspInit
  96              		.syntax unified
  97              		.thumb
  98              		.thumb_func
  99              		.fpu fpv4-sp-d16
 101              	HAL_DAC_MspInit:
 102              	.LFB127:
  52:Src/dac.c     **** 
  53:Src/dac.c     **** void HAL_DAC_MspInit(DAC_HandleTypeDef* dacHandle)
  54:Src/dac.c     **** {
 103              		.loc 1 54 0
 104              		.cfi_startproc
 105              		@ args = 0, pretend = 0, frame = 32
 106              		@ frame_needed = 0, uses_anonymous_args = 0
 107              	.LVL4:
 108 0000 30B5     		push	{r4, r5, lr}
 109              	.LCFI4:
 110              		.cfi_def_cfa_offset 12
 111              		.cfi_offset 4, -12
 112              		.cfi_offset 5, -8
 113              		.cfi_offset 14, -4
 114 0002 89B0     		sub	sp, sp, #36
 115              	.LCFI5:
 116              		.cfi_def_cfa_offset 48
  55:Src/dac.c     **** 
  56:Src/dac.c     ****   GPIO_InitTypeDef GPIO_InitStruct = {0};
ARM GAS  C:\Users\acw\AppData\Local\Temp\ccJSdFey.s 			page 4


 117              		.loc 1 56 0
 118 0004 0023     		movs	r3, #0
 119 0006 0393     		str	r3, [sp, #12]
 120 0008 0493     		str	r3, [sp, #16]
 121 000a 0593     		str	r3, [sp, #20]
 122 000c 0693     		str	r3, [sp, #24]
 123 000e 0793     		str	r3, [sp, #28]
  57:Src/dac.c     ****   if(dacHandle->Instance==DAC1)
 124              		.loc 1 57 0
 125 0010 0268     		ldr	r2, [r0]
 126 0012 214B     		ldr	r3, .L15
 127 0014 9A42     		cmp	r2, r3
 128 0016 01D0     		beq	.L13
 129              	.LVL5:
 130              	.L9:
  58:Src/dac.c     ****   {
  59:Src/dac.c     ****   /* USER CODE BEGIN DAC1_MspInit 0 */
  60:Src/dac.c     **** 
  61:Src/dac.c     ****   /* USER CODE END DAC1_MspInit 0 */
  62:Src/dac.c     ****     /* DAC1 clock enable */
  63:Src/dac.c     ****     __HAL_RCC_DAC1_CLK_ENABLE();
  64:Src/dac.c     ****   
  65:Src/dac.c     ****     __HAL_RCC_GPIOA_CLK_ENABLE();
  66:Src/dac.c     ****     /**DAC1 GPIO Configuration    
  67:Src/dac.c     ****     PA4     ------> DAC1_OUT1 
  68:Src/dac.c     ****     */
  69:Src/dac.c     ****     GPIO_InitStruct.Pin = GPIO_PIN_4;
  70:Src/dac.c     ****     GPIO_InitStruct.Mode = GPIO_MODE_ANALOG;
  71:Src/dac.c     ****     GPIO_InitStruct.Pull = GPIO_NOPULL;
  72:Src/dac.c     ****     HAL_GPIO_Init(GPIOA, &GPIO_InitStruct);
  73:Src/dac.c     **** 
  74:Src/dac.c     ****     /* DAC1 DMA Init */
  75:Src/dac.c     ****     /* DAC1_CH1 Init */
  76:Src/dac.c     ****     hdma_dac1_ch1.Instance = DMA1_Channel3;
  77:Src/dac.c     ****     hdma_dac1_ch1.Init.Direction = DMA_MEMORY_TO_PERIPH;
  78:Src/dac.c     ****     hdma_dac1_ch1.Init.PeriphInc = DMA_PINC_DISABLE;
  79:Src/dac.c     ****     hdma_dac1_ch1.Init.MemInc = DMA_MINC_DISABLE;
  80:Src/dac.c     ****     hdma_dac1_ch1.Init.PeriphDataAlignment = DMA_PDATAALIGN_HALFWORD;
  81:Src/dac.c     ****     hdma_dac1_ch1.Init.MemDataAlignment = DMA_MDATAALIGN_HALFWORD;
  82:Src/dac.c     ****     hdma_dac1_ch1.Init.Mode = DMA_CIRCULAR;
  83:Src/dac.c     ****     hdma_dac1_ch1.Init.Priority = DMA_PRIORITY_LOW;
  84:Src/dac.c     ****     if (HAL_DMA_Init(&hdma_dac1_ch1) != HAL_OK)
  85:Src/dac.c     ****     {
  86:Src/dac.c     ****       Error_Handler();
  87:Src/dac.c     ****     }
  88:Src/dac.c     **** 
  89:Src/dac.c     ****     __HAL_DMA_REMAP_CHANNEL_ENABLE(HAL_REMAPDMA_TIM6_DAC1_CH1_DMA1_CH3);
  90:Src/dac.c     **** 
  91:Src/dac.c     ****     __HAL_LINKDMA(dacHandle,DMA_Handle1,hdma_dac1_ch1);
  92:Src/dac.c     **** 
  93:Src/dac.c     ****   /* USER CODE BEGIN DAC1_MspInit 1 */
  94:Src/dac.c     **** 
  95:Src/dac.c     ****   /* USER CODE END DAC1_MspInit 1 */
  96:Src/dac.c     ****   }
  97:Src/dac.c     **** }
 131              		.loc 1 97 0
 132 0018 09B0     		add	sp, sp, #36
ARM GAS  C:\Users\acw\AppData\Local\Temp\ccJSdFey.s 			page 5


 133              	.LCFI6:
 134              		.cfi_remember_state
 135              		.cfi_def_cfa_offset 12
 136              		@ sp needed
 137 001a 30BD     		pop	{r4, r5, pc}
 138              	.LVL6:
 139              	.L13:
 140              	.LCFI7:
 141              		.cfi_restore_state
 142 001c 0446     		mov	r4, r0
 143              	.LBB2:
  63:Src/dac.c     ****   
 144              		.loc 1 63 0
 145 001e 03F5CE33 		add	r3, r3, #105472
 146 0022 DA69     		ldr	r2, [r3, #28]
 147 0024 42F00052 		orr	r2, r2, #536870912
 148 0028 DA61     		str	r2, [r3, #28]
 149 002a DA69     		ldr	r2, [r3, #28]
 150 002c 02F00052 		and	r2, r2, #536870912
 151 0030 0192     		str	r2, [sp, #4]
 152 0032 019A     		ldr	r2, [sp, #4]
 153              	.LBE2:
 154              	.LBB3:
  65:Src/dac.c     ****     /**DAC1 GPIO Configuration    
 155              		.loc 1 65 0
 156 0034 5A69     		ldr	r2, [r3, #20]
 157 0036 42F40032 		orr	r2, r2, #131072
 158 003a 5A61     		str	r2, [r3, #20]
 159 003c 5B69     		ldr	r3, [r3, #20]
 160 003e 03F40033 		and	r3, r3, #131072
 161 0042 0293     		str	r3, [sp, #8]
 162 0044 029B     		ldr	r3, [sp, #8]
 163              	.LBE3:
  69:Src/dac.c     ****     GPIO_InitStruct.Mode = GPIO_MODE_ANALOG;
 164              		.loc 1 69 0
 165 0046 1025     		movs	r5, #16
 166 0048 0395     		str	r5, [sp, #12]
  70:Src/dac.c     ****     GPIO_InitStruct.Pull = GPIO_NOPULL;
 167              		.loc 1 70 0
 168 004a 0323     		movs	r3, #3
 169 004c 0493     		str	r3, [sp, #16]
  72:Src/dac.c     **** 
 170              		.loc 1 72 0
 171 004e 03A9     		add	r1, sp, #12
 172 0050 4FF09040 		mov	r0, #1207959552
 173              	.LVL7:
 174 0054 FFF7FEFF 		bl	HAL_GPIO_Init
 175              	.LVL8:
  76:Src/dac.c     ****     hdma_dac1_ch1.Init.Direction = DMA_MEMORY_TO_PERIPH;
 176              		.loc 1 76 0
 177 0058 1048     		ldr	r0, .L15+4
 178 005a 114B     		ldr	r3, .L15+8
 179 005c 0360     		str	r3, [r0]
  77:Src/dac.c     ****     hdma_dac1_ch1.Init.PeriphInc = DMA_PINC_DISABLE;
 180              		.loc 1 77 0
 181 005e 4560     		str	r5, [r0, #4]
  78:Src/dac.c     ****     hdma_dac1_ch1.Init.MemInc = DMA_MINC_DISABLE;
ARM GAS  C:\Users\acw\AppData\Local\Temp\ccJSdFey.s 			page 6


 182              		.loc 1 78 0
 183 0060 0023     		movs	r3, #0
 184 0062 8360     		str	r3, [r0, #8]
  79:Src/dac.c     ****     hdma_dac1_ch1.Init.PeriphDataAlignment = DMA_PDATAALIGN_HALFWORD;
 185              		.loc 1 79 0
 186 0064 C360     		str	r3, [r0, #12]
  80:Src/dac.c     ****     hdma_dac1_ch1.Init.MemDataAlignment = DMA_MDATAALIGN_HALFWORD;
 187              		.loc 1 80 0
 188 0066 4FF48072 		mov	r2, #256
 189 006a 0261     		str	r2, [r0, #16]
  81:Src/dac.c     ****     hdma_dac1_ch1.Init.Mode = DMA_CIRCULAR;
 190              		.loc 1 81 0
 191 006c 4FF48062 		mov	r2, #1024
 192 0070 4261     		str	r2, [r0, #20]
  82:Src/dac.c     ****     hdma_dac1_ch1.Init.Priority = DMA_PRIORITY_LOW;
 193              		.loc 1 82 0
 194 0072 2022     		movs	r2, #32
 195 0074 8261     		str	r2, [r0, #24]
  83:Src/dac.c     ****     if (HAL_DMA_Init(&hdma_dac1_ch1) != HAL_OK)
 196              		.loc 1 83 0
 197 0076 C361     		str	r3, [r0, #28]
  84:Src/dac.c     ****     {
 198              		.loc 1 84 0
 199 0078 FFF7FEFF 		bl	HAL_DMA_Init
 200              	.LVL9:
 201 007c 40B9     		cbnz	r0, .L14
 202              	.L11:
  89:Src/dac.c     **** 
 203              		.loc 1 89 0
 204 007e 094A     		ldr	r2, .L15+12
 205 0080 1368     		ldr	r3, [r2]
 206 0082 43F40053 		orr	r3, r3, #8192
 207 0086 1360     		str	r3, [r2]
  91:Src/dac.c     **** 
 208              		.loc 1 91 0
 209 0088 044B     		ldr	r3, .L15+4
 210 008a A360     		str	r3, [r4, #8]
 211 008c 5C62     		str	r4, [r3, #36]
 212              		.loc 1 97 0
 213 008e C3E7     		b	.L9
 214              	.L14:
  86:Src/dac.c     ****     }
 215              		.loc 1 86 0
 216 0090 FFF7FEFF 		bl	Error_Handler
 217              	.LVL10:
 218 0094 F3E7     		b	.L11
 219              	.L16:
 220 0096 00BF     		.align	2
 221              	.L15:
 222 0098 00740040 		.word	1073771520
 223 009c 00000000 		.word	hdma_dac1_ch1
 224 00a0 30000240 		.word	1073872944
 225 00a4 00000140 		.word	1073807360
 226              		.cfi_endproc
 227              	.LFE127:
 229              		.section	.text.HAL_DAC_MspDeInit,"ax",%progbits
 230              		.align	1
ARM GAS  C:\Users\acw\AppData\Local\Temp\ccJSdFey.s 			page 7


 231              		.global	HAL_DAC_MspDeInit
 232              		.syntax unified
 233              		.thumb
 234              		.thumb_func
 235              		.fpu fpv4-sp-d16
 237              	HAL_DAC_MspDeInit:
 238              	.LFB128:
  98:Src/dac.c     **** 
  99:Src/dac.c     **** void HAL_DAC_MspDeInit(DAC_HandleTypeDef* dacHandle)
 100:Src/dac.c     **** {
 239              		.loc 1 100 0
 240              		.cfi_startproc
 241              		@ args = 0, pretend = 0, frame = 0
 242              		@ frame_needed = 0, uses_anonymous_args = 0
 243              	.LVL11:
 101:Src/dac.c     **** 
 102:Src/dac.c     ****   if(dacHandle->Instance==DAC1)
 244              		.loc 1 102 0
 245 0000 0268     		ldr	r2, [r0]
 246 0002 0A4B     		ldr	r3, .L24
 247 0004 9A42     		cmp	r2, r3
 248 0006 00D0     		beq	.L23
 249 0008 7047     		bx	lr
 250              	.L23:
 100:Src/dac.c     **** 
 251              		.loc 1 100 0
 252 000a 10B5     		push	{r4, lr}
 253              	.LCFI8:
 254              		.cfi_def_cfa_offset 8
 255              		.cfi_offset 4, -8
 256              		.cfi_offset 14, -4
 257 000c 0446     		mov	r4, r0
 103:Src/dac.c     ****   {
 104:Src/dac.c     ****   /* USER CODE BEGIN DAC1_MspDeInit 0 */
 105:Src/dac.c     **** 
 106:Src/dac.c     ****   /* USER CODE END DAC1_MspDeInit 0 */
 107:Src/dac.c     ****     /* Peripheral clock disable */
 108:Src/dac.c     ****     __HAL_RCC_DAC1_CLK_DISABLE();
 258              		.loc 1 108 0
 259 000e 084A     		ldr	r2, .L24+4
 260 0010 D369     		ldr	r3, [r2, #28]
 261 0012 23F00053 		bic	r3, r3, #536870912
 262 0016 D361     		str	r3, [r2, #28]
 109:Src/dac.c     ****   
 110:Src/dac.c     ****     /**DAC1 GPIO Configuration    
 111:Src/dac.c     ****     PA4     ------> DAC1_OUT1 
 112:Src/dac.c     ****     */
 113:Src/dac.c     ****     HAL_GPIO_DeInit(GPIOA, GPIO_PIN_4);
 263              		.loc 1 113 0
 264 0018 1021     		movs	r1, #16
 265 001a 4FF09040 		mov	r0, #1207959552
 266              	.LVL12:
 267 001e FFF7FEFF 		bl	HAL_GPIO_DeInit
 268              	.LVL13:
 114:Src/dac.c     **** 
 115:Src/dac.c     ****     /* DAC1 DMA DeInit */
 116:Src/dac.c     ****     HAL_DMA_DeInit(dacHandle->DMA_Handle1);
ARM GAS  C:\Users\acw\AppData\Local\Temp\ccJSdFey.s 			page 8


 269              		.loc 1 116 0
 270 0022 A068     		ldr	r0, [r4, #8]
 271 0024 FFF7FEFF 		bl	HAL_DMA_DeInit
 272              	.LVL14:
 117:Src/dac.c     ****   /* USER CODE BEGIN DAC1_MspDeInit 1 */
 118:Src/dac.c     **** 
 119:Src/dac.c     ****   /* USER CODE END DAC1_MspDeInit 1 */
 120:Src/dac.c     ****   }
 121:Src/dac.c     **** } 
 273              		.loc 1 121 0
 274 0028 10BD     		pop	{r4, pc}
 275              	.LVL15:
 276              	.L25:
 277 002a 00BF     		.align	2
 278              	.L24:
 279 002c 00740040 		.word	1073771520
 280 0030 00100240 		.word	1073876992
 281              		.cfi_endproc
 282              	.LFE128:
 284              		.comm	hdma_dac1_ch1,68,4
 285              		.comm	hdac1,20,4
 286              		.text
 287              	.Letext0:
 288              		.file 2 "c:\\program files (x86)\\gnu tools arm embedded\\7 2018-q2-update\\arm-none-eabi\\include
 289              		.file 3 "c:\\program files (x86)\\gnu tools arm embedded\\7 2018-q2-update\\arm-none-eabi\\include
 290              		.file 4 "Drivers/CMSIS/Include/core_cm4.h"
 291              		.file 5 "Drivers/CMSIS/Device/ST/STM32F3xx/Include/system_stm32f3xx.h"
 292              		.file 6 "Drivers/CMSIS/Device/ST/STM32F3xx/Include/stm32f373xc.h"
 293              		.file 7 "c:\\program files (x86)\\gnu tools arm embedded\\7 2018-q2-update\\arm-none-eabi\\include
 294              		.file 8 "c:\\program files (x86)\\gnu tools arm embedded\\7 2018-q2-update\\arm-none-eabi\\include
 295              		.file 9 "c:\\program files (x86)\\gnu tools arm embedded\\7 2018-q2-update\\lib\\gcc\\arm-none-eab
 296              		.file 10 "c:\\program files (x86)\\gnu tools arm embedded\\7 2018-q2-update\\arm-none-eabi\\includ
 297              		.file 11 "Drivers/STM32F3xx_HAL_Driver/Inc/stm32f3xx_hal_def.h"
 298              		.file 12 "Drivers/STM32F3xx_HAL_Driver/Inc/stm32f3xx_hal_gpio.h"
 299              		.file 13 "Drivers/STM32F3xx_HAL_Driver/Inc/stm32f3xx_hal_dma.h"
 300              		.file 14 "Drivers/STM32F3xx_HAL_Driver/Inc/stm32f3xx_hal_dac.h"
 301              		.file 15 "Drivers/STM32F3xx_HAL_Driver/Inc/stm32f3xx_hal.h"
 302              		.file 16 "Inc/dac.h"
 303              		.file 17 "Inc/main.h"
ARM GAS  C:\Users\acw\AppData\Local\Temp\ccJSdFey.s 			page 9

