ARM GAS  C:\Users\acw\AppData\Local\Temp\ccoXZyGi.s 			page 1


   1              		.cpu cortex-m4
   2              		.eabi_attribute 27, 1
   3              		.eabi_attribute 28, 1
   4              		.eabi_attribute 20, 1
   5              		.eabi_attribute 21, 1
   6              		.eabi_attribute 23, 3
   7              		.eabi_attribute 24, 1
   8              		.eabi_attribute 25, 1
   9              		.eabi_attribute 26, 1
  10              		.eabi_attribute 30, 1
  11              		.eabi_attribute 34, 1
  12              		.eabi_attribute 18, 4
  13              		.file	"stm32f3xx_hal_pcd.c"
  14              		.text
  15              	.Ltext0:
  16              		.cfi_sections	.debug_frame
  17              		.section	.text.HAL_PCD_MspInit,"ax",%progbits
  18              		.align	1
  19              		.weak	HAL_PCD_MspInit
  20              		.syntax unified
  21              		.thumb
  22              		.thumb_func
  23              		.fpu fpv4-sp-d16
  25              	HAL_PCD_MspInit:
  26              	.LFB128:
  27              		.file 1 "Drivers/STM32F3xx_HAL_Driver/Src/stm32f3xx_hal_pcd.c"
   1:Drivers/STM32F3xx_HAL_Driver/Src/stm32f3xx_hal_pcd.c **** /**
   2:Drivers/STM32F3xx_HAL_Driver/Src/stm32f3xx_hal_pcd.c ****   ******************************************************************************
   3:Drivers/STM32F3xx_HAL_Driver/Src/stm32f3xx_hal_pcd.c ****   * @file    stm32f3xx_hal_pcd.c
   4:Drivers/STM32F3xx_HAL_Driver/Src/stm32f3xx_hal_pcd.c ****   * @author  MCD Application Team
   5:Drivers/STM32F3xx_HAL_Driver/Src/stm32f3xx_hal_pcd.c ****   * @brief   PCD HAL module driver.
   6:Drivers/STM32F3xx_HAL_Driver/Src/stm32f3xx_hal_pcd.c ****   *          This file provides firmware functions to manage the following 
   7:Drivers/STM32F3xx_HAL_Driver/Src/stm32f3xx_hal_pcd.c ****   *          functionalities of the USB Peripheral Controller:
   8:Drivers/STM32F3xx_HAL_Driver/Src/stm32f3xx_hal_pcd.c ****   *           + Initialization and de-initialization functions
   9:Drivers/STM32F3xx_HAL_Driver/Src/stm32f3xx_hal_pcd.c ****   *           + IO operation functions
  10:Drivers/STM32F3xx_HAL_Driver/Src/stm32f3xx_hal_pcd.c ****   *           + Peripheral Control functions 
  11:Drivers/STM32F3xx_HAL_Driver/Src/stm32f3xx_hal_pcd.c ****   *           + Peripheral State functions
  12:Drivers/STM32F3xx_HAL_Driver/Src/stm32f3xx_hal_pcd.c ****   *         
  13:Drivers/STM32F3xx_HAL_Driver/Src/stm32f3xx_hal_pcd.c ****   @verbatim
  14:Drivers/STM32F3xx_HAL_Driver/Src/stm32f3xx_hal_pcd.c ****   ==============================================================================
  15:Drivers/STM32F3xx_HAL_Driver/Src/stm32f3xx_hal_pcd.c ****                     ##### How to use this driver #####
  16:Drivers/STM32F3xx_HAL_Driver/Src/stm32f3xx_hal_pcd.c ****   ==============================================================================
  17:Drivers/STM32F3xx_HAL_Driver/Src/stm32f3xx_hal_pcd.c ****     [..]
  18:Drivers/STM32F3xx_HAL_Driver/Src/stm32f3xx_hal_pcd.c ****       The PCD HAL driver can be used as follows:
  19:Drivers/STM32F3xx_HAL_Driver/Src/stm32f3xx_hal_pcd.c **** 
  20:Drivers/STM32F3xx_HAL_Driver/Src/stm32f3xx_hal_pcd.c ****      (#) Declare a PCD_HandleTypeDef handle structure, for example:
  21:Drivers/STM32F3xx_HAL_Driver/Src/stm32f3xx_hal_pcd.c ****          PCD_HandleTypeDef  hpcd;
  22:Drivers/STM32F3xx_HAL_Driver/Src/stm32f3xx_hal_pcd.c ****         
  23:Drivers/STM32F3xx_HAL_Driver/Src/stm32f3xx_hal_pcd.c ****      (#) Fill parameters of Init structure in HCD handle
  24:Drivers/STM32F3xx_HAL_Driver/Src/stm32f3xx_hal_pcd.c ****   
  25:Drivers/STM32F3xx_HAL_Driver/Src/stm32f3xx_hal_pcd.c ****      (#) Call HAL_PCD_Init() API to initialize the HCD peripheral (Core, Device core, ...) 
  26:Drivers/STM32F3xx_HAL_Driver/Src/stm32f3xx_hal_pcd.c **** 
  27:Drivers/STM32F3xx_HAL_Driver/Src/stm32f3xx_hal_pcd.c ****      (#) Initialize the PCD low level resources through the HAL_PCD_MspInit() API:
  28:Drivers/STM32F3xx_HAL_Driver/Src/stm32f3xx_hal_pcd.c ****          (##) Enable the PCD/USB Low Level interface clock using 
  29:Drivers/STM32F3xx_HAL_Driver/Src/stm32f3xx_hal_pcd.c ****               (+++) __HAL_RCC_USB_CLK_ENABLE();
  30:Drivers/STM32F3xx_HAL_Driver/Src/stm32f3xx_hal_pcd.c ****            
  31:Drivers/STM32F3xx_HAL_Driver/Src/stm32f3xx_hal_pcd.c ****          (##) Initialize the related GPIO clocks
ARM GAS  C:\Users\acw\AppData\Local\Temp\ccoXZyGi.s 			page 2


  32:Drivers/STM32F3xx_HAL_Driver/Src/stm32f3xx_hal_pcd.c ****          (##) Configure PCD pin-out
  33:Drivers/STM32F3xx_HAL_Driver/Src/stm32f3xx_hal_pcd.c ****          (##) Configure PCD NVIC interrupt
  34:Drivers/STM32F3xx_HAL_Driver/Src/stm32f3xx_hal_pcd.c ****     
  35:Drivers/STM32F3xx_HAL_Driver/Src/stm32f3xx_hal_pcd.c ****      (#)Associate the Upper USB device stack to the HAL PCD Driver:
  36:Drivers/STM32F3xx_HAL_Driver/Src/stm32f3xx_hal_pcd.c ****          (##) hpcd.pData = pdev;
  37:Drivers/STM32F3xx_HAL_Driver/Src/stm32f3xx_hal_pcd.c **** 
  38:Drivers/STM32F3xx_HAL_Driver/Src/stm32f3xx_hal_pcd.c ****      (#)Enable HCD transmission and reception:
  39:Drivers/STM32F3xx_HAL_Driver/Src/stm32f3xx_hal_pcd.c ****          (##) HAL_PCD_Start();
  40:Drivers/STM32F3xx_HAL_Driver/Src/stm32f3xx_hal_pcd.c **** 
  41:Drivers/STM32F3xx_HAL_Driver/Src/stm32f3xx_hal_pcd.c ****   @endverbatim
  42:Drivers/STM32F3xx_HAL_Driver/Src/stm32f3xx_hal_pcd.c ****   ******************************************************************************
  43:Drivers/STM32F3xx_HAL_Driver/Src/stm32f3xx_hal_pcd.c ****   * @attention
  44:Drivers/STM32F3xx_HAL_Driver/Src/stm32f3xx_hal_pcd.c ****   *
  45:Drivers/STM32F3xx_HAL_Driver/Src/stm32f3xx_hal_pcd.c ****   * <h2><center>&copy; COPYRIGHT(c) 2016 STMicroelectronics</center></h2>
  46:Drivers/STM32F3xx_HAL_Driver/Src/stm32f3xx_hal_pcd.c ****   *
  47:Drivers/STM32F3xx_HAL_Driver/Src/stm32f3xx_hal_pcd.c ****   * Redistribution and use in source and binary forms, with or without modification,
  48:Drivers/STM32F3xx_HAL_Driver/Src/stm32f3xx_hal_pcd.c ****   * are permitted provided that the following conditions are met:
  49:Drivers/STM32F3xx_HAL_Driver/Src/stm32f3xx_hal_pcd.c ****   *   1. Redistributions of source code must retain the above copyright notice,
  50:Drivers/STM32F3xx_HAL_Driver/Src/stm32f3xx_hal_pcd.c ****   *      this list of conditions and the following disclaimer.
  51:Drivers/STM32F3xx_HAL_Driver/Src/stm32f3xx_hal_pcd.c ****   *   2. Redistributions in binary form must reproduce the above copyright notice,
  52:Drivers/STM32F3xx_HAL_Driver/Src/stm32f3xx_hal_pcd.c ****   *      this list of conditions and the following disclaimer in the documentation
  53:Drivers/STM32F3xx_HAL_Driver/Src/stm32f3xx_hal_pcd.c ****   *      and/or other materials provided with the distribution.
  54:Drivers/STM32F3xx_HAL_Driver/Src/stm32f3xx_hal_pcd.c ****   *   3. Neither the name of STMicroelectronics nor the names of its contributors
  55:Drivers/STM32F3xx_HAL_Driver/Src/stm32f3xx_hal_pcd.c ****   *      may be used to endorse or promote products derived from this software
  56:Drivers/STM32F3xx_HAL_Driver/Src/stm32f3xx_hal_pcd.c ****   *      without specific prior written permission.
  57:Drivers/STM32F3xx_HAL_Driver/Src/stm32f3xx_hal_pcd.c ****   *
  58:Drivers/STM32F3xx_HAL_Driver/Src/stm32f3xx_hal_pcd.c ****   * THIS SOFTWARE IS PROVIDED BY THE COPYRIGHT HOLDERS AND CONTRIBUTORS "AS IS"
  59:Drivers/STM32F3xx_HAL_Driver/Src/stm32f3xx_hal_pcd.c ****   * AND ANY EXPRESS OR IMPLIED WARRANTIES, INCLUDING, BUT NOT LIMITED TO, THE
  60:Drivers/STM32F3xx_HAL_Driver/Src/stm32f3xx_hal_pcd.c ****   * IMPLIED WARRANTIES OF MERCHANTABILITY AND FITNESS FOR A PARTICULAR PURPOSE ARE
  61:Drivers/STM32F3xx_HAL_Driver/Src/stm32f3xx_hal_pcd.c ****   * DISCLAIMED. IN NO EVENT SHALL THE COPYRIGHT HOLDER OR CONTRIBUTORS BE LIABLE
  62:Drivers/STM32F3xx_HAL_Driver/Src/stm32f3xx_hal_pcd.c ****   * FOR ANY DIRECT, INDIRECT, INCIDENTAL, SPECIAL, EXEMPLARY, OR CONSEQUENTIAL
  63:Drivers/STM32F3xx_HAL_Driver/Src/stm32f3xx_hal_pcd.c ****   * DAMAGES (INCLUDING, BUT NOT LIMITED TO, PROCUREMENT OF SUBSTITUTE GOODS OR
  64:Drivers/STM32F3xx_HAL_Driver/Src/stm32f3xx_hal_pcd.c ****   * SERVICES; LOSS OF USE, DATA, OR PROFITS; OR BUSINESS INTERRUPTION) HOWEVER
  65:Drivers/STM32F3xx_HAL_Driver/Src/stm32f3xx_hal_pcd.c ****   * CAUSED AND ON ANY THEORY OF LIABILITY, WHETHER IN CONTRACT, STRICT LIABILITY,
  66:Drivers/STM32F3xx_HAL_Driver/Src/stm32f3xx_hal_pcd.c ****   * OR TORT (INCLUDING NEGLIGENCE OR OTHERWISE) ARISING IN ANY WAY OUT OF THE USE
  67:Drivers/STM32F3xx_HAL_Driver/Src/stm32f3xx_hal_pcd.c ****   * OF THIS SOFTWARE, EVEN IF ADVISED OF THE POSSIBILITY OF SUCH DAMAGE.
  68:Drivers/STM32F3xx_HAL_Driver/Src/stm32f3xx_hal_pcd.c ****   *
  69:Drivers/STM32F3xx_HAL_Driver/Src/stm32f3xx_hal_pcd.c ****   ******************************************************************************
  70:Drivers/STM32F3xx_HAL_Driver/Src/stm32f3xx_hal_pcd.c ****   */
  71:Drivers/STM32F3xx_HAL_Driver/Src/stm32f3xx_hal_pcd.c **** 
  72:Drivers/STM32F3xx_HAL_Driver/Src/stm32f3xx_hal_pcd.c **** /* Includes ------------------------------------------------------------------*/
  73:Drivers/STM32F3xx_HAL_Driver/Src/stm32f3xx_hal_pcd.c **** #include "stm32f3xx_hal.h"
  74:Drivers/STM32F3xx_HAL_Driver/Src/stm32f3xx_hal_pcd.c **** 
  75:Drivers/STM32F3xx_HAL_Driver/Src/stm32f3xx_hal_pcd.c **** #ifdef HAL_PCD_MODULE_ENABLED
  76:Drivers/STM32F3xx_HAL_Driver/Src/stm32f3xx_hal_pcd.c **** 
  77:Drivers/STM32F3xx_HAL_Driver/Src/stm32f3xx_hal_pcd.c **** #if defined(STM32F302xE) || defined(STM32F303xE) || \
  78:Drivers/STM32F3xx_HAL_Driver/Src/stm32f3xx_hal_pcd.c ****     defined(STM32F302xC) || defined(STM32F303xC) || \
  79:Drivers/STM32F3xx_HAL_Driver/Src/stm32f3xx_hal_pcd.c ****     defined(STM32F302x8)                         || \
  80:Drivers/STM32F3xx_HAL_Driver/Src/stm32f3xx_hal_pcd.c ****     defined(STM32F373xC)
  81:Drivers/STM32F3xx_HAL_Driver/Src/stm32f3xx_hal_pcd.c **** 
  82:Drivers/STM32F3xx_HAL_Driver/Src/stm32f3xx_hal_pcd.c **** /** @addtogroup STM32F3xx_HAL_Driver
  83:Drivers/STM32F3xx_HAL_Driver/Src/stm32f3xx_hal_pcd.c ****   * @{
  84:Drivers/STM32F3xx_HAL_Driver/Src/stm32f3xx_hal_pcd.c ****   */
  85:Drivers/STM32F3xx_HAL_Driver/Src/stm32f3xx_hal_pcd.c **** 
  86:Drivers/STM32F3xx_HAL_Driver/Src/stm32f3xx_hal_pcd.c **** /** @defgroup PCD PCD
  87:Drivers/STM32F3xx_HAL_Driver/Src/stm32f3xx_hal_pcd.c ****   * @brief PCD HAL module driver
  88:Drivers/STM32F3xx_HAL_Driver/Src/stm32f3xx_hal_pcd.c ****   * @{
ARM GAS  C:\Users\acw\AppData\Local\Temp\ccoXZyGi.s 			page 3


  89:Drivers/STM32F3xx_HAL_Driver/Src/stm32f3xx_hal_pcd.c ****   */
  90:Drivers/STM32F3xx_HAL_Driver/Src/stm32f3xx_hal_pcd.c **** 
  91:Drivers/STM32F3xx_HAL_Driver/Src/stm32f3xx_hal_pcd.c **** /* Private typedef -----------------------------------------------------------*/
  92:Drivers/STM32F3xx_HAL_Driver/Src/stm32f3xx_hal_pcd.c **** /* Private define ------------------------------------------------------------*/
  93:Drivers/STM32F3xx_HAL_Driver/Src/stm32f3xx_hal_pcd.c **** 
  94:Drivers/STM32F3xx_HAL_Driver/Src/stm32f3xx_hal_pcd.c **** /** @defgroup PCD_Private_Define PCD Private Define
  95:Drivers/STM32F3xx_HAL_Driver/Src/stm32f3xx_hal_pcd.c ****   * @{
  96:Drivers/STM32F3xx_HAL_Driver/Src/stm32f3xx_hal_pcd.c ****   */
  97:Drivers/STM32F3xx_HAL_Driver/Src/stm32f3xx_hal_pcd.c **** #define BTABLE_ADDRESS                  (0x000U)  
  98:Drivers/STM32F3xx_HAL_Driver/Src/stm32f3xx_hal_pcd.c **** /**
  99:Drivers/STM32F3xx_HAL_Driver/Src/stm32f3xx_hal_pcd.c ****   * @}
 100:Drivers/STM32F3xx_HAL_Driver/Src/stm32f3xx_hal_pcd.c ****   */ 
 101:Drivers/STM32F3xx_HAL_Driver/Src/stm32f3xx_hal_pcd.c ****   
 102:Drivers/STM32F3xx_HAL_Driver/Src/stm32f3xx_hal_pcd.c **** /* Private macro -------------------------------------------------------------*/
 103:Drivers/STM32F3xx_HAL_Driver/Src/stm32f3xx_hal_pcd.c **** /* Private variables ---------------------------------------------------------*/
 104:Drivers/STM32F3xx_HAL_Driver/Src/stm32f3xx_hal_pcd.c **** /* Private function prototypes -----------------------------------------------*/
 105:Drivers/STM32F3xx_HAL_Driver/Src/stm32f3xx_hal_pcd.c **** /** @defgroup PCD_Private_Functions PCD Private Functions
 106:Drivers/STM32F3xx_HAL_Driver/Src/stm32f3xx_hal_pcd.c ****   * @{
 107:Drivers/STM32F3xx_HAL_Driver/Src/stm32f3xx_hal_pcd.c ****   */
 108:Drivers/STM32F3xx_HAL_Driver/Src/stm32f3xx_hal_pcd.c **** static HAL_StatusTypeDef PCD_EP_ISR_Handler(PCD_HandleTypeDef *hpcd);
 109:Drivers/STM32F3xx_HAL_Driver/Src/stm32f3xx_hal_pcd.c **** /**
 110:Drivers/STM32F3xx_HAL_Driver/Src/stm32f3xx_hal_pcd.c ****   * @}
 111:Drivers/STM32F3xx_HAL_Driver/Src/stm32f3xx_hal_pcd.c ****   */ 
 112:Drivers/STM32F3xx_HAL_Driver/Src/stm32f3xx_hal_pcd.c **** 
 113:Drivers/STM32F3xx_HAL_Driver/Src/stm32f3xx_hal_pcd.c **** /* Exported functions ---------------------------------------------------------*/
 114:Drivers/STM32F3xx_HAL_Driver/Src/stm32f3xx_hal_pcd.c **** 
 115:Drivers/STM32F3xx_HAL_Driver/Src/stm32f3xx_hal_pcd.c **** /** @defgroup PCD_Exported_Functions PCD Exported Functions
 116:Drivers/STM32F3xx_HAL_Driver/Src/stm32f3xx_hal_pcd.c ****   * @{
 117:Drivers/STM32F3xx_HAL_Driver/Src/stm32f3xx_hal_pcd.c ****   */
 118:Drivers/STM32F3xx_HAL_Driver/Src/stm32f3xx_hal_pcd.c **** 
 119:Drivers/STM32F3xx_HAL_Driver/Src/stm32f3xx_hal_pcd.c **** /** @defgroup PCD_Exported_Functions_Group1 Initialization and de-initialization functions 
 120:Drivers/STM32F3xx_HAL_Driver/Src/stm32f3xx_hal_pcd.c ****  *  @brief    Initialization and Configuration functions 
 121:Drivers/STM32F3xx_HAL_Driver/Src/stm32f3xx_hal_pcd.c ****  *
 122:Drivers/STM32F3xx_HAL_Driver/Src/stm32f3xx_hal_pcd.c **** @verbatim
 123:Drivers/STM32F3xx_HAL_Driver/Src/stm32f3xx_hal_pcd.c ****  ===============================================================================
 124:Drivers/STM32F3xx_HAL_Driver/Src/stm32f3xx_hal_pcd.c ****             ##### Initialization and de-initialization functions #####
 125:Drivers/STM32F3xx_HAL_Driver/Src/stm32f3xx_hal_pcd.c ****  ===============================================================================
 126:Drivers/STM32F3xx_HAL_Driver/Src/stm32f3xx_hal_pcd.c ****     [..]  This section provides functions allowing to:
 127:Drivers/STM32F3xx_HAL_Driver/Src/stm32f3xx_hal_pcd.c ****  
 128:Drivers/STM32F3xx_HAL_Driver/Src/stm32f3xx_hal_pcd.c **** @endverbatim
 129:Drivers/STM32F3xx_HAL_Driver/Src/stm32f3xx_hal_pcd.c ****   * @{
 130:Drivers/STM32F3xx_HAL_Driver/Src/stm32f3xx_hal_pcd.c ****   */
 131:Drivers/STM32F3xx_HAL_Driver/Src/stm32f3xx_hal_pcd.c **** 
 132:Drivers/STM32F3xx_HAL_Driver/Src/stm32f3xx_hal_pcd.c **** /**
 133:Drivers/STM32F3xx_HAL_Driver/Src/stm32f3xx_hal_pcd.c ****   * @brief  Initializes the PCD according to the specified
 134:Drivers/STM32F3xx_HAL_Driver/Src/stm32f3xx_hal_pcd.c ****   *         parameters in the PCD_InitTypeDef and create the associated handle.
 135:Drivers/STM32F3xx_HAL_Driver/Src/stm32f3xx_hal_pcd.c ****   * @param  hpcd PCD handle
 136:Drivers/STM32F3xx_HAL_Driver/Src/stm32f3xx_hal_pcd.c ****   * @retval HAL status
 137:Drivers/STM32F3xx_HAL_Driver/Src/stm32f3xx_hal_pcd.c ****   */
 138:Drivers/STM32F3xx_HAL_Driver/Src/stm32f3xx_hal_pcd.c **** HAL_StatusTypeDef HAL_PCD_Init(PCD_HandleTypeDef *hpcd)
 139:Drivers/STM32F3xx_HAL_Driver/Src/stm32f3xx_hal_pcd.c **** { 
 140:Drivers/STM32F3xx_HAL_Driver/Src/stm32f3xx_hal_pcd.c ****   uint32_t i = 0U;
 141:Drivers/STM32F3xx_HAL_Driver/Src/stm32f3xx_hal_pcd.c **** 
 142:Drivers/STM32F3xx_HAL_Driver/Src/stm32f3xx_hal_pcd.c ****   uint32_t wInterrupt_Mask = 0U;
 143:Drivers/STM32F3xx_HAL_Driver/Src/stm32f3xx_hal_pcd.c ****   
 144:Drivers/STM32F3xx_HAL_Driver/Src/stm32f3xx_hal_pcd.c ****   /* Check the PCD handle allocation */
 145:Drivers/STM32F3xx_HAL_Driver/Src/stm32f3xx_hal_pcd.c ****   if(hpcd == NULL)
ARM GAS  C:\Users\acw\AppData\Local\Temp\ccoXZyGi.s 			page 4


 146:Drivers/STM32F3xx_HAL_Driver/Src/stm32f3xx_hal_pcd.c ****   {
 147:Drivers/STM32F3xx_HAL_Driver/Src/stm32f3xx_hal_pcd.c ****     return HAL_ERROR;
 148:Drivers/STM32F3xx_HAL_Driver/Src/stm32f3xx_hal_pcd.c ****   }
 149:Drivers/STM32F3xx_HAL_Driver/Src/stm32f3xx_hal_pcd.c ****   
 150:Drivers/STM32F3xx_HAL_Driver/Src/stm32f3xx_hal_pcd.c ****   /* Check the parameters */
 151:Drivers/STM32F3xx_HAL_Driver/Src/stm32f3xx_hal_pcd.c ****   assert_param(IS_PCD_ALL_INSTANCE(hpcd->Instance));
 152:Drivers/STM32F3xx_HAL_Driver/Src/stm32f3xx_hal_pcd.c **** 
 153:Drivers/STM32F3xx_HAL_Driver/Src/stm32f3xx_hal_pcd.c ****   if(hpcd->State == HAL_PCD_STATE_RESET)
 154:Drivers/STM32F3xx_HAL_Driver/Src/stm32f3xx_hal_pcd.c ****   {  
 155:Drivers/STM32F3xx_HAL_Driver/Src/stm32f3xx_hal_pcd.c ****     /* Allocate lock resource and initialize it */
 156:Drivers/STM32F3xx_HAL_Driver/Src/stm32f3xx_hal_pcd.c ****     hpcd->Lock = HAL_UNLOCKED;
 157:Drivers/STM32F3xx_HAL_Driver/Src/stm32f3xx_hal_pcd.c ****   
 158:Drivers/STM32F3xx_HAL_Driver/Src/stm32f3xx_hal_pcd.c ****     /* Init the low level hardware : GPIO, CLOCK, NVIC... */
 159:Drivers/STM32F3xx_HAL_Driver/Src/stm32f3xx_hal_pcd.c ****     HAL_PCD_MspInit(hpcd);
 160:Drivers/STM32F3xx_HAL_Driver/Src/stm32f3xx_hal_pcd.c ****   }
 161:Drivers/STM32F3xx_HAL_Driver/Src/stm32f3xx_hal_pcd.c **** 
 162:Drivers/STM32F3xx_HAL_Driver/Src/stm32f3xx_hal_pcd.c ****   hpcd->State = HAL_PCD_STATE_BUSY;
 163:Drivers/STM32F3xx_HAL_Driver/Src/stm32f3xx_hal_pcd.c ****  
 164:Drivers/STM32F3xx_HAL_Driver/Src/stm32f3xx_hal_pcd.c ****  /* Init endpoints structures */
 165:Drivers/STM32F3xx_HAL_Driver/Src/stm32f3xx_hal_pcd.c ****  for (i = 0U; i < hpcd->Init.dev_endpoints ; i++)
 166:Drivers/STM32F3xx_HAL_Driver/Src/stm32f3xx_hal_pcd.c ****  {
 167:Drivers/STM32F3xx_HAL_Driver/Src/stm32f3xx_hal_pcd.c ****    /* Init ep structure */
 168:Drivers/STM32F3xx_HAL_Driver/Src/stm32f3xx_hal_pcd.c ****    hpcd->IN_ep[i].is_in = 1U;
 169:Drivers/STM32F3xx_HAL_Driver/Src/stm32f3xx_hal_pcd.c ****    hpcd->IN_ep[i].num = i;
 170:Drivers/STM32F3xx_HAL_Driver/Src/stm32f3xx_hal_pcd.c ****    /* Control until ep is actvated */
 171:Drivers/STM32F3xx_HAL_Driver/Src/stm32f3xx_hal_pcd.c ****    hpcd->IN_ep[i].type = PCD_EP_TYPE_CTRL;
 172:Drivers/STM32F3xx_HAL_Driver/Src/stm32f3xx_hal_pcd.c ****    hpcd->IN_ep[i].maxpacket =  0U;
 173:Drivers/STM32F3xx_HAL_Driver/Src/stm32f3xx_hal_pcd.c ****    hpcd->IN_ep[i].xfer_buff = 0U;
 174:Drivers/STM32F3xx_HAL_Driver/Src/stm32f3xx_hal_pcd.c ****    hpcd->IN_ep[i].xfer_len = 0U;
 175:Drivers/STM32F3xx_HAL_Driver/Src/stm32f3xx_hal_pcd.c ****  }
 176:Drivers/STM32F3xx_HAL_Driver/Src/stm32f3xx_hal_pcd.c ****  
 177:Drivers/STM32F3xx_HAL_Driver/Src/stm32f3xx_hal_pcd.c ****  for (i = 0U; i < hpcd->Init.dev_endpoints ; i++)
 178:Drivers/STM32F3xx_HAL_Driver/Src/stm32f3xx_hal_pcd.c ****  {
 179:Drivers/STM32F3xx_HAL_Driver/Src/stm32f3xx_hal_pcd.c ****    hpcd->OUT_ep[i].is_in = 0U;
 180:Drivers/STM32F3xx_HAL_Driver/Src/stm32f3xx_hal_pcd.c ****    hpcd->OUT_ep[i].num = i;
 181:Drivers/STM32F3xx_HAL_Driver/Src/stm32f3xx_hal_pcd.c ****    /* Control until ep is activated */
 182:Drivers/STM32F3xx_HAL_Driver/Src/stm32f3xx_hal_pcd.c ****    hpcd->OUT_ep[i].type = PCD_EP_TYPE_CTRL;
 183:Drivers/STM32F3xx_HAL_Driver/Src/stm32f3xx_hal_pcd.c ****    hpcd->OUT_ep[i].maxpacket = 0U;
 184:Drivers/STM32F3xx_HAL_Driver/Src/stm32f3xx_hal_pcd.c ****    hpcd->OUT_ep[i].xfer_buff = 0U;
 185:Drivers/STM32F3xx_HAL_Driver/Src/stm32f3xx_hal_pcd.c ****    hpcd->OUT_ep[i].xfer_len = 0U;
 186:Drivers/STM32F3xx_HAL_Driver/Src/stm32f3xx_hal_pcd.c ****  }
 187:Drivers/STM32F3xx_HAL_Driver/Src/stm32f3xx_hal_pcd.c ****   
 188:Drivers/STM32F3xx_HAL_Driver/Src/stm32f3xx_hal_pcd.c ****  /* Init Device */
 189:Drivers/STM32F3xx_HAL_Driver/Src/stm32f3xx_hal_pcd.c ****  /*CNTR_FRES = 1U*/
 190:Drivers/STM32F3xx_HAL_Driver/Src/stm32f3xx_hal_pcd.c ****  hpcd->Instance->CNTR = USB_CNTR_FRES;
 191:Drivers/STM32F3xx_HAL_Driver/Src/stm32f3xx_hal_pcd.c ****  
 192:Drivers/STM32F3xx_HAL_Driver/Src/stm32f3xx_hal_pcd.c ****  /*CNTR_FRES = 0U*/
 193:Drivers/STM32F3xx_HAL_Driver/Src/stm32f3xx_hal_pcd.c ****  hpcd->Instance->CNTR = 0U;
 194:Drivers/STM32F3xx_HAL_Driver/Src/stm32f3xx_hal_pcd.c ****  
 195:Drivers/STM32F3xx_HAL_Driver/Src/stm32f3xx_hal_pcd.c ****  /*Clear pending interrupts*/
 196:Drivers/STM32F3xx_HAL_Driver/Src/stm32f3xx_hal_pcd.c ****  hpcd->Instance->ISTR = 0U;
 197:Drivers/STM32F3xx_HAL_Driver/Src/stm32f3xx_hal_pcd.c ****  
 198:Drivers/STM32F3xx_HAL_Driver/Src/stm32f3xx_hal_pcd.c ****   /*Set Btable Adress*/
 199:Drivers/STM32F3xx_HAL_Driver/Src/stm32f3xx_hal_pcd.c ****  hpcd->Instance->BTABLE = BTABLE_ADDRESS;
 200:Drivers/STM32F3xx_HAL_Driver/Src/stm32f3xx_hal_pcd.c ****   
 201:Drivers/STM32F3xx_HAL_Driver/Src/stm32f3xx_hal_pcd.c ****   /*set wInterrupt_Mask global variable*/
 202:Drivers/STM32F3xx_HAL_Driver/Src/stm32f3xx_hal_pcd.c ****   wInterrupt_Mask = USB_CNTR_CTRM  | USB_CNTR_WKUPM | USB_CNTR_SUSPM | USB_CNTR_ERRM \
ARM GAS  C:\Users\acw\AppData\Local\Temp\ccoXZyGi.s 			page 5


 203:Drivers/STM32F3xx_HAL_Driver/Src/stm32f3xx_hal_pcd.c ****   | USB_CNTR_SOFM | USB_CNTR_ESOFM | USB_CNTR_RESETM;
 204:Drivers/STM32F3xx_HAL_Driver/Src/stm32f3xx_hal_pcd.c ****   
 205:Drivers/STM32F3xx_HAL_Driver/Src/stm32f3xx_hal_pcd.c ****   /*Set interrupt mask*/
 206:Drivers/STM32F3xx_HAL_Driver/Src/stm32f3xx_hal_pcd.c ****   hpcd->Instance->CNTR = wInterrupt_Mask;
 207:Drivers/STM32F3xx_HAL_Driver/Src/stm32f3xx_hal_pcd.c ****   
 208:Drivers/STM32F3xx_HAL_Driver/Src/stm32f3xx_hal_pcd.c ****   hpcd->USB_Address = 0U;
 209:Drivers/STM32F3xx_HAL_Driver/Src/stm32f3xx_hal_pcd.c ****   hpcd->State= HAL_PCD_STATE_READY;
 210:Drivers/STM32F3xx_HAL_Driver/Src/stm32f3xx_hal_pcd.c **** 
 211:Drivers/STM32F3xx_HAL_Driver/Src/stm32f3xx_hal_pcd.c ****  return HAL_OK;
 212:Drivers/STM32F3xx_HAL_Driver/Src/stm32f3xx_hal_pcd.c **** }
 213:Drivers/STM32F3xx_HAL_Driver/Src/stm32f3xx_hal_pcd.c **** 
 214:Drivers/STM32F3xx_HAL_Driver/Src/stm32f3xx_hal_pcd.c **** /**
 215:Drivers/STM32F3xx_HAL_Driver/Src/stm32f3xx_hal_pcd.c ****   * @brief  DeInitializes the PCD peripheral 
 216:Drivers/STM32F3xx_HAL_Driver/Src/stm32f3xx_hal_pcd.c ****   * @param  hpcd PCD handle
 217:Drivers/STM32F3xx_HAL_Driver/Src/stm32f3xx_hal_pcd.c ****   * @retval HAL status
 218:Drivers/STM32F3xx_HAL_Driver/Src/stm32f3xx_hal_pcd.c ****   */
 219:Drivers/STM32F3xx_HAL_Driver/Src/stm32f3xx_hal_pcd.c **** HAL_StatusTypeDef HAL_PCD_DeInit(PCD_HandleTypeDef *hpcd)
 220:Drivers/STM32F3xx_HAL_Driver/Src/stm32f3xx_hal_pcd.c **** {
 221:Drivers/STM32F3xx_HAL_Driver/Src/stm32f3xx_hal_pcd.c ****   /* Check the PCD handle allocation */
 222:Drivers/STM32F3xx_HAL_Driver/Src/stm32f3xx_hal_pcd.c ****   if(hpcd == NULL)
 223:Drivers/STM32F3xx_HAL_Driver/Src/stm32f3xx_hal_pcd.c ****   {
 224:Drivers/STM32F3xx_HAL_Driver/Src/stm32f3xx_hal_pcd.c ****     return HAL_ERROR;
 225:Drivers/STM32F3xx_HAL_Driver/Src/stm32f3xx_hal_pcd.c ****   }
 226:Drivers/STM32F3xx_HAL_Driver/Src/stm32f3xx_hal_pcd.c **** 
 227:Drivers/STM32F3xx_HAL_Driver/Src/stm32f3xx_hal_pcd.c ****   hpcd->State = HAL_PCD_STATE_BUSY;
 228:Drivers/STM32F3xx_HAL_Driver/Src/stm32f3xx_hal_pcd.c ****   
 229:Drivers/STM32F3xx_HAL_Driver/Src/stm32f3xx_hal_pcd.c ****   /* Stop Device */
 230:Drivers/STM32F3xx_HAL_Driver/Src/stm32f3xx_hal_pcd.c ****   HAL_PCD_Stop(hpcd);
 231:Drivers/STM32F3xx_HAL_Driver/Src/stm32f3xx_hal_pcd.c ****     
 232:Drivers/STM32F3xx_HAL_Driver/Src/stm32f3xx_hal_pcd.c ****   /* DeInit the low level hardware */
 233:Drivers/STM32F3xx_HAL_Driver/Src/stm32f3xx_hal_pcd.c ****   HAL_PCD_MspDeInit(hpcd);
 234:Drivers/STM32F3xx_HAL_Driver/Src/stm32f3xx_hal_pcd.c ****   
 235:Drivers/STM32F3xx_HAL_Driver/Src/stm32f3xx_hal_pcd.c ****   hpcd->State = HAL_PCD_STATE_RESET; 
 236:Drivers/STM32F3xx_HAL_Driver/Src/stm32f3xx_hal_pcd.c ****   
 237:Drivers/STM32F3xx_HAL_Driver/Src/stm32f3xx_hal_pcd.c ****   return HAL_OK;
 238:Drivers/STM32F3xx_HAL_Driver/Src/stm32f3xx_hal_pcd.c **** }
 239:Drivers/STM32F3xx_HAL_Driver/Src/stm32f3xx_hal_pcd.c **** 
 240:Drivers/STM32F3xx_HAL_Driver/Src/stm32f3xx_hal_pcd.c **** /**
 241:Drivers/STM32F3xx_HAL_Driver/Src/stm32f3xx_hal_pcd.c ****   * @brief  Initializes the PCD MSP.
 242:Drivers/STM32F3xx_HAL_Driver/Src/stm32f3xx_hal_pcd.c ****   * @param  hpcd PCD handle
 243:Drivers/STM32F3xx_HAL_Driver/Src/stm32f3xx_hal_pcd.c ****   * @retval None
 244:Drivers/STM32F3xx_HAL_Driver/Src/stm32f3xx_hal_pcd.c ****   */
 245:Drivers/STM32F3xx_HAL_Driver/Src/stm32f3xx_hal_pcd.c **** __weak void HAL_PCD_MspInit(PCD_HandleTypeDef *hpcd)
 246:Drivers/STM32F3xx_HAL_Driver/Src/stm32f3xx_hal_pcd.c **** {
  28              		.loc 1 246 0
  29              		.cfi_startproc
  30              		@ args = 0, pretend = 0, frame = 0
  31              		@ frame_needed = 0, uses_anonymous_args = 0
  32              		@ link register save eliminated.
  33              	.LVL0:
 247:Drivers/STM32F3xx_HAL_Driver/Src/stm32f3xx_hal_pcd.c ****   /* Prevent unused argument(s) compilation warning */
 248:Drivers/STM32F3xx_HAL_Driver/Src/stm32f3xx_hal_pcd.c ****   UNUSED(hpcd);
 249:Drivers/STM32F3xx_HAL_Driver/Src/stm32f3xx_hal_pcd.c **** 
 250:Drivers/STM32F3xx_HAL_Driver/Src/stm32f3xx_hal_pcd.c ****   /* NOTE : This function should not be modified, when the callback is needed,
 251:Drivers/STM32F3xx_HAL_Driver/Src/stm32f3xx_hal_pcd.c ****             the HAL_PCD_MspInit could be implemented in the user file
 252:Drivers/STM32F3xx_HAL_Driver/Src/stm32f3xx_hal_pcd.c ****    */
 253:Drivers/STM32F3xx_HAL_Driver/Src/stm32f3xx_hal_pcd.c **** }
ARM GAS  C:\Users\acw\AppData\Local\Temp\ccoXZyGi.s 			page 6


  34              		.loc 1 253 0
  35 0000 7047     		bx	lr
  36              		.cfi_endproc
  37              	.LFE128:
  39              		.section	.text.HAL_PCD_Init,"ax",%progbits
  40              		.align	1
  41              		.global	HAL_PCD_Init
  42              		.syntax unified
  43              		.thumb
  44              		.thumb_func
  45              		.fpu fpv4-sp-d16
  47              	HAL_PCD_Init:
  48              	.LFB126:
 139:Drivers/STM32F3xx_HAL_Driver/Src/stm32f3xx_hal_pcd.c ****   uint32_t i = 0U;
  49              		.loc 1 139 0
  50              		.cfi_startproc
  51              		@ args = 0, pretend = 0, frame = 0
  52              		@ frame_needed = 0, uses_anonymous_args = 0
  53              	.LVL1:
 145:Drivers/STM32F3xx_HAL_Driver/Src/stm32f3xx_hal_pcd.c ****   {
  54              		.loc 1 145 0
  55 0000 0028     		cmp	r0, #0
  56 0002 4FD0     		beq	.L9
 139:Drivers/STM32F3xx_HAL_Driver/Src/stm32f3xx_hal_pcd.c ****   uint32_t i = 0U;
  57              		.loc 1 139 0
  58 0004 10B5     		push	{r4, lr}
  59              	.LCFI0:
  60              		.cfi_def_cfa_offset 8
  61              		.cfi_offset 4, -8
  62              		.cfi_offset 14, -4
  63 0006 0446     		mov	r4, r0
 153:Drivers/STM32F3xx_HAL_Driver/Src/stm32f3xx_hal_pcd.c ****   {  
  64              		.loc 1 153 0
  65 0008 90F87133 		ldrb	r3, [r0, #881]	@ zero_extendqisi2
  66 000c 23B1     		cbz	r3, .L14
  67              	.LVL2:
  68              	.L4:
 162:Drivers/STM32F3xx_HAL_Driver/Src/stm32f3xx_hal_pcd.c ****  
  69              		.loc 1 162 0
  70 000e 0323     		movs	r3, #3
  71 0010 84F87133 		strb	r3, [r4, #881]
 165:Drivers/STM32F3xx_HAL_Driver/Src/stm32f3xx_hal_pcd.c ****  {
  72              		.loc 1 165 0
  73 0014 0022     		movs	r2, #0
  74 0016 14E0     		b	.L5
  75              	.LVL3:
  76              	.L14:
 156:Drivers/STM32F3xx_HAL_Driver/Src/stm32f3xx_hal_pcd.c ****   
  77              		.loc 1 156 0
  78 0018 80F87033 		strb	r3, [r0, #880]
 159:Drivers/STM32F3xx_HAL_Driver/Src/stm32f3xx_hal_pcd.c ****   }
  79              		.loc 1 159 0
  80 001c FFF7FEFF 		bl	HAL_PCD_MspInit
  81              	.LVL4:
  82 0020 F5E7     		b	.L4
  83              	.LVL5:
  84              	.L6:
ARM GAS  C:\Users\acw\AppData\Local\Temp\ccoXZyGi.s 			page 7


 168:Drivers/STM32F3xx_HAL_Driver/Src/stm32f3xx_hal_pcd.c ****    hpcd->IN_ep[i].num = i;
  85              		.loc 1 168 0 discriminator 3
  86 0022 D100     		lsls	r1, r2, #3
  87 0024 891A     		subs	r1, r1, r2
  88 0026 8B00     		lsls	r3, r1, #2
  89 0028 2344     		add	r3, r3, r4
  90 002a 0121     		movs	r1, #1
  91 002c 83F82910 		strb	r1, [r3, #41]
 169:Drivers/STM32F3xx_HAL_Driver/Src/stm32f3xx_hal_pcd.c ****    /* Control until ep is actvated */
  92              		.loc 1 169 0 discriminator 3
  93 0030 83F82820 		strb	r2, [r3, #40]
 171:Drivers/STM32F3xx_HAL_Driver/Src/stm32f3xx_hal_pcd.c ****    hpcd->IN_ep[i].maxpacket =  0U;
  94              		.loc 1 171 0 discriminator 3
  95 0034 0021     		movs	r1, #0
  96 0036 83F82B10 		strb	r1, [r3, #43]
 172:Drivers/STM32F3xx_HAL_Driver/Src/stm32f3xx_hal_pcd.c ****    hpcd->IN_ep[i].xfer_buff = 0U;
  97              		.loc 1 172 0 discriminator 3
  98 003a 5963     		str	r1, [r3, #52]
 173:Drivers/STM32F3xx_HAL_Driver/Src/stm32f3xx_hal_pcd.c ****    hpcd->IN_ep[i].xfer_len = 0U;
  99              		.loc 1 173 0 discriminator 3
 100 003c 9963     		str	r1, [r3, #56]
 174:Drivers/STM32F3xx_HAL_Driver/Src/stm32f3xx_hal_pcd.c ****  }
 101              		.loc 1 174 0 discriminator 3
 102 003e D963     		str	r1, [r3, #60]
 165:Drivers/STM32F3xx_HAL_Driver/Src/stm32f3xx_hal_pcd.c ****  {
 103              		.loc 1 165 0 discriminator 3
 104 0040 0132     		adds	r2, r2, #1
 105              	.LVL6:
 106              	.L5:
 165:Drivers/STM32F3xx_HAL_Driver/Src/stm32f3xx_hal_pcd.c ****  {
 107              		.loc 1 165 0 is_stmt 0 discriminator 1
 108 0042 6068     		ldr	r0, [r4, #4]
 109 0044 9042     		cmp	r0, r2
 110 0046 ECD8     		bhi	.L6
 177:Drivers/STM32F3xx_HAL_Driver/Src/stm32f3xx_hal_pcd.c ****  {
 111              		.loc 1 177 0 is_stmt 1
 112 0048 0022     		movs	r2, #0
 113              	.LVL7:
 114 004a 11E0     		b	.L7
 115              	.LVL8:
 116              	.L8:
 179:Drivers/STM32F3xx_HAL_Driver/Src/stm32f3xx_hal_pcd.c ****    hpcd->OUT_ep[i].num = i;
 117              		.loc 1 179 0 discriminator 3
 118 004c D100     		lsls	r1, r2, #3
 119 004e 891A     		subs	r1, r1, r2
 120 0050 8B00     		lsls	r3, r1, #2
 121 0052 2344     		add	r3, r3, r4
 122 0054 0021     		movs	r1, #0
 123 0056 83F8CD11 		strb	r1, [r3, #461]
 180:Drivers/STM32F3xx_HAL_Driver/Src/stm32f3xx_hal_pcd.c ****    /* Control until ep is activated */
 124              		.loc 1 180 0 discriminator 3
 125 005a 83F8CC21 		strb	r2, [r3, #460]
 182:Drivers/STM32F3xx_HAL_Driver/Src/stm32f3xx_hal_pcd.c ****    hpcd->OUT_ep[i].maxpacket = 0U;
 126              		.loc 1 182 0 discriminator 3
 127 005e 83F8CF11 		strb	r1, [r3, #463]
 183:Drivers/STM32F3xx_HAL_Driver/Src/stm32f3xx_hal_pcd.c ****    hpcd->OUT_ep[i].xfer_buff = 0U;
 128              		.loc 1 183 0 discriminator 3
ARM GAS  C:\Users\acw\AppData\Local\Temp\ccoXZyGi.s 			page 8


 129 0062 C3F8D811 		str	r1, [r3, #472]
 184:Drivers/STM32F3xx_HAL_Driver/Src/stm32f3xx_hal_pcd.c ****    hpcd->OUT_ep[i].xfer_len = 0U;
 130              		.loc 1 184 0 discriminator 3
 131 0066 C3F8DC11 		str	r1, [r3, #476]
 185:Drivers/STM32F3xx_HAL_Driver/Src/stm32f3xx_hal_pcd.c ****  }
 132              		.loc 1 185 0 discriminator 3
 133 006a C3F8E011 		str	r1, [r3, #480]
 177:Drivers/STM32F3xx_HAL_Driver/Src/stm32f3xx_hal_pcd.c ****  {
 134              		.loc 1 177 0 discriminator 3
 135 006e 0132     		adds	r2, r2, #1
 136              	.LVL9:
 137              	.L7:
 177:Drivers/STM32F3xx_HAL_Driver/Src/stm32f3xx_hal_pcd.c ****  {
 138              		.loc 1 177 0 is_stmt 0 discriminator 1
 139 0070 9042     		cmp	r0, r2
 140 0072 EBD8     		bhi	.L8
 190:Drivers/STM32F3xx_HAL_Driver/Src/stm32f3xx_hal_pcd.c ****  
 141              		.loc 1 190 0 is_stmt 1
 142 0074 2268     		ldr	r2, [r4]
 143              	.LVL10:
 144 0076 0123     		movs	r3, #1
 145 0078 A2F84030 		strh	r3, [r2, #64]	@ movhi
 193:Drivers/STM32F3xx_HAL_Driver/Src/stm32f3xx_hal_pcd.c ****  
 146              		.loc 1 193 0
 147 007c 2268     		ldr	r2, [r4]
 148 007e 0020     		movs	r0, #0
 149 0080 A2F84000 		strh	r0, [r2, #64]	@ movhi
 196:Drivers/STM32F3xx_HAL_Driver/Src/stm32f3xx_hal_pcd.c ****  
 150              		.loc 1 196 0
 151 0084 2268     		ldr	r2, [r4]
 152 0086 A2F84400 		strh	r0, [r2, #68]	@ movhi
 199:Drivers/STM32F3xx_HAL_Driver/Src/stm32f3xx_hal_pcd.c ****   
 153              		.loc 1 199 0
 154 008a 2268     		ldr	r2, [r4]
 155 008c A2F85000 		strh	r0, [r2, #80]	@ movhi
 156              	.LVL11:
 206:Drivers/STM32F3xx_HAL_Driver/Src/stm32f3xx_hal_pcd.c ****   
 157              		.loc 1 206 0
 158 0090 2268     		ldr	r2, [r4]
 159 0092 4FF43F41 		mov	r1, #48896
 160 0096 A2F84010 		strh	r1, [r2, #64]	@ movhi
 208:Drivers/STM32F3xx_HAL_Driver/Src/stm32f3xx_hal_pcd.c ****   hpcd->State= HAL_PCD_STATE_READY;
 161              		.loc 1 208 0
 162 009a 84F82400 		strb	r0, [r4, #36]
 209:Drivers/STM32F3xx_HAL_Driver/Src/stm32f3xx_hal_pcd.c **** 
 163              		.loc 1 209 0
 164 009e 84F87133 		strb	r3, [r4, #881]
 212:Drivers/STM32F3xx_HAL_Driver/Src/stm32f3xx_hal_pcd.c **** 
 165              		.loc 1 212 0
 166 00a2 10BD     		pop	{r4, pc}
 167              	.LVL12:
 168              	.L9:
 169              	.LCFI1:
 170              		.cfi_def_cfa_offset 0
 171              		.cfi_restore 4
 172              		.cfi_restore 14
 147:Drivers/STM32F3xx_HAL_Driver/Src/stm32f3xx_hal_pcd.c ****   }
ARM GAS  C:\Users\acw\AppData\Local\Temp\ccoXZyGi.s 			page 9


 173              		.loc 1 147 0
 174 00a4 0120     		movs	r0, #1
 175              	.LVL13:
 212:Drivers/STM32F3xx_HAL_Driver/Src/stm32f3xx_hal_pcd.c **** 
 176              		.loc 1 212 0
 177 00a6 7047     		bx	lr
 178              		.cfi_endproc
 179              	.LFE126:
 181              		.section	.text.HAL_PCD_MspDeInit,"ax",%progbits
 182              		.align	1
 183              		.weak	HAL_PCD_MspDeInit
 184              		.syntax unified
 185              		.thumb
 186              		.thumb_func
 187              		.fpu fpv4-sp-d16
 189              	HAL_PCD_MspDeInit:
 190              	.LFB129:
 254:Drivers/STM32F3xx_HAL_Driver/Src/stm32f3xx_hal_pcd.c **** 
 255:Drivers/STM32F3xx_HAL_Driver/Src/stm32f3xx_hal_pcd.c **** /**
 256:Drivers/STM32F3xx_HAL_Driver/Src/stm32f3xx_hal_pcd.c ****   * @brief  DeInitializes PCD MSP.
 257:Drivers/STM32F3xx_HAL_Driver/Src/stm32f3xx_hal_pcd.c ****   * @param  hpcd PCD handle
 258:Drivers/STM32F3xx_HAL_Driver/Src/stm32f3xx_hal_pcd.c ****   * @retval None
 259:Drivers/STM32F3xx_HAL_Driver/Src/stm32f3xx_hal_pcd.c ****   */
 260:Drivers/STM32F3xx_HAL_Driver/Src/stm32f3xx_hal_pcd.c **** __weak void HAL_PCD_MspDeInit(PCD_HandleTypeDef *hpcd)
 261:Drivers/STM32F3xx_HAL_Driver/Src/stm32f3xx_hal_pcd.c **** {
 191              		.loc 1 261 0
 192              		.cfi_startproc
 193              		@ args = 0, pretend = 0, frame = 0
 194              		@ frame_needed = 0, uses_anonymous_args = 0
 195              		@ link register save eliminated.
 196              	.LVL14:
 262:Drivers/STM32F3xx_HAL_Driver/Src/stm32f3xx_hal_pcd.c ****   /* Prevent unused argument(s) compilation warning */
 263:Drivers/STM32F3xx_HAL_Driver/Src/stm32f3xx_hal_pcd.c ****   UNUSED(hpcd);
 264:Drivers/STM32F3xx_HAL_Driver/Src/stm32f3xx_hal_pcd.c **** 
 265:Drivers/STM32F3xx_HAL_Driver/Src/stm32f3xx_hal_pcd.c ****   /* NOTE : This function should not be modified, when the callback is needed,
 266:Drivers/STM32F3xx_HAL_Driver/Src/stm32f3xx_hal_pcd.c ****             the HAL_PCD_MspDeInit could be implemented in the user file
 267:Drivers/STM32F3xx_HAL_Driver/Src/stm32f3xx_hal_pcd.c ****    */
 268:Drivers/STM32F3xx_HAL_Driver/Src/stm32f3xx_hal_pcd.c **** }
 197              		.loc 1 268 0
 198 0000 7047     		bx	lr
 199              		.cfi_endproc
 200              	.LFE129:
 202              		.section	.text.HAL_PCD_Start,"ax",%progbits
 203              		.align	1
 204              		.global	HAL_PCD_Start
 205              		.syntax unified
 206              		.thumb
 207              		.thumb_func
 208              		.fpu fpv4-sp-d16
 210              	HAL_PCD_Start:
 211              	.LFB130:
 269:Drivers/STM32F3xx_HAL_Driver/Src/stm32f3xx_hal_pcd.c **** 
 270:Drivers/STM32F3xx_HAL_Driver/Src/stm32f3xx_hal_pcd.c **** /**
 271:Drivers/STM32F3xx_HAL_Driver/Src/stm32f3xx_hal_pcd.c ****   * @}
 272:Drivers/STM32F3xx_HAL_Driver/Src/stm32f3xx_hal_pcd.c ****   */
 273:Drivers/STM32F3xx_HAL_Driver/Src/stm32f3xx_hal_pcd.c **** 
 274:Drivers/STM32F3xx_HAL_Driver/Src/stm32f3xx_hal_pcd.c **** /** @defgroup PCD_Exported_Functions_Group2 IO operation functions 
ARM GAS  C:\Users\acw\AppData\Local\Temp\ccoXZyGi.s 			page 10


 275:Drivers/STM32F3xx_HAL_Driver/Src/stm32f3xx_hal_pcd.c ****  *  @brief   Data transfers functions 
 276:Drivers/STM32F3xx_HAL_Driver/Src/stm32f3xx_hal_pcd.c ****  *
 277:Drivers/STM32F3xx_HAL_Driver/Src/stm32f3xx_hal_pcd.c **** @verbatim   
 278:Drivers/STM32F3xx_HAL_Driver/Src/stm32f3xx_hal_pcd.c ****  ===============================================================================
 279:Drivers/STM32F3xx_HAL_Driver/Src/stm32f3xx_hal_pcd.c ****                       ##### IO operation functions #####
 280:Drivers/STM32F3xx_HAL_Driver/Src/stm32f3xx_hal_pcd.c ****  ===============================================================================  
 281:Drivers/STM32F3xx_HAL_Driver/Src/stm32f3xx_hal_pcd.c ****     [..]
 282:Drivers/STM32F3xx_HAL_Driver/Src/stm32f3xx_hal_pcd.c ****     This subsection provides a set of functions allowing to manage the PCD data 
 283:Drivers/STM32F3xx_HAL_Driver/Src/stm32f3xx_hal_pcd.c ****     transfers.
 284:Drivers/STM32F3xx_HAL_Driver/Src/stm32f3xx_hal_pcd.c **** 
 285:Drivers/STM32F3xx_HAL_Driver/Src/stm32f3xx_hal_pcd.c **** @endverbatim
 286:Drivers/STM32F3xx_HAL_Driver/Src/stm32f3xx_hal_pcd.c ****   * @{
 287:Drivers/STM32F3xx_HAL_Driver/Src/stm32f3xx_hal_pcd.c ****   */
 288:Drivers/STM32F3xx_HAL_Driver/Src/stm32f3xx_hal_pcd.c ****   
 289:Drivers/STM32F3xx_HAL_Driver/Src/stm32f3xx_hal_pcd.c **** /**
 290:Drivers/STM32F3xx_HAL_Driver/Src/stm32f3xx_hal_pcd.c ****   * @brief  Start the USB device.
 291:Drivers/STM32F3xx_HAL_Driver/Src/stm32f3xx_hal_pcd.c ****   * @param  hpcd PCD handle
 292:Drivers/STM32F3xx_HAL_Driver/Src/stm32f3xx_hal_pcd.c ****   * @retval HAL status
 293:Drivers/STM32F3xx_HAL_Driver/Src/stm32f3xx_hal_pcd.c ****   */
 294:Drivers/STM32F3xx_HAL_Driver/Src/stm32f3xx_hal_pcd.c **** HAL_StatusTypeDef HAL_PCD_Start(PCD_HandleTypeDef *hpcd)
 295:Drivers/STM32F3xx_HAL_Driver/Src/stm32f3xx_hal_pcd.c **** { 
 212              		.loc 1 295 0
 213              		.cfi_startproc
 214              		@ args = 0, pretend = 0, frame = 0
 215              		@ frame_needed = 0, uses_anonymous_args = 0
 216              	.LVL15:
 217 0000 08B5     		push	{r3, lr}
 218              	.LCFI2:
 219              		.cfi_def_cfa_offset 8
 220              		.cfi_offset 3, -8
 221              		.cfi_offset 14, -4
 296:Drivers/STM32F3xx_HAL_Driver/Src/stm32f3xx_hal_pcd.c ****   /*  DP Pull-Down is external */
 297:Drivers/STM32F3xx_HAL_Driver/Src/stm32f3xx_hal_pcd.c ****   HAL_PCDEx_SetConnectionState (hpcd, 1U);
 222              		.loc 1 297 0
 223 0002 0121     		movs	r1, #1
 224 0004 FFF7FEFF 		bl	HAL_PCDEx_SetConnectionState
 225              	.LVL16:
 298:Drivers/STM32F3xx_HAL_Driver/Src/stm32f3xx_hal_pcd.c ****   
 299:Drivers/STM32F3xx_HAL_Driver/Src/stm32f3xx_hal_pcd.c ****   return HAL_OK;
 300:Drivers/STM32F3xx_HAL_Driver/Src/stm32f3xx_hal_pcd.c **** }
 226              		.loc 1 300 0
 227 0008 0020     		movs	r0, #0
 228 000a 08BD     		pop	{r3, pc}
 229              		.cfi_endproc
 230              	.LFE130:
 232              		.section	.text.HAL_PCD_Stop,"ax",%progbits
 233              		.align	1
 234              		.global	HAL_PCD_Stop
 235              		.syntax unified
 236              		.thumb
 237              		.thumb_func
 238              		.fpu fpv4-sp-d16
 240              	HAL_PCD_Stop:
 241              	.LFB131:
 301:Drivers/STM32F3xx_HAL_Driver/Src/stm32f3xx_hal_pcd.c **** 
 302:Drivers/STM32F3xx_HAL_Driver/Src/stm32f3xx_hal_pcd.c **** /**
 303:Drivers/STM32F3xx_HAL_Driver/Src/stm32f3xx_hal_pcd.c ****   * @brief  Stop the USB device.
ARM GAS  C:\Users\acw\AppData\Local\Temp\ccoXZyGi.s 			page 11


 304:Drivers/STM32F3xx_HAL_Driver/Src/stm32f3xx_hal_pcd.c ****   * @param  hpcd PCD handle
 305:Drivers/STM32F3xx_HAL_Driver/Src/stm32f3xx_hal_pcd.c ****   * @retval HAL status
 306:Drivers/STM32F3xx_HAL_Driver/Src/stm32f3xx_hal_pcd.c ****   */
 307:Drivers/STM32F3xx_HAL_Driver/Src/stm32f3xx_hal_pcd.c **** HAL_StatusTypeDef HAL_PCD_Stop(PCD_HandleTypeDef *hpcd)
 308:Drivers/STM32F3xx_HAL_Driver/Src/stm32f3xx_hal_pcd.c **** { 
 242              		.loc 1 308 0
 243              		.cfi_startproc
 244              		@ args = 0, pretend = 0, frame = 0
 245              		@ frame_needed = 0, uses_anonymous_args = 0
 246              		@ link register save eliminated.
 247              	.LVL17:
 309:Drivers/STM32F3xx_HAL_Driver/Src/stm32f3xx_hal_pcd.c ****   __HAL_LOCK(hpcd); 
 248              		.loc 1 309 0
 249 0000 90F87033 		ldrb	r3, [r0, #880]	@ zero_extendqisi2
 250 0004 012B     		cmp	r3, #1
 251 0006 0FD0     		beq	.L20
 310:Drivers/STM32F3xx_HAL_Driver/Src/stm32f3xx_hal_pcd.c ****   
 311:Drivers/STM32F3xx_HAL_Driver/Src/stm32f3xx_hal_pcd.c ****     /* disable all interrupts and force USB reset */
 312:Drivers/STM32F3xx_HAL_Driver/Src/stm32f3xx_hal_pcd.c ****   hpcd->Instance->CNTR = USB_CNTR_FRES;
 252              		.loc 1 312 0 discriminator 2
 253 0008 0368     		ldr	r3, [r0]
 254 000a 0122     		movs	r2, #1
 255 000c A3F84020 		strh	r2, [r3, #64]	@ movhi
 313:Drivers/STM32F3xx_HAL_Driver/Src/stm32f3xx_hal_pcd.c ****   
 314:Drivers/STM32F3xx_HAL_Driver/Src/stm32f3xx_hal_pcd.c ****   /* clear interrupt status register */
 315:Drivers/STM32F3xx_HAL_Driver/Src/stm32f3xx_hal_pcd.c ****   hpcd->Instance->ISTR = 0U;
 256              		.loc 1 315 0 discriminator 2
 257 0010 0268     		ldr	r2, [r0]
 258 0012 0023     		movs	r3, #0
 259 0014 A2F84430 		strh	r3, [r2, #68]	@ movhi
 316:Drivers/STM32F3xx_HAL_Driver/Src/stm32f3xx_hal_pcd.c ****   
 317:Drivers/STM32F3xx_HAL_Driver/Src/stm32f3xx_hal_pcd.c ****   /* switch-off device */
 318:Drivers/STM32F3xx_HAL_Driver/Src/stm32f3xx_hal_pcd.c ****   hpcd->Instance->CNTR = (USB_CNTR_FRES | USB_CNTR_PDWN);
 260              		.loc 1 318 0 discriminator 2
 261 0018 0268     		ldr	r2, [r0]
 262 001a 0321     		movs	r1, #3
 263 001c A2F84010 		strh	r1, [r2, #64]	@ movhi
 319:Drivers/STM32F3xx_HAL_Driver/Src/stm32f3xx_hal_pcd.c ****   
 320:Drivers/STM32F3xx_HAL_Driver/Src/stm32f3xx_hal_pcd.c ****   __HAL_UNLOCK(hpcd); 
 264              		.loc 1 320 0 discriminator 2
 265 0020 80F87033 		strb	r3, [r0, #880]
 321:Drivers/STM32F3xx_HAL_Driver/Src/stm32f3xx_hal_pcd.c ****   return HAL_OK;
 266              		.loc 1 321 0 discriminator 2
 267 0024 1846     		mov	r0, r3
 268              	.LVL18:
 269 0026 7047     		bx	lr
 270              	.LVL19:
 271              	.L20:
 309:Drivers/STM32F3xx_HAL_Driver/Src/stm32f3xx_hal_pcd.c ****   
 272              		.loc 1 309 0
 273 0028 0220     		movs	r0, #2
 274              	.LVL20:
 322:Drivers/STM32F3xx_HAL_Driver/Src/stm32f3xx_hal_pcd.c **** }
 275              		.loc 1 322 0
 276 002a 7047     		bx	lr
 277              		.cfi_endproc
 278              	.LFE131:
ARM GAS  C:\Users\acw\AppData\Local\Temp\ccoXZyGi.s 			page 12


 280              		.section	.text.HAL_PCD_DeInit,"ax",%progbits
 281              		.align	1
 282              		.global	HAL_PCD_DeInit
 283              		.syntax unified
 284              		.thumb
 285              		.thumb_func
 286              		.fpu fpv4-sp-d16
 288              	HAL_PCD_DeInit:
 289              	.LFB127:
 220:Drivers/STM32F3xx_HAL_Driver/Src/stm32f3xx_hal_pcd.c ****   /* Check the PCD handle allocation */
 290              		.loc 1 220 0
 291              		.cfi_startproc
 292              		@ args = 0, pretend = 0, frame = 0
 293              		@ frame_needed = 0, uses_anonymous_args = 0
 294              	.LVL21:
 222:Drivers/STM32F3xx_HAL_Driver/Src/stm32f3xx_hal_pcd.c ****   {
 295              		.loc 1 222 0
 296 0000 68B1     		cbz	r0, .L23
 220:Drivers/STM32F3xx_HAL_Driver/Src/stm32f3xx_hal_pcd.c ****   /* Check the PCD handle allocation */
 297              		.loc 1 220 0
 298 0002 10B5     		push	{r4, lr}
 299              	.LCFI3:
 300              		.cfi_def_cfa_offset 8
 301              		.cfi_offset 4, -8
 302              		.cfi_offset 14, -4
 303 0004 0446     		mov	r4, r0
 227:Drivers/STM32F3xx_HAL_Driver/Src/stm32f3xx_hal_pcd.c ****   
 304              		.loc 1 227 0
 305 0006 0323     		movs	r3, #3
 306 0008 80F87133 		strb	r3, [r0, #881]
 230:Drivers/STM32F3xx_HAL_Driver/Src/stm32f3xx_hal_pcd.c ****     
 307              		.loc 1 230 0
 308 000c FFF7FEFF 		bl	HAL_PCD_Stop
 309              	.LVL22:
 233:Drivers/STM32F3xx_HAL_Driver/Src/stm32f3xx_hal_pcd.c ****   
 310              		.loc 1 233 0
 311 0010 2046     		mov	r0, r4
 312 0012 FFF7FEFF 		bl	HAL_PCD_MspDeInit
 313              	.LVL23:
 235:Drivers/STM32F3xx_HAL_Driver/Src/stm32f3xx_hal_pcd.c ****   
 314              		.loc 1 235 0
 315 0016 0020     		movs	r0, #0
 316 0018 84F87103 		strb	r0, [r4, #881]
 238:Drivers/STM32F3xx_HAL_Driver/Src/stm32f3xx_hal_pcd.c **** 
 317              		.loc 1 238 0
 318 001c 10BD     		pop	{r4, pc}
 319              	.LVL24:
 320              	.L23:
 321              	.LCFI4:
 322              		.cfi_def_cfa_offset 0
 323              		.cfi_restore 4
 324              		.cfi_restore 14
 224:Drivers/STM32F3xx_HAL_Driver/Src/stm32f3xx_hal_pcd.c ****   }
 325              		.loc 1 224 0
 326 001e 0120     		movs	r0, #1
 327              	.LVL25:
 238:Drivers/STM32F3xx_HAL_Driver/Src/stm32f3xx_hal_pcd.c **** 
ARM GAS  C:\Users\acw\AppData\Local\Temp\ccoXZyGi.s 			page 13


 328              		.loc 1 238 0
 329 0020 7047     		bx	lr
 330              		.cfi_endproc
 331              	.LFE127:
 333              		.section	.text.HAL_PCD_DataOutStageCallback,"ax",%progbits
 334              		.align	1
 335              		.weak	HAL_PCD_DataOutStageCallback
 336              		.syntax unified
 337              		.thumb
 338              		.thumb_func
 339              		.fpu fpv4-sp-d16
 341              	HAL_PCD_DataOutStageCallback:
 342              	.LFB134:
 323:Drivers/STM32F3xx_HAL_Driver/Src/stm32f3xx_hal_pcd.c **** /**
 324:Drivers/STM32F3xx_HAL_Driver/Src/stm32f3xx_hal_pcd.c ****   * @}
 325:Drivers/STM32F3xx_HAL_Driver/Src/stm32f3xx_hal_pcd.c ****   */
 326:Drivers/STM32F3xx_HAL_Driver/Src/stm32f3xx_hal_pcd.c ****   
 327:Drivers/STM32F3xx_HAL_Driver/Src/stm32f3xx_hal_pcd.c **** /**
 328:Drivers/STM32F3xx_HAL_Driver/Src/stm32f3xx_hal_pcd.c ****   * @}
 329:Drivers/STM32F3xx_HAL_Driver/Src/stm32f3xx_hal_pcd.c ****   */  
 330:Drivers/STM32F3xx_HAL_Driver/Src/stm32f3xx_hal_pcd.c **** 
 331:Drivers/STM32F3xx_HAL_Driver/Src/stm32f3xx_hal_pcd.c **** /** @addtogroup PCD_Private_Functions PCD Private Functions
 332:Drivers/STM32F3xx_HAL_Driver/Src/stm32f3xx_hal_pcd.c ****   * @{
 333:Drivers/STM32F3xx_HAL_Driver/Src/stm32f3xx_hal_pcd.c ****   */
 334:Drivers/STM32F3xx_HAL_Driver/Src/stm32f3xx_hal_pcd.c **** /**
 335:Drivers/STM32F3xx_HAL_Driver/Src/stm32f3xx_hal_pcd.c ****   * @brief  This function handles PCD Endpoint interrupt request.
 336:Drivers/STM32F3xx_HAL_Driver/Src/stm32f3xx_hal_pcd.c ****   * @param  hpcd PCD handle
 337:Drivers/STM32F3xx_HAL_Driver/Src/stm32f3xx_hal_pcd.c ****   * @retval HAL status
 338:Drivers/STM32F3xx_HAL_Driver/Src/stm32f3xx_hal_pcd.c ****   */
 339:Drivers/STM32F3xx_HAL_Driver/Src/stm32f3xx_hal_pcd.c **** static HAL_StatusTypeDef PCD_EP_ISR_Handler(PCD_HandleTypeDef *hpcd)
 340:Drivers/STM32F3xx_HAL_Driver/Src/stm32f3xx_hal_pcd.c **** {
 341:Drivers/STM32F3xx_HAL_Driver/Src/stm32f3xx_hal_pcd.c ****   PCD_EPTypeDef *ep;
 342:Drivers/STM32F3xx_HAL_Driver/Src/stm32f3xx_hal_pcd.c ****   uint16_t count=0U;
 343:Drivers/STM32F3xx_HAL_Driver/Src/stm32f3xx_hal_pcd.c ****   uint8_t EPindex;
 344:Drivers/STM32F3xx_HAL_Driver/Src/stm32f3xx_hal_pcd.c ****   __IO uint16_t wIstr;  
 345:Drivers/STM32F3xx_HAL_Driver/Src/stm32f3xx_hal_pcd.c ****   __IO uint16_t wEPVal = 0U;
 346:Drivers/STM32F3xx_HAL_Driver/Src/stm32f3xx_hal_pcd.c ****   
 347:Drivers/STM32F3xx_HAL_Driver/Src/stm32f3xx_hal_pcd.c ****   /* stay in loop while pending interrupts */
 348:Drivers/STM32F3xx_HAL_Driver/Src/stm32f3xx_hal_pcd.c ****   while (((wIstr = hpcd->Instance->ISTR) & USB_ISTR_CTR) != 0U)
 349:Drivers/STM32F3xx_HAL_Driver/Src/stm32f3xx_hal_pcd.c ****   {
 350:Drivers/STM32F3xx_HAL_Driver/Src/stm32f3xx_hal_pcd.c ****     /* extract highest priority endpoint number */
 351:Drivers/STM32F3xx_HAL_Driver/Src/stm32f3xx_hal_pcd.c ****     EPindex = (uint8_t)(wIstr & USB_ISTR_EP_ID);
 352:Drivers/STM32F3xx_HAL_Driver/Src/stm32f3xx_hal_pcd.c ****     
 353:Drivers/STM32F3xx_HAL_Driver/Src/stm32f3xx_hal_pcd.c ****     if (EPindex == 0U)
 354:Drivers/STM32F3xx_HAL_Driver/Src/stm32f3xx_hal_pcd.c ****     {
 355:Drivers/STM32F3xx_HAL_Driver/Src/stm32f3xx_hal_pcd.c ****       /* Decode and service control endpoint interrupt */
 356:Drivers/STM32F3xx_HAL_Driver/Src/stm32f3xx_hal_pcd.c ****       
 357:Drivers/STM32F3xx_HAL_Driver/Src/stm32f3xx_hal_pcd.c ****       /* DIR bit = origin of the interrupt */   
 358:Drivers/STM32F3xx_HAL_Driver/Src/stm32f3xx_hal_pcd.c ****       if ((wIstr & USB_ISTR_DIR) == 0U)
 359:Drivers/STM32F3xx_HAL_Driver/Src/stm32f3xx_hal_pcd.c ****       {
 360:Drivers/STM32F3xx_HAL_Driver/Src/stm32f3xx_hal_pcd.c ****         /* DIR = 0U */
 361:Drivers/STM32F3xx_HAL_Driver/Src/stm32f3xx_hal_pcd.c ****         
 362:Drivers/STM32F3xx_HAL_Driver/Src/stm32f3xx_hal_pcd.c ****         /* DIR = 0      => IN  int */
 363:Drivers/STM32F3xx_HAL_Driver/Src/stm32f3xx_hal_pcd.c ****         /* DIR = 0 implies that (EP_CTR_TX = 1U) always  */
 364:Drivers/STM32F3xx_HAL_Driver/Src/stm32f3xx_hal_pcd.c ****         PCD_CLEAR_TX_EP_CTR(hpcd->Instance, PCD_ENDP0);
 365:Drivers/STM32F3xx_HAL_Driver/Src/stm32f3xx_hal_pcd.c ****         ep = &hpcd->IN_ep[0];
 366:Drivers/STM32F3xx_HAL_Driver/Src/stm32f3xx_hal_pcd.c ****         
ARM GAS  C:\Users\acw\AppData\Local\Temp\ccoXZyGi.s 			page 14


 367:Drivers/STM32F3xx_HAL_Driver/Src/stm32f3xx_hal_pcd.c ****         ep->xfer_count = PCD_GET_EP_TX_CNT(hpcd->Instance, ep->num);
 368:Drivers/STM32F3xx_HAL_Driver/Src/stm32f3xx_hal_pcd.c ****         ep->xfer_buff += ep->xfer_count;
 369:Drivers/STM32F3xx_HAL_Driver/Src/stm32f3xx_hal_pcd.c ****  
 370:Drivers/STM32F3xx_HAL_Driver/Src/stm32f3xx_hal_pcd.c ****         /* TX COMPLETE */
 371:Drivers/STM32F3xx_HAL_Driver/Src/stm32f3xx_hal_pcd.c ****         HAL_PCD_DataInStageCallback(hpcd, 0U);
 372:Drivers/STM32F3xx_HAL_Driver/Src/stm32f3xx_hal_pcd.c ****         
 373:Drivers/STM32F3xx_HAL_Driver/Src/stm32f3xx_hal_pcd.c ****         
 374:Drivers/STM32F3xx_HAL_Driver/Src/stm32f3xx_hal_pcd.c ****         if((hpcd->USB_Address > 0U)&& ( ep->xfer_len == 0U))
 375:Drivers/STM32F3xx_HAL_Driver/Src/stm32f3xx_hal_pcd.c ****         {
 376:Drivers/STM32F3xx_HAL_Driver/Src/stm32f3xx_hal_pcd.c ****           hpcd->Instance->DADDR = (hpcd->USB_Address | USB_DADDR_EF);
 377:Drivers/STM32F3xx_HAL_Driver/Src/stm32f3xx_hal_pcd.c ****           hpcd->USB_Address = 0U;
 378:Drivers/STM32F3xx_HAL_Driver/Src/stm32f3xx_hal_pcd.c ****         }
 379:Drivers/STM32F3xx_HAL_Driver/Src/stm32f3xx_hal_pcd.c ****         
 380:Drivers/STM32F3xx_HAL_Driver/Src/stm32f3xx_hal_pcd.c ****       }
 381:Drivers/STM32F3xx_HAL_Driver/Src/stm32f3xx_hal_pcd.c ****       else
 382:Drivers/STM32F3xx_HAL_Driver/Src/stm32f3xx_hal_pcd.c ****       {
 383:Drivers/STM32F3xx_HAL_Driver/Src/stm32f3xx_hal_pcd.c ****         /* DIR = 1U */
 384:Drivers/STM32F3xx_HAL_Driver/Src/stm32f3xx_hal_pcd.c ****         
 385:Drivers/STM32F3xx_HAL_Driver/Src/stm32f3xx_hal_pcd.c ****         /* DIR = 1U & CTR_RX       => SETUP or OUT int */
 386:Drivers/STM32F3xx_HAL_Driver/Src/stm32f3xx_hal_pcd.c ****         /* DIR = 1U & (CTR_TX | CTR_RX) => 2 int pending */
 387:Drivers/STM32F3xx_HAL_Driver/Src/stm32f3xx_hal_pcd.c ****         ep = &hpcd->OUT_ep[0];
 388:Drivers/STM32F3xx_HAL_Driver/Src/stm32f3xx_hal_pcd.c ****         wEPVal = PCD_GET_ENDPOINT(hpcd->Instance, PCD_ENDP0);
 389:Drivers/STM32F3xx_HAL_Driver/Src/stm32f3xx_hal_pcd.c ****         
 390:Drivers/STM32F3xx_HAL_Driver/Src/stm32f3xx_hal_pcd.c ****         if ((wEPVal & USB_EP_SETUP) != 0U)
 391:Drivers/STM32F3xx_HAL_Driver/Src/stm32f3xx_hal_pcd.c ****         {
 392:Drivers/STM32F3xx_HAL_Driver/Src/stm32f3xx_hal_pcd.c ****           /* Get SETUP Packet*/
 393:Drivers/STM32F3xx_HAL_Driver/Src/stm32f3xx_hal_pcd.c ****           ep->xfer_count = PCD_GET_EP_RX_CNT(hpcd->Instance, ep->num);
 394:Drivers/STM32F3xx_HAL_Driver/Src/stm32f3xx_hal_pcd.c ****           PCD_ReadPMA(hpcd->Instance, (uint8_t*)(void*)hpcd->Setup ,ep->pmaadress , ep->xfer_count)
 395:Drivers/STM32F3xx_HAL_Driver/Src/stm32f3xx_hal_pcd.c ****           /* SETUP bit kept frozen while CTR_RX = 1U*/ 
 396:Drivers/STM32F3xx_HAL_Driver/Src/stm32f3xx_hal_pcd.c ****           PCD_CLEAR_RX_EP_CTR(hpcd->Instance, PCD_ENDP0); 
 397:Drivers/STM32F3xx_HAL_Driver/Src/stm32f3xx_hal_pcd.c ****           
 398:Drivers/STM32F3xx_HAL_Driver/Src/stm32f3xx_hal_pcd.c ****           /* Process SETUP Packet*/
 399:Drivers/STM32F3xx_HAL_Driver/Src/stm32f3xx_hal_pcd.c ****           HAL_PCD_SetupStageCallback(hpcd);
 400:Drivers/STM32F3xx_HAL_Driver/Src/stm32f3xx_hal_pcd.c ****         }
 401:Drivers/STM32F3xx_HAL_Driver/Src/stm32f3xx_hal_pcd.c ****         
 402:Drivers/STM32F3xx_HAL_Driver/Src/stm32f3xx_hal_pcd.c ****         else if ((wEPVal & USB_EP_CTR_RX) != 0U)
 403:Drivers/STM32F3xx_HAL_Driver/Src/stm32f3xx_hal_pcd.c ****         {
 404:Drivers/STM32F3xx_HAL_Driver/Src/stm32f3xx_hal_pcd.c ****           PCD_CLEAR_RX_EP_CTR(hpcd->Instance, PCD_ENDP0);
 405:Drivers/STM32F3xx_HAL_Driver/Src/stm32f3xx_hal_pcd.c ****           /* Get Control Data OUT Packet*/
 406:Drivers/STM32F3xx_HAL_Driver/Src/stm32f3xx_hal_pcd.c ****           ep->xfer_count = PCD_GET_EP_RX_CNT(hpcd->Instance, ep->num);
 407:Drivers/STM32F3xx_HAL_Driver/Src/stm32f3xx_hal_pcd.c ****           
 408:Drivers/STM32F3xx_HAL_Driver/Src/stm32f3xx_hal_pcd.c ****           if (ep->xfer_count != 0U)
 409:Drivers/STM32F3xx_HAL_Driver/Src/stm32f3xx_hal_pcd.c ****           {
 410:Drivers/STM32F3xx_HAL_Driver/Src/stm32f3xx_hal_pcd.c ****             PCD_ReadPMA(hpcd->Instance, ep->xfer_buff, ep->pmaadress, ep->xfer_count);
 411:Drivers/STM32F3xx_HAL_Driver/Src/stm32f3xx_hal_pcd.c ****             ep->xfer_buff+=ep->xfer_count;
 412:Drivers/STM32F3xx_HAL_Driver/Src/stm32f3xx_hal_pcd.c ****           }
 413:Drivers/STM32F3xx_HAL_Driver/Src/stm32f3xx_hal_pcd.c ****           
 414:Drivers/STM32F3xx_HAL_Driver/Src/stm32f3xx_hal_pcd.c ****           /* Process Control Data OUT Packet*/
 415:Drivers/STM32F3xx_HAL_Driver/Src/stm32f3xx_hal_pcd.c ****            HAL_PCD_DataOutStageCallback(hpcd, 0U);
 416:Drivers/STM32F3xx_HAL_Driver/Src/stm32f3xx_hal_pcd.c ****           
 417:Drivers/STM32F3xx_HAL_Driver/Src/stm32f3xx_hal_pcd.c ****           PCD_SET_EP_RX_CNT(hpcd->Instance, PCD_ENDP0, ep->maxpacket)
 418:Drivers/STM32F3xx_HAL_Driver/Src/stm32f3xx_hal_pcd.c ****           PCD_SET_EP_RX_STATUS(hpcd->Instance, PCD_ENDP0, USB_EP_RX_VALID)
 419:Drivers/STM32F3xx_HAL_Driver/Src/stm32f3xx_hal_pcd.c ****         }
 420:Drivers/STM32F3xx_HAL_Driver/Src/stm32f3xx_hal_pcd.c ****       }
 421:Drivers/STM32F3xx_HAL_Driver/Src/stm32f3xx_hal_pcd.c ****     }
 422:Drivers/STM32F3xx_HAL_Driver/Src/stm32f3xx_hal_pcd.c ****     else
 423:Drivers/STM32F3xx_HAL_Driver/Src/stm32f3xx_hal_pcd.c ****     {
ARM GAS  C:\Users\acw\AppData\Local\Temp\ccoXZyGi.s 			page 15


 424:Drivers/STM32F3xx_HAL_Driver/Src/stm32f3xx_hal_pcd.c ****       
 425:Drivers/STM32F3xx_HAL_Driver/Src/stm32f3xx_hal_pcd.c ****       /* Decode and service non control endpoints interrupt  */
 426:Drivers/STM32F3xx_HAL_Driver/Src/stm32f3xx_hal_pcd.c ****       
 427:Drivers/STM32F3xx_HAL_Driver/Src/stm32f3xx_hal_pcd.c ****       /* process related endpoint register */
 428:Drivers/STM32F3xx_HAL_Driver/Src/stm32f3xx_hal_pcd.c ****       wEPVal = PCD_GET_ENDPOINT(hpcd->Instance, EPindex);
 429:Drivers/STM32F3xx_HAL_Driver/Src/stm32f3xx_hal_pcd.c ****       if ((wEPVal & USB_EP_CTR_RX) != 0U)
 430:Drivers/STM32F3xx_HAL_Driver/Src/stm32f3xx_hal_pcd.c ****       {  
 431:Drivers/STM32F3xx_HAL_Driver/Src/stm32f3xx_hal_pcd.c ****         /* clear int flag */
 432:Drivers/STM32F3xx_HAL_Driver/Src/stm32f3xx_hal_pcd.c ****         PCD_CLEAR_RX_EP_CTR(hpcd->Instance, EPindex);
 433:Drivers/STM32F3xx_HAL_Driver/Src/stm32f3xx_hal_pcd.c ****         ep = &hpcd->OUT_ep[EPindex];
 434:Drivers/STM32F3xx_HAL_Driver/Src/stm32f3xx_hal_pcd.c ****         
 435:Drivers/STM32F3xx_HAL_Driver/Src/stm32f3xx_hal_pcd.c ****         /* OUT double Buffering*/
 436:Drivers/STM32F3xx_HAL_Driver/Src/stm32f3xx_hal_pcd.c ****         if (ep->doublebuffer == 0U)
 437:Drivers/STM32F3xx_HAL_Driver/Src/stm32f3xx_hal_pcd.c ****         {
 438:Drivers/STM32F3xx_HAL_Driver/Src/stm32f3xx_hal_pcd.c ****           count = PCD_GET_EP_RX_CNT(hpcd->Instance, ep->num);
 439:Drivers/STM32F3xx_HAL_Driver/Src/stm32f3xx_hal_pcd.c ****           if (count != 0U)
 440:Drivers/STM32F3xx_HAL_Driver/Src/stm32f3xx_hal_pcd.c ****           {
 441:Drivers/STM32F3xx_HAL_Driver/Src/stm32f3xx_hal_pcd.c ****             PCD_ReadPMA(hpcd->Instance, ep->xfer_buff, ep->pmaadress, count);
 442:Drivers/STM32F3xx_HAL_Driver/Src/stm32f3xx_hal_pcd.c ****           }
 443:Drivers/STM32F3xx_HAL_Driver/Src/stm32f3xx_hal_pcd.c ****         }
 444:Drivers/STM32F3xx_HAL_Driver/Src/stm32f3xx_hal_pcd.c ****         else
 445:Drivers/STM32F3xx_HAL_Driver/Src/stm32f3xx_hal_pcd.c ****         {
 446:Drivers/STM32F3xx_HAL_Driver/Src/stm32f3xx_hal_pcd.c ****           if ((PCD_GET_ENDPOINT(hpcd->Instance, ep->num)& USB_EP_DTOG_RX) == USB_EP_DTOG_RX)
 447:Drivers/STM32F3xx_HAL_Driver/Src/stm32f3xx_hal_pcd.c ****           {
 448:Drivers/STM32F3xx_HAL_Driver/Src/stm32f3xx_hal_pcd.c ****             /*read from endpoint BUF0Addr buffer*/
 449:Drivers/STM32F3xx_HAL_Driver/Src/stm32f3xx_hal_pcd.c ****             count = PCD_GET_EP_DBUF0_CNT(hpcd->Instance, ep->num);
 450:Drivers/STM32F3xx_HAL_Driver/Src/stm32f3xx_hal_pcd.c ****             if (count != 0U)
 451:Drivers/STM32F3xx_HAL_Driver/Src/stm32f3xx_hal_pcd.c ****             {
 452:Drivers/STM32F3xx_HAL_Driver/Src/stm32f3xx_hal_pcd.c ****               PCD_ReadPMA(hpcd->Instance, ep->xfer_buff, ep->pmaaddr0, count);
 453:Drivers/STM32F3xx_HAL_Driver/Src/stm32f3xx_hal_pcd.c ****             }
 454:Drivers/STM32F3xx_HAL_Driver/Src/stm32f3xx_hal_pcd.c ****           }
 455:Drivers/STM32F3xx_HAL_Driver/Src/stm32f3xx_hal_pcd.c ****           else
 456:Drivers/STM32F3xx_HAL_Driver/Src/stm32f3xx_hal_pcd.c ****           {
 457:Drivers/STM32F3xx_HAL_Driver/Src/stm32f3xx_hal_pcd.c ****             /*read from endpoint BUF1Addr buffer*/
 458:Drivers/STM32F3xx_HAL_Driver/Src/stm32f3xx_hal_pcd.c ****             count = PCD_GET_EP_DBUF1_CNT(hpcd->Instance, ep->num);
 459:Drivers/STM32F3xx_HAL_Driver/Src/stm32f3xx_hal_pcd.c ****             if (count != 0U)
 460:Drivers/STM32F3xx_HAL_Driver/Src/stm32f3xx_hal_pcd.c ****             {
 461:Drivers/STM32F3xx_HAL_Driver/Src/stm32f3xx_hal_pcd.c ****               PCD_ReadPMA(hpcd->Instance, ep->xfer_buff, ep->pmaaddr1, count);
 462:Drivers/STM32F3xx_HAL_Driver/Src/stm32f3xx_hal_pcd.c ****             }
 463:Drivers/STM32F3xx_HAL_Driver/Src/stm32f3xx_hal_pcd.c ****           }
 464:Drivers/STM32F3xx_HAL_Driver/Src/stm32f3xx_hal_pcd.c ****           PCD_FreeUserBuffer(hpcd->Instance, ep->num, PCD_EP_DBUF_OUT)  
 465:Drivers/STM32F3xx_HAL_Driver/Src/stm32f3xx_hal_pcd.c ****         }
 466:Drivers/STM32F3xx_HAL_Driver/Src/stm32f3xx_hal_pcd.c ****         /*multi-packet on the NON control OUT endpoint*/
 467:Drivers/STM32F3xx_HAL_Driver/Src/stm32f3xx_hal_pcd.c ****         ep->xfer_count+=count;
 468:Drivers/STM32F3xx_HAL_Driver/Src/stm32f3xx_hal_pcd.c ****         ep->xfer_buff+=count;
 469:Drivers/STM32F3xx_HAL_Driver/Src/stm32f3xx_hal_pcd.c ****        
 470:Drivers/STM32F3xx_HAL_Driver/Src/stm32f3xx_hal_pcd.c ****         if ((ep->xfer_len == 0U) || (count < ep->maxpacket))
 471:Drivers/STM32F3xx_HAL_Driver/Src/stm32f3xx_hal_pcd.c ****         {
 472:Drivers/STM32F3xx_HAL_Driver/Src/stm32f3xx_hal_pcd.c ****           /* RX COMPLETE */
 473:Drivers/STM32F3xx_HAL_Driver/Src/stm32f3xx_hal_pcd.c ****           HAL_PCD_DataOutStageCallback(hpcd, ep->num);
 474:Drivers/STM32F3xx_HAL_Driver/Src/stm32f3xx_hal_pcd.c ****         }
 475:Drivers/STM32F3xx_HAL_Driver/Src/stm32f3xx_hal_pcd.c ****         else
 476:Drivers/STM32F3xx_HAL_Driver/Src/stm32f3xx_hal_pcd.c ****         {
 477:Drivers/STM32F3xx_HAL_Driver/Src/stm32f3xx_hal_pcd.c ****           HAL_PCD_EP_Receive(hpcd, ep->num, ep->xfer_buff, ep->xfer_len);
 478:Drivers/STM32F3xx_HAL_Driver/Src/stm32f3xx_hal_pcd.c ****         }
 479:Drivers/STM32F3xx_HAL_Driver/Src/stm32f3xx_hal_pcd.c ****         
 480:Drivers/STM32F3xx_HAL_Driver/Src/stm32f3xx_hal_pcd.c ****       } /* if((wEPVal & EP_CTR_RX) */
ARM GAS  C:\Users\acw\AppData\Local\Temp\ccoXZyGi.s 			page 16


 481:Drivers/STM32F3xx_HAL_Driver/Src/stm32f3xx_hal_pcd.c ****       
 482:Drivers/STM32F3xx_HAL_Driver/Src/stm32f3xx_hal_pcd.c ****       if ((wEPVal & USB_EP_CTR_TX) != 0U)
 483:Drivers/STM32F3xx_HAL_Driver/Src/stm32f3xx_hal_pcd.c ****       {
 484:Drivers/STM32F3xx_HAL_Driver/Src/stm32f3xx_hal_pcd.c ****         ep = &hpcd->IN_ep[EPindex];
 485:Drivers/STM32F3xx_HAL_Driver/Src/stm32f3xx_hal_pcd.c ****         
 486:Drivers/STM32F3xx_HAL_Driver/Src/stm32f3xx_hal_pcd.c ****         /* clear int flag */
 487:Drivers/STM32F3xx_HAL_Driver/Src/stm32f3xx_hal_pcd.c ****         PCD_CLEAR_TX_EP_CTR(hpcd->Instance, EPindex);
 488:Drivers/STM32F3xx_HAL_Driver/Src/stm32f3xx_hal_pcd.c ****         
 489:Drivers/STM32F3xx_HAL_Driver/Src/stm32f3xx_hal_pcd.c ****         /* IN double Buffering*/
 490:Drivers/STM32F3xx_HAL_Driver/Src/stm32f3xx_hal_pcd.c ****         if (ep->doublebuffer == 0U)
 491:Drivers/STM32F3xx_HAL_Driver/Src/stm32f3xx_hal_pcd.c ****         {
 492:Drivers/STM32F3xx_HAL_Driver/Src/stm32f3xx_hal_pcd.c ****           ep->xfer_count = PCD_GET_EP_TX_CNT(hpcd->Instance, ep->num);
 493:Drivers/STM32F3xx_HAL_Driver/Src/stm32f3xx_hal_pcd.c ****           if (ep->xfer_count != 0U)
 494:Drivers/STM32F3xx_HAL_Driver/Src/stm32f3xx_hal_pcd.c ****           {
 495:Drivers/STM32F3xx_HAL_Driver/Src/stm32f3xx_hal_pcd.c ****             PCD_WritePMA(hpcd->Instance, ep->xfer_buff, ep->pmaadress, ep->xfer_count);
 496:Drivers/STM32F3xx_HAL_Driver/Src/stm32f3xx_hal_pcd.c ****           }
 497:Drivers/STM32F3xx_HAL_Driver/Src/stm32f3xx_hal_pcd.c ****         }
 498:Drivers/STM32F3xx_HAL_Driver/Src/stm32f3xx_hal_pcd.c ****         else
 499:Drivers/STM32F3xx_HAL_Driver/Src/stm32f3xx_hal_pcd.c ****         {
 500:Drivers/STM32F3xx_HAL_Driver/Src/stm32f3xx_hal_pcd.c ****           if ((PCD_GET_ENDPOINT(hpcd->Instance, ep->num)& USB_EP_DTOG_TX) == USB_EP_DTOG_TX)
 501:Drivers/STM32F3xx_HAL_Driver/Src/stm32f3xx_hal_pcd.c ****           {
 502:Drivers/STM32F3xx_HAL_Driver/Src/stm32f3xx_hal_pcd.c ****             /*read from endpoint BUF0Addr buffer*/
 503:Drivers/STM32F3xx_HAL_Driver/Src/stm32f3xx_hal_pcd.c ****             ep->xfer_count = PCD_GET_EP_DBUF0_CNT(hpcd->Instance, ep->num);
 504:Drivers/STM32F3xx_HAL_Driver/Src/stm32f3xx_hal_pcd.c ****             if (ep->xfer_count != 0U)
 505:Drivers/STM32F3xx_HAL_Driver/Src/stm32f3xx_hal_pcd.c ****             {
 506:Drivers/STM32F3xx_HAL_Driver/Src/stm32f3xx_hal_pcd.c ****               PCD_WritePMA(hpcd->Instance, ep->xfer_buff, ep->pmaaddr0, ep->xfer_count);
 507:Drivers/STM32F3xx_HAL_Driver/Src/stm32f3xx_hal_pcd.c ****             }
 508:Drivers/STM32F3xx_HAL_Driver/Src/stm32f3xx_hal_pcd.c ****           }
 509:Drivers/STM32F3xx_HAL_Driver/Src/stm32f3xx_hal_pcd.c ****           else
 510:Drivers/STM32F3xx_HAL_Driver/Src/stm32f3xx_hal_pcd.c ****           {
 511:Drivers/STM32F3xx_HAL_Driver/Src/stm32f3xx_hal_pcd.c ****             /*read from endpoint BUF1Addr buffer*/
 512:Drivers/STM32F3xx_HAL_Driver/Src/stm32f3xx_hal_pcd.c ****             ep->xfer_count = PCD_GET_EP_DBUF1_CNT(hpcd->Instance, ep->num);
 513:Drivers/STM32F3xx_HAL_Driver/Src/stm32f3xx_hal_pcd.c ****             if (ep->xfer_count != 0U)
 514:Drivers/STM32F3xx_HAL_Driver/Src/stm32f3xx_hal_pcd.c ****             {
 515:Drivers/STM32F3xx_HAL_Driver/Src/stm32f3xx_hal_pcd.c ****               PCD_WritePMA(hpcd->Instance, ep->xfer_buff, ep->pmaaddr1, ep->xfer_count);
 516:Drivers/STM32F3xx_HAL_Driver/Src/stm32f3xx_hal_pcd.c ****             }
 517:Drivers/STM32F3xx_HAL_Driver/Src/stm32f3xx_hal_pcd.c ****           }
 518:Drivers/STM32F3xx_HAL_Driver/Src/stm32f3xx_hal_pcd.c ****           PCD_FreeUserBuffer(hpcd->Instance, ep->num, PCD_EP_DBUF_IN)  
 519:Drivers/STM32F3xx_HAL_Driver/Src/stm32f3xx_hal_pcd.c ****         }
 520:Drivers/STM32F3xx_HAL_Driver/Src/stm32f3xx_hal_pcd.c ****         /*multi-packet on the NON control IN endpoint*/
 521:Drivers/STM32F3xx_HAL_Driver/Src/stm32f3xx_hal_pcd.c ****         ep->xfer_count = PCD_GET_EP_TX_CNT(hpcd->Instance, ep->num);
 522:Drivers/STM32F3xx_HAL_Driver/Src/stm32f3xx_hal_pcd.c ****         ep->xfer_buff+=ep->xfer_count;
 523:Drivers/STM32F3xx_HAL_Driver/Src/stm32f3xx_hal_pcd.c ****        
 524:Drivers/STM32F3xx_HAL_Driver/Src/stm32f3xx_hal_pcd.c ****         /* Zero Length Packet? */
 525:Drivers/STM32F3xx_HAL_Driver/Src/stm32f3xx_hal_pcd.c ****         if (ep->xfer_len == 0U)
 526:Drivers/STM32F3xx_HAL_Driver/Src/stm32f3xx_hal_pcd.c ****         {
 527:Drivers/STM32F3xx_HAL_Driver/Src/stm32f3xx_hal_pcd.c ****           /* TX COMPLETE */
 528:Drivers/STM32F3xx_HAL_Driver/Src/stm32f3xx_hal_pcd.c ****           HAL_PCD_DataInStageCallback(hpcd, ep->num);
 529:Drivers/STM32F3xx_HAL_Driver/Src/stm32f3xx_hal_pcd.c ****         }
 530:Drivers/STM32F3xx_HAL_Driver/Src/stm32f3xx_hal_pcd.c ****         else
 531:Drivers/STM32F3xx_HAL_Driver/Src/stm32f3xx_hal_pcd.c ****         {
 532:Drivers/STM32F3xx_HAL_Driver/Src/stm32f3xx_hal_pcd.c ****           HAL_PCD_EP_Transmit(hpcd, ep->num, ep->xfer_buff, ep->xfer_len);
 533:Drivers/STM32F3xx_HAL_Driver/Src/stm32f3xx_hal_pcd.c ****         }
 534:Drivers/STM32F3xx_HAL_Driver/Src/stm32f3xx_hal_pcd.c ****       } 
 535:Drivers/STM32F3xx_HAL_Driver/Src/stm32f3xx_hal_pcd.c ****     }
 536:Drivers/STM32F3xx_HAL_Driver/Src/stm32f3xx_hal_pcd.c ****   }
 537:Drivers/STM32F3xx_HAL_Driver/Src/stm32f3xx_hal_pcd.c ****   return HAL_OK;
ARM GAS  C:\Users\acw\AppData\Local\Temp\ccoXZyGi.s 			page 17


 538:Drivers/STM32F3xx_HAL_Driver/Src/stm32f3xx_hal_pcd.c **** }
 539:Drivers/STM32F3xx_HAL_Driver/Src/stm32f3xx_hal_pcd.c **** /**
 540:Drivers/STM32F3xx_HAL_Driver/Src/stm32f3xx_hal_pcd.c ****   * @}
 541:Drivers/STM32F3xx_HAL_Driver/Src/stm32f3xx_hal_pcd.c ****   */
 542:Drivers/STM32F3xx_HAL_Driver/Src/stm32f3xx_hal_pcd.c **** 
 543:Drivers/STM32F3xx_HAL_Driver/Src/stm32f3xx_hal_pcd.c **** /** @addtogroup PCD_Exported_Functions
 544:Drivers/STM32F3xx_HAL_Driver/Src/stm32f3xx_hal_pcd.c ****   * @{
 545:Drivers/STM32F3xx_HAL_Driver/Src/stm32f3xx_hal_pcd.c ****   */
 546:Drivers/STM32F3xx_HAL_Driver/Src/stm32f3xx_hal_pcd.c **** 
 547:Drivers/STM32F3xx_HAL_Driver/Src/stm32f3xx_hal_pcd.c **** /** @defgroup PCD_Exported_Functions_Group2 IO operation functions 
 548:Drivers/STM32F3xx_HAL_Driver/Src/stm32f3xx_hal_pcd.c ****  * @{
 549:Drivers/STM32F3xx_HAL_Driver/Src/stm32f3xx_hal_pcd.c ****  */    
 550:Drivers/STM32F3xx_HAL_Driver/Src/stm32f3xx_hal_pcd.c ****  
 551:Drivers/STM32F3xx_HAL_Driver/Src/stm32f3xx_hal_pcd.c **** /**
 552:Drivers/STM32F3xx_HAL_Driver/Src/stm32f3xx_hal_pcd.c ****   * @brief  This function handles PCD interrupt request.
 553:Drivers/STM32F3xx_HAL_Driver/Src/stm32f3xx_hal_pcd.c ****   * @param  hpcd PCD handle
 554:Drivers/STM32F3xx_HAL_Driver/Src/stm32f3xx_hal_pcd.c ****   * @retval HAL status
 555:Drivers/STM32F3xx_HAL_Driver/Src/stm32f3xx_hal_pcd.c ****   */
 556:Drivers/STM32F3xx_HAL_Driver/Src/stm32f3xx_hal_pcd.c **** void HAL_PCD_IRQHandler(PCD_HandleTypeDef *hpcd)
 557:Drivers/STM32F3xx_HAL_Driver/Src/stm32f3xx_hal_pcd.c **** {
 558:Drivers/STM32F3xx_HAL_Driver/Src/stm32f3xx_hal_pcd.c ****   
 559:Drivers/STM32F3xx_HAL_Driver/Src/stm32f3xx_hal_pcd.c ****   if (__HAL_PCD_GET_FLAG (hpcd, USB_ISTR_CTR))
 560:Drivers/STM32F3xx_HAL_Driver/Src/stm32f3xx_hal_pcd.c ****   {
 561:Drivers/STM32F3xx_HAL_Driver/Src/stm32f3xx_hal_pcd.c ****     /* servicing of the endpoint correct transfer interrupt */
 562:Drivers/STM32F3xx_HAL_Driver/Src/stm32f3xx_hal_pcd.c ****     /* clear of the CTR flag into the sub */
 563:Drivers/STM32F3xx_HAL_Driver/Src/stm32f3xx_hal_pcd.c ****     PCD_EP_ISR_Handler(hpcd);
 564:Drivers/STM32F3xx_HAL_Driver/Src/stm32f3xx_hal_pcd.c ****   }
 565:Drivers/STM32F3xx_HAL_Driver/Src/stm32f3xx_hal_pcd.c **** 
 566:Drivers/STM32F3xx_HAL_Driver/Src/stm32f3xx_hal_pcd.c ****   if (__HAL_PCD_GET_FLAG (hpcd, USB_ISTR_RESET))
 567:Drivers/STM32F3xx_HAL_Driver/Src/stm32f3xx_hal_pcd.c ****   {
 568:Drivers/STM32F3xx_HAL_Driver/Src/stm32f3xx_hal_pcd.c ****     __HAL_PCD_CLEAR_FLAG(hpcd, USB_ISTR_RESET);
 569:Drivers/STM32F3xx_HAL_Driver/Src/stm32f3xx_hal_pcd.c ****     HAL_PCD_ResetCallback(hpcd);
 570:Drivers/STM32F3xx_HAL_Driver/Src/stm32f3xx_hal_pcd.c ****     HAL_PCD_SetAddress(hpcd, 0U);
 571:Drivers/STM32F3xx_HAL_Driver/Src/stm32f3xx_hal_pcd.c ****   }
 572:Drivers/STM32F3xx_HAL_Driver/Src/stm32f3xx_hal_pcd.c **** 
 573:Drivers/STM32F3xx_HAL_Driver/Src/stm32f3xx_hal_pcd.c ****   if (__HAL_PCD_GET_FLAG (hpcd, USB_ISTR_PMAOVR))
 574:Drivers/STM32F3xx_HAL_Driver/Src/stm32f3xx_hal_pcd.c ****   {
 575:Drivers/STM32F3xx_HAL_Driver/Src/stm32f3xx_hal_pcd.c ****     __HAL_PCD_CLEAR_FLAG(hpcd, USB_ISTR_PMAOVR);    
 576:Drivers/STM32F3xx_HAL_Driver/Src/stm32f3xx_hal_pcd.c ****   }
 577:Drivers/STM32F3xx_HAL_Driver/Src/stm32f3xx_hal_pcd.c ****   if (__HAL_PCD_GET_FLAG (hpcd, USB_ISTR_ERR))
 578:Drivers/STM32F3xx_HAL_Driver/Src/stm32f3xx_hal_pcd.c ****   {
 579:Drivers/STM32F3xx_HAL_Driver/Src/stm32f3xx_hal_pcd.c ****     __HAL_PCD_CLEAR_FLAG(hpcd, USB_ISTR_ERR); 
 580:Drivers/STM32F3xx_HAL_Driver/Src/stm32f3xx_hal_pcd.c ****   }
 581:Drivers/STM32F3xx_HAL_Driver/Src/stm32f3xx_hal_pcd.c **** 
 582:Drivers/STM32F3xx_HAL_Driver/Src/stm32f3xx_hal_pcd.c ****   if (__HAL_PCD_GET_FLAG (hpcd, USB_ISTR_WKUP))
 583:Drivers/STM32F3xx_HAL_Driver/Src/stm32f3xx_hal_pcd.c ****   {
 584:Drivers/STM32F3xx_HAL_Driver/Src/stm32f3xx_hal_pcd.c ****     hpcd->Instance->CNTR &= (uint16_t) ~(USB_CNTR_LPMODE);
 585:Drivers/STM32F3xx_HAL_Driver/Src/stm32f3xx_hal_pcd.c ****     hpcd->Instance->CNTR &= (uint16_t) ~(USB_CNTR_FSUSP);
 586:Drivers/STM32F3xx_HAL_Driver/Src/stm32f3xx_hal_pcd.c **** 
 587:Drivers/STM32F3xx_HAL_Driver/Src/stm32f3xx_hal_pcd.c ****     HAL_PCD_ResumeCallback(hpcd);
 588:Drivers/STM32F3xx_HAL_Driver/Src/stm32f3xx_hal_pcd.c **** 
 589:Drivers/STM32F3xx_HAL_Driver/Src/stm32f3xx_hal_pcd.c ****     __HAL_PCD_CLEAR_FLAG(hpcd, USB_ISTR_WKUP);     
 590:Drivers/STM32F3xx_HAL_Driver/Src/stm32f3xx_hal_pcd.c ****   }
 591:Drivers/STM32F3xx_HAL_Driver/Src/stm32f3xx_hal_pcd.c **** 
 592:Drivers/STM32F3xx_HAL_Driver/Src/stm32f3xx_hal_pcd.c ****   if (__HAL_PCD_GET_FLAG (hpcd, USB_ISTR_SUSP))
 593:Drivers/STM32F3xx_HAL_Driver/Src/stm32f3xx_hal_pcd.c ****   {
 594:Drivers/STM32F3xx_HAL_Driver/Src/stm32f3xx_hal_pcd.c ****     /* Force low-power mode in the macrocell */
ARM GAS  C:\Users\acw\AppData\Local\Temp\ccoXZyGi.s 			page 18


 595:Drivers/STM32F3xx_HAL_Driver/Src/stm32f3xx_hal_pcd.c ****     hpcd->Instance->CNTR |= USB_CNTR_FSUSP;
 596:Drivers/STM32F3xx_HAL_Driver/Src/stm32f3xx_hal_pcd.c **** 
 597:Drivers/STM32F3xx_HAL_Driver/Src/stm32f3xx_hal_pcd.c ****     /* clear of the ISTR bit must be done after setting of CNTR_FSUSP */
 598:Drivers/STM32F3xx_HAL_Driver/Src/stm32f3xx_hal_pcd.c ****     __HAL_PCD_CLEAR_FLAG(hpcd, USB_ISTR_SUSP);
 599:Drivers/STM32F3xx_HAL_Driver/Src/stm32f3xx_hal_pcd.c **** 
 600:Drivers/STM32F3xx_HAL_Driver/Src/stm32f3xx_hal_pcd.c ****     hpcd->Instance->CNTR |= USB_CNTR_LPMODE;
 601:Drivers/STM32F3xx_HAL_Driver/Src/stm32f3xx_hal_pcd.c ****     if (__HAL_PCD_GET_FLAG (hpcd, USB_ISTR_WKUP) == 0U)
 602:Drivers/STM32F3xx_HAL_Driver/Src/stm32f3xx_hal_pcd.c ****     {
 603:Drivers/STM32F3xx_HAL_Driver/Src/stm32f3xx_hal_pcd.c ****       HAL_PCD_SuspendCallback(hpcd);
 604:Drivers/STM32F3xx_HAL_Driver/Src/stm32f3xx_hal_pcd.c ****     }
 605:Drivers/STM32F3xx_HAL_Driver/Src/stm32f3xx_hal_pcd.c ****   }
 606:Drivers/STM32F3xx_HAL_Driver/Src/stm32f3xx_hal_pcd.c **** 
 607:Drivers/STM32F3xx_HAL_Driver/Src/stm32f3xx_hal_pcd.c ****   if (__HAL_PCD_GET_FLAG (hpcd, USB_ISTR_SOF))
 608:Drivers/STM32F3xx_HAL_Driver/Src/stm32f3xx_hal_pcd.c ****   {
 609:Drivers/STM32F3xx_HAL_Driver/Src/stm32f3xx_hal_pcd.c ****     __HAL_PCD_CLEAR_FLAG(hpcd, USB_ISTR_SOF); 
 610:Drivers/STM32F3xx_HAL_Driver/Src/stm32f3xx_hal_pcd.c ****     HAL_PCD_SOFCallback(hpcd);
 611:Drivers/STM32F3xx_HAL_Driver/Src/stm32f3xx_hal_pcd.c ****   }
 612:Drivers/STM32F3xx_HAL_Driver/Src/stm32f3xx_hal_pcd.c **** 
 613:Drivers/STM32F3xx_HAL_Driver/Src/stm32f3xx_hal_pcd.c ****   if (__HAL_PCD_GET_FLAG (hpcd, USB_ISTR_ESOF))
 614:Drivers/STM32F3xx_HAL_Driver/Src/stm32f3xx_hal_pcd.c ****   {
 615:Drivers/STM32F3xx_HAL_Driver/Src/stm32f3xx_hal_pcd.c ****     /* clear ESOF flag in ISTR */
 616:Drivers/STM32F3xx_HAL_Driver/Src/stm32f3xx_hal_pcd.c ****     __HAL_PCD_CLEAR_FLAG(hpcd, USB_ISTR_ESOF); 
 617:Drivers/STM32F3xx_HAL_Driver/Src/stm32f3xx_hal_pcd.c ****   }
 618:Drivers/STM32F3xx_HAL_Driver/Src/stm32f3xx_hal_pcd.c **** }
 619:Drivers/STM32F3xx_HAL_Driver/Src/stm32f3xx_hal_pcd.c **** 
 620:Drivers/STM32F3xx_HAL_Driver/Src/stm32f3xx_hal_pcd.c **** /**
 621:Drivers/STM32F3xx_HAL_Driver/Src/stm32f3xx_hal_pcd.c ****   * @brief  Data out stage callbacks
 622:Drivers/STM32F3xx_HAL_Driver/Src/stm32f3xx_hal_pcd.c ****   * @param  hpcd PCD handle
 623:Drivers/STM32F3xx_HAL_Driver/Src/stm32f3xx_hal_pcd.c ****   * @param  epnum endpoint number
 624:Drivers/STM32F3xx_HAL_Driver/Src/stm32f3xx_hal_pcd.c ****   * @retval None
 625:Drivers/STM32F3xx_HAL_Driver/Src/stm32f3xx_hal_pcd.c ****   */
 626:Drivers/STM32F3xx_HAL_Driver/Src/stm32f3xx_hal_pcd.c ****  __weak void HAL_PCD_DataOutStageCallback(PCD_HandleTypeDef *hpcd, uint8_t epnum)
 627:Drivers/STM32F3xx_HAL_Driver/Src/stm32f3xx_hal_pcd.c **** {
 343              		.loc 1 627 0
 344              		.cfi_startproc
 345              		@ args = 0, pretend = 0, frame = 0
 346              		@ frame_needed = 0, uses_anonymous_args = 0
 347              		@ link register save eliminated.
 348              	.LVL26:
 628:Drivers/STM32F3xx_HAL_Driver/Src/stm32f3xx_hal_pcd.c ****   /* Prevent unused argument(s) compilation warning */
 629:Drivers/STM32F3xx_HAL_Driver/Src/stm32f3xx_hal_pcd.c ****   UNUSED(hpcd);
 630:Drivers/STM32F3xx_HAL_Driver/Src/stm32f3xx_hal_pcd.c ****   UNUSED(epnum);
 631:Drivers/STM32F3xx_HAL_Driver/Src/stm32f3xx_hal_pcd.c **** 
 632:Drivers/STM32F3xx_HAL_Driver/Src/stm32f3xx_hal_pcd.c ****   /* NOTE : This function should not be modified, when the callback is needed,
 633:Drivers/STM32F3xx_HAL_Driver/Src/stm32f3xx_hal_pcd.c ****             the HAL_PCD_DataOutStageCallback could be implemented in the user file
 634:Drivers/STM32F3xx_HAL_Driver/Src/stm32f3xx_hal_pcd.c ****    */ 
 635:Drivers/STM32F3xx_HAL_Driver/Src/stm32f3xx_hal_pcd.c **** }
 349              		.loc 1 635 0
 350 0000 7047     		bx	lr
 351              		.cfi_endproc
 352              	.LFE134:
 354              		.section	.text.HAL_PCD_DataInStageCallback,"ax",%progbits
 355              		.align	1
 356              		.weak	HAL_PCD_DataInStageCallback
 357              		.syntax unified
 358              		.thumb
 359              		.thumb_func
ARM GAS  C:\Users\acw\AppData\Local\Temp\ccoXZyGi.s 			page 19


 360              		.fpu fpv4-sp-d16
 362              	HAL_PCD_DataInStageCallback:
 363              	.LFB135:
 636:Drivers/STM32F3xx_HAL_Driver/Src/stm32f3xx_hal_pcd.c **** 
 637:Drivers/STM32F3xx_HAL_Driver/Src/stm32f3xx_hal_pcd.c **** /**
 638:Drivers/STM32F3xx_HAL_Driver/Src/stm32f3xx_hal_pcd.c ****   * @brief  Data IN stage callbacks
 639:Drivers/STM32F3xx_HAL_Driver/Src/stm32f3xx_hal_pcd.c ****   * @param  hpcd PCD handle
 640:Drivers/STM32F3xx_HAL_Driver/Src/stm32f3xx_hal_pcd.c ****   * @param  epnum endpoint number
 641:Drivers/STM32F3xx_HAL_Driver/Src/stm32f3xx_hal_pcd.c ****   * @retval None
 642:Drivers/STM32F3xx_HAL_Driver/Src/stm32f3xx_hal_pcd.c ****   */
 643:Drivers/STM32F3xx_HAL_Driver/Src/stm32f3xx_hal_pcd.c ****  __weak void HAL_PCD_DataInStageCallback(PCD_HandleTypeDef *hpcd, uint8_t epnum)
 644:Drivers/STM32F3xx_HAL_Driver/Src/stm32f3xx_hal_pcd.c **** {
 364              		.loc 1 644 0
 365              		.cfi_startproc
 366              		@ args = 0, pretend = 0, frame = 0
 367              		@ frame_needed = 0, uses_anonymous_args = 0
 368              		@ link register save eliminated.
 369              	.LVL27:
 645:Drivers/STM32F3xx_HAL_Driver/Src/stm32f3xx_hal_pcd.c ****   /* Prevent unused argument(s) compilation warning */
 646:Drivers/STM32F3xx_HAL_Driver/Src/stm32f3xx_hal_pcd.c ****   UNUSED(hpcd);
 647:Drivers/STM32F3xx_HAL_Driver/Src/stm32f3xx_hal_pcd.c ****   UNUSED(epnum);
 648:Drivers/STM32F3xx_HAL_Driver/Src/stm32f3xx_hal_pcd.c **** 
 649:Drivers/STM32F3xx_HAL_Driver/Src/stm32f3xx_hal_pcd.c ****   /* NOTE : This function should not be modified, when the callback is needed,
 650:Drivers/STM32F3xx_HAL_Driver/Src/stm32f3xx_hal_pcd.c ****             the HAL_PCD_DataInStageCallback could be implemented in the user file
 651:Drivers/STM32F3xx_HAL_Driver/Src/stm32f3xx_hal_pcd.c ****    */ 
 652:Drivers/STM32F3xx_HAL_Driver/Src/stm32f3xx_hal_pcd.c **** }
 370              		.loc 1 652 0
 371 0000 7047     		bx	lr
 372              		.cfi_endproc
 373              	.LFE135:
 375              		.section	.text.HAL_PCD_SetupStageCallback,"ax",%progbits
 376              		.align	1
 377              		.weak	HAL_PCD_SetupStageCallback
 378              		.syntax unified
 379              		.thumb
 380              		.thumb_func
 381              		.fpu fpv4-sp-d16
 383              	HAL_PCD_SetupStageCallback:
 384              	.LFB136:
 653:Drivers/STM32F3xx_HAL_Driver/Src/stm32f3xx_hal_pcd.c **** /**
 654:Drivers/STM32F3xx_HAL_Driver/Src/stm32f3xx_hal_pcd.c ****   * @brief  Setup stage callback
 655:Drivers/STM32F3xx_HAL_Driver/Src/stm32f3xx_hal_pcd.c ****   * @param  hpcd PCD handle
 656:Drivers/STM32F3xx_HAL_Driver/Src/stm32f3xx_hal_pcd.c ****   * @retval None
 657:Drivers/STM32F3xx_HAL_Driver/Src/stm32f3xx_hal_pcd.c ****   */
 658:Drivers/STM32F3xx_HAL_Driver/Src/stm32f3xx_hal_pcd.c ****  __weak void HAL_PCD_SetupStageCallback(PCD_HandleTypeDef *hpcd)
 659:Drivers/STM32F3xx_HAL_Driver/Src/stm32f3xx_hal_pcd.c **** {
 385              		.loc 1 659 0
 386              		.cfi_startproc
 387              		@ args = 0, pretend = 0, frame = 0
 388              		@ frame_needed = 0, uses_anonymous_args = 0
 389              		@ link register save eliminated.
 390              	.LVL28:
 660:Drivers/STM32F3xx_HAL_Driver/Src/stm32f3xx_hal_pcd.c ****   /* Prevent unused argument(s) compilation warning */
 661:Drivers/STM32F3xx_HAL_Driver/Src/stm32f3xx_hal_pcd.c ****   UNUSED(hpcd);
 662:Drivers/STM32F3xx_HAL_Driver/Src/stm32f3xx_hal_pcd.c **** 
 663:Drivers/STM32F3xx_HAL_Driver/Src/stm32f3xx_hal_pcd.c ****   /* NOTE : This function should not be modified, when the callback is needed,
 664:Drivers/STM32F3xx_HAL_Driver/Src/stm32f3xx_hal_pcd.c ****             the HAL_PCD_SetupStageCallback could be implemented in the user file
ARM GAS  C:\Users\acw\AppData\Local\Temp\ccoXZyGi.s 			page 20


 665:Drivers/STM32F3xx_HAL_Driver/Src/stm32f3xx_hal_pcd.c ****    */ 
 666:Drivers/STM32F3xx_HAL_Driver/Src/stm32f3xx_hal_pcd.c **** }
 391              		.loc 1 666 0
 392 0000 7047     		bx	lr
 393              		.cfi_endproc
 394              	.LFE136:
 396              		.section	.text.HAL_PCD_SOFCallback,"ax",%progbits
 397              		.align	1
 398              		.weak	HAL_PCD_SOFCallback
 399              		.syntax unified
 400              		.thumb
 401              		.thumb_func
 402              		.fpu fpv4-sp-d16
 404              	HAL_PCD_SOFCallback:
 405              	.LFB137:
 667:Drivers/STM32F3xx_HAL_Driver/Src/stm32f3xx_hal_pcd.c **** 
 668:Drivers/STM32F3xx_HAL_Driver/Src/stm32f3xx_hal_pcd.c **** /**
 669:Drivers/STM32F3xx_HAL_Driver/Src/stm32f3xx_hal_pcd.c ****   * @brief  USB Start Of Frame callbacks
 670:Drivers/STM32F3xx_HAL_Driver/Src/stm32f3xx_hal_pcd.c ****   * @param  hpcd PCD handle
 671:Drivers/STM32F3xx_HAL_Driver/Src/stm32f3xx_hal_pcd.c ****   * @retval None
 672:Drivers/STM32F3xx_HAL_Driver/Src/stm32f3xx_hal_pcd.c ****   */
 673:Drivers/STM32F3xx_HAL_Driver/Src/stm32f3xx_hal_pcd.c ****  __weak void HAL_PCD_SOFCallback(PCD_HandleTypeDef *hpcd)
 674:Drivers/STM32F3xx_HAL_Driver/Src/stm32f3xx_hal_pcd.c **** {
 406              		.loc 1 674 0
 407              		.cfi_startproc
 408              		@ args = 0, pretend = 0, frame = 0
 409              		@ frame_needed = 0, uses_anonymous_args = 0
 410              		@ link register save eliminated.
 411              	.LVL29:
 675:Drivers/STM32F3xx_HAL_Driver/Src/stm32f3xx_hal_pcd.c ****   /* Prevent unused argument(s) compilation warning */
 676:Drivers/STM32F3xx_HAL_Driver/Src/stm32f3xx_hal_pcd.c ****   UNUSED(hpcd);
 677:Drivers/STM32F3xx_HAL_Driver/Src/stm32f3xx_hal_pcd.c **** 
 678:Drivers/STM32F3xx_HAL_Driver/Src/stm32f3xx_hal_pcd.c ****   /* NOTE : This function should not be modified, when the callback is needed,
 679:Drivers/STM32F3xx_HAL_Driver/Src/stm32f3xx_hal_pcd.c ****             the HAL_PCD_SOFCallback could be implemented in the user file
 680:Drivers/STM32F3xx_HAL_Driver/Src/stm32f3xx_hal_pcd.c ****    */ 
 681:Drivers/STM32F3xx_HAL_Driver/Src/stm32f3xx_hal_pcd.c **** }
 412              		.loc 1 681 0
 413 0000 7047     		bx	lr
 414              		.cfi_endproc
 415              	.LFE137:
 417              		.section	.text.HAL_PCD_ResetCallback,"ax",%progbits
 418              		.align	1
 419              		.weak	HAL_PCD_ResetCallback
 420              		.syntax unified
 421              		.thumb
 422              		.thumb_func
 423              		.fpu fpv4-sp-d16
 425              	HAL_PCD_ResetCallback:
 426              	.LFB138:
 682:Drivers/STM32F3xx_HAL_Driver/Src/stm32f3xx_hal_pcd.c **** 
 683:Drivers/STM32F3xx_HAL_Driver/Src/stm32f3xx_hal_pcd.c **** /**
 684:Drivers/STM32F3xx_HAL_Driver/Src/stm32f3xx_hal_pcd.c ****   * @brief  USB Reset callbacks
 685:Drivers/STM32F3xx_HAL_Driver/Src/stm32f3xx_hal_pcd.c ****   * @param  hpcd PCD handle
 686:Drivers/STM32F3xx_HAL_Driver/Src/stm32f3xx_hal_pcd.c ****   * @retval None
 687:Drivers/STM32F3xx_HAL_Driver/Src/stm32f3xx_hal_pcd.c ****   */
 688:Drivers/STM32F3xx_HAL_Driver/Src/stm32f3xx_hal_pcd.c ****  __weak void HAL_PCD_ResetCallback(PCD_HandleTypeDef *hpcd)
 689:Drivers/STM32F3xx_HAL_Driver/Src/stm32f3xx_hal_pcd.c **** {
ARM GAS  C:\Users\acw\AppData\Local\Temp\ccoXZyGi.s 			page 21


 427              		.loc 1 689 0
 428              		.cfi_startproc
 429              		@ args = 0, pretend = 0, frame = 0
 430              		@ frame_needed = 0, uses_anonymous_args = 0
 431              		@ link register save eliminated.
 432              	.LVL30:
 690:Drivers/STM32F3xx_HAL_Driver/Src/stm32f3xx_hal_pcd.c ****   /* Prevent unused argument(s) compilation warning */
 691:Drivers/STM32F3xx_HAL_Driver/Src/stm32f3xx_hal_pcd.c ****   UNUSED(hpcd);
 692:Drivers/STM32F3xx_HAL_Driver/Src/stm32f3xx_hal_pcd.c **** 
 693:Drivers/STM32F3xx_HAL_Driver/Src/stm32f3xx_hal_pcd.c ****   /* NOTE : This function should not be modified, when the callback is needed,
 694:Drivers/STM32F3xx_HAL_Driver/Src/stm32f3xx_hal_pcd.c ****             the HAL_PCD_ResetCallback could be implemented in the user file
 695:Drivers/STM32F3xx_HAL_Driver/Src/stm32f3xx_hal_pcd.c ****    */ 
 696:Drivers/STM32F3xx_HAL_Driver/Src/stm32f3xx_hal_pcd.c **** }
 433              		.loc 1 696 0
 434 0000 7047     		bx	lr
 435              		.cfi_endproc
 436              	.LFE138:
 438              		.section	.text.HAL_PCD_SuspendCallback,"ax",%progbits
 439              		.align	1
 440              		.weak	HAL_PCD_SuspendCallback
 441              		.syntax unified
 442              		.thumb
 443              		.thumb_func
 444              		.fpu fpv4-sp-d16
 446              	HAL_PCD_SuspendCallback:
 447              	.LFB139:
 697:Drivers/STM32F3xx_HAL_Driver/Src/stm32f3xx_hal_pcd.c **** 
 698:Drivers/STM32F3xx_HAL_Driver/Src/stm32f3xx_hal_pcd.c **** /**
 699:Drivers/STM32F3xx_HAL_Driver/Src/stm32f3xx_hal_pcd.c ****   * @brief  Suspend event callbacks
 700:Drivers/STM32F3xx_HAL_Driver/Src/stm32f3xx_hal_pcd.c ****   * @param  hpcd PCD handle
 701:Drivers/STM32F3xx_HAL_Driver/Src/stm32f3xx_hal_pcd.c ****   * @retval None
 702:Drivers/STM32F3xx_HAL_Driver/Src/stm32f3xx_hal_pcd.c ****   */
 703:Drivers/STM32F3xx_HAL_Driver/Src/stm32f3xx_hal_pcd.c ****  __weak void HAL_PCD_SuspendCallback(PCD_HandleTypeDef *hpcd)
 704:Drivers/STM32F3xx_HAL_Driver/Src/stm32f3xx_hal_pcd.c **** {
 448              		.loc 1 704 0
 449              		.cfi_startproc
 450              		@ args = 0, pretend = 0, frame = 0
 451              		@ frame_needed = 0, uses_anonymous_args = 0
 452              		@ link register save eliminated.
 453              	.LVL31:
 705:Drivers/STM32F3xx_HAL_Driver/Src/stm32f3xx_hal_pcd.c ****   /* Prevent unused argument(s) compilation warning */
 706:Drivers/STM32F3xx_HAL_Driver/Src/stm32f3xx_hal_pcd.c ****   UNUSED(hpcd);
 707:Drivers/STM32F3xx_HAL_Driver/Src/stm32f3xx_hal_pcd.c **** 
 708:Drivers/STM32F3xx_HAL_Driver/Src/stm32f3xx_hal_pcd.c ****   /* NOTE : This function should not be modified, when the callback is needed,
 709:Drivers/STM32F3xx_HAL_Driver/Src/stm32f3xx_hal_pcd.c ****             the HAL_PCD_SuspendCallback could be implemented in the user file
 710:Drivers/STM32F3xx_HAL_Driver/Src/stm32f3xx_hal_pcd.c ****    */ 
 711:Drivers/STM32F3xx_HAL_Driver/Src/stm32f3xx_hal_pcd.c **** }
 454              		.loc 1 711 0
 455 0000 7047     		bx	lr
 456              		.cfi_endproc
 457              	.LFE139:
 459              		.section	.text.HAL_PCD_ResumeCallback,"ax",%progbits
 460              		.align	1
 461              		.weak	HAL_PCD_ResumeCallback
 462              		.syntax unified
 463              		.thumb
 464              		.thumb_func
ARM GAS  C:\Users\acw\AppData\Local\Temp\ccoXZyGi.s 			page 22


 465              		.fpu fpv4-sp-d16
 467              	HAL_PCD_ResumeCallback:
 468              	.LFB140:
 712:Drivers/STM32F3xx_HAL_Driver/Src/stm32f3xx_hal_pcd.c **** 
 713:Drivers/STM32F3xx_HAL_Driver/Src/stm32f3xx_hal_pcd.c **** /**
 714:Drivers/STM32F3xx_HAL_Driver/Src/stm32f3xx_hal_pcd.c ****   * @brief  Resume event callbacks
 715:Drivers/STM32F3xx_HAL_Driver/Src/stm32f3xx_hal_pcd.c ****   * @param  hpcd PCD handle
 716:Drivers/STM32F3xx_HAL_Driver/Src/stm32f3xx_hal_pcd.c ****   * @retval None
 717:Drivers/STM32F3xx_HAL_Driver/Src/stm32f3xx_hal_pcd.c ****   */
 718:Drivers/STM32F3xx_HAL_Driver/Src/stm32f3xx_hal_pcd.c ****  __weak void HAL_PCD_ResumeCallback(PCD_HandleTypeDef *hpcd)
 719:Drivers/STM32F3xx_HAL_Driver/Src/stm32f3xx_hal_pcd.c **** {
 469              		.loc 1 719 0
 470              		.cfi_startproc
 471              		@ args = 0, pretend = 0, frame = 0
 472              		@ frame_needed = 0, uses_anonymous_args = 0
 473              		@ link register save eliminated.
 474              	.LVL32:
 720:Drivers/STM32F3xx_HAL_Driver/Src/stm32f3xx_hal_pcd.c ****   /* Prevent unused argument(s) compilation warning */
 721:Drivers/STM32F3xx_HAL_Driver/Src/stm32f3xx_hal_pcd.c ****   UNUSED(hpcd);
 722:Drivers/STM32F3xx_HAL_Driver/Src/stm32f3xx_hal_pcd.c **** 
 723:Drivers/STM32F3xx_HAL_Driver/Src/stm32f3xx_hal_pcd.c ****   /* NOTE : This function should not be modified, when the callback is needed,
 724:Drivers/STM32F3xx_HAL_Driver/Src/stm32f3xx_hal_pcd.c ****             the HAL_PCD_ResumeCallback could be implemented in the user file
 725:Drivers/STM32F3xx_HAL_Driver/Src/stm32f3xx_hal_pcd.c ****    */ 
 726:Drivers/STM32F3xx_HAL_Driver/Src/stm32f3xx_hal_pcd.c **** }
 475              		.loc 1 726 0
 476 0000 7047     		bx	lr
 477              		.cfi_endproc
 478              	.LFE140:
 480              		.section	.text.HAL_PCD_ISOOUTIncompleteCallback,"ax",%progbits
 481              		.align	1
 482              		.weak	HAL_PCD_ISOOUTIncompleteCallback
 483              		.syntax unified
 484              		.thumb
 485              		.thumb_func
 486              		.fpu fpv4-sp-d16
 488              	HAL_PCD_ISOOUTIncompleteCallback:
 489              	.LFB141:
 727:Drivers/STM32F3xx_HAL_Driver/Src/stm32f3xx_hal_pcd.c **** 
 728:Drivers/STM32F3xx_HAL_Driver/Src/stm32f3xx_hal_pcd.c **** /**
 729:Drivers/STM32F3xx_HAL_Driver/Src/stm32f3xx_hal_pcd.c ****   * @brief  Incomplete ISO OUT callbacks
 730:Drivers/STM32F3xx_HAL_Driver/Src/stm32f3xx_hal_pcd.c ****   * @param  hpcd PCD handle
 731:Drivers/STM32F3xx_HAL_Driver/Src/stm32f3xx_hal_pcd.c ****   * @param  epnum endpoint number
 732:Drivers/STM32F3xx_HAL_Driver/Src/stm32f3xx_hal_pcd.c ****   * @retval None
 733:Drivers/STM32F3xx_HAL_Driver/Src/stm32f3xx_hal_pcd.c ****   */
 734:Drivers/STM32F3xx_HAL_Driver/Src/stm32f3xx_hal_pcd.c ****  __weak void HAL_PCD_ISOOUTIncompleteCallback(PCD_HandleTypeDef *hpcd, uint8_t epnum)
 735:Drivers/STM32F3xx_HAL_Driver/Src/stm32f3xx_hal_pcd.c **** {
 490              		.loc 1 735 0
 491              		.cfi_startproc
 492              		@ args = 0, pretend = 0, frame = 0
 493              		@ frame_needed = 0, uses_anonymous_args = 0
 494              		@ link register save eliminated.
 495              	.LVL33:
 736:Drivers/STM32F3xx_HAL_Driver/Src/stm32f3xx_hal_pcd.c ****   /* Prevent unused argument(s) compilation warning */
 737:Drivers/STM32F3xx_HAL_Driver/Src/stm32f3xx_hal_pcd.c ****   UNUSED(hpcd);
 738:Drivers/STM32F3xx_HAL_Driver/Src/stm32f3xx_hal_pcd.c ****   UNUSED(epnum);
 739:Drivers/STM32F3xx_HAL_Driver/Src/stm32f3xx_hal_pcd.c **** 
 740:Drivers/STM32F3xx_HAL_Driver/Src/stm32f3xx_hal_pcd.c ****   /* NOTE : This function should not be modified, when the callback is needed,
ARM GAS  C:\Users\acw\AppData\Local\Temp\ccoXZyGi.s 			page 23


 741:Drivers/STM32F3xx_HAL_Driver/Src/stm32f3xx_hal_pcd.c ****             the HAL_PCD_ISOOUTIncompleteCallback could be implemented in the user file
 742:Drivers/STM32F3xx_HAL_Driver/Src/stm32f3xx_hal_pcd.c ****    */ 
 743:Drivers/STM32F3xx_HAL_Driver/Src/stm32f3xx_hal_pcd.c **** }
 496              		.loc 1 743 0
 497 0000 7047     		bx	lr
 498              		.cfi_endproc
 499              	.LFE141:
 501              		.section	.text.HAL_PCD_ISOINIncompleteCallback,"ax",%progbits
 502              		.align	1
 503              		.weak	HAL_PCD_ISOINIncompleteCallback
 504              		.syntax unified
 505              		.thumb
 506              		.thumb_func
 507              		.fpu fpv4-sp-d16
 509              	HAL_PCD_ISOINIncompleteCallback:
 510              	.LFB142:
 744:Drivers/STM32F3xx_HAL_Driver/Src/stm32f3xx_hal_pcd.c **** 
 745:Drivers/STM32F3xx_HAL_Driver/Src/stm32f3xx_hal_pcd.c **** /**
 746:Drivers/STM32F3xx_HAL_Driver/Src/stm32f3xx_hal_pcd.c ****   * @brief  Incomplete ISO IN  callbacks
 747:Drivers/STM32F3xx_HAL_Driver/Src/stm32f3xx_hal_pcd.c ****   * @param  hpcd PCD handle
 748:Drivers/STM32F3xx_HAL_Driver/Src/stm32f3xx_hal_pcd.c ****   * @param  epnum endpoint number
 749:Drivers/STM32F3xx_HAL_Driver/Src/stm32f3xx_hal_pcd.c ****   * @retval None
 750:Drivers/STM32F3xx_HAL_Driver/Src/stm32f3xx_hal_pcd.c ****   */
 751:Drivers/STM32F3xx_HAL_Driver/Src/stm32f3xx_hal_pcd.c ****  __weak void HAL_PCD_ISOINIncompleteCallback(PCD_HandleTypeDef *hpcd, uint8_t epnum)
 752:Drivers/STM32F3xx_HAL_Driver/Src/stm32f3xx_hal_pcd.c **** {
 511              		.loc 1 752 0
 512              		.cfi_startproc
 513              		@ args = 0, pretend = 0, frame = 0
 514              		@ frame_needed = 0, uses_anonymous_args = 0
 515              		@ link register save eliminated.
 516              	.LVL34:
 753:Drivers/STM32F3xx_HAL_Driver/Src/stm32f3xx_hal_pcd.c ****   /* Prevent unused argument(s) compilation warning */
 754:Drivers/STM32F3xx_HAL_Driver/Src/stm32f3xx_hal_pcd.c ****   UNUSED(hpcd);
 755:Drivers/STM32F3xx_HAL_Driver/Src/stm32f3xx_hal_pcd.c ****   UNUSED(epnum);
 756:Drivers/STM32F3xx_HAL_Driver/Src/stm32f3xx_hal_pcd.c **** 
 757:Drivers/STM32F3xx_HAL_Driver/Src/stm32f3xx_hal_pcd.c ****   /* NOTE : This function should not be modified, when the callback is needed,
 758:Drivers/STM32F3xx_HAL_Driver/Src/stm32f3xx_hal_pcd.c ****             the HAL_PCD_ISOINIncompleteCallback could be implemented in the user file
 759:Drivers/STM32F3xx_HAL_Driver/Src/stm32f3xx_hal_pcd.c ****    */ 
 760:Drivers/STM32F3xx_HAL_Driver/Src/stm32f3xx_hal_pcd.c **** }
 517              		.loc 1 760 0
 518 0000 7047     		bx	lr
 519              		.cfi_endproc
 520              	.LFE142:
 522              		.section	.text.HAL_PCD_ConnectCallback,"ax",%progbits
 523              		.align	1
 524              		.weak	HAL_PCD_ConnectCallback
 525              		.syntax unified
 526              		.thumb
 527              		.thumb_func
 528              		.fpu fpv4-sp-d16
 530              	HAL_PCD_ConnectCallback:
 531              	.LFB143:
 761:Drivers/STM32F3xx_HAL_Driver/Src/stm32f3xx_hal_pcd.c **** 
 762:Drivers/STM32F3xx_HAL_Driver/Src/stm32f3xx_hal_pcd.c **** /**
 763:Drivers/STM32F3xx_HAL_Driver/Src/stm32f3xx_hal_pcd.c ****   * @brief  Connection event callbacks
 764:Drivers/STM32F3xx_HAL_Driver/Src/stm32f3xx_hal_pcd.c ****   * @param  hpcd PCD handle
 765:Drivers/STM32F3xx_HAL_Driver/Src/stm32f3xx_hal_pcd.c ****   * @retval None
ARM GAS  C:\Users\acw\AppData\Local\Temp\ccoXZyGi.s 			page 24


 766:Drivers/STM32F3xx_HAL_Driver/Src/stm32f3xx_hal_pcd.c ****   */
 767:Drivers/STM32F3xx_HAL_Driver/Src/stm32f3xx_hal_pcd.c ****  __weak void HAL_PCD_ConnectCallback(PCD_HandleTypeDef *hpcd)
 768:Drivers/STM32F3xx_HAL_Driver/Src/stm32f3xx_hal_pcd.c **** {
 532              		.loc 1 768 0
 533              		.cfi_startproc
 534              		@ args = 0, pretend = 0, frame = 0
 535              		@ frame_needed = 0, uses_anonymous_args = 0
 536              		@ link register save eliminated.
 537              	.LVL35:
 769:Drivers/STM32F3xx_HAL_Driver/Src/stm32f3xx_hal_pcd.c ****   /* Prevent unused argument(s) compilation warning */
 770:Drivers/STM32F3xx_HAL_Driver/Src/stm32f3xx_hal_pcd.c ****   UNUSED(hpcd);
 771:Drivers/STM32F3xx_HAL_Driver/Src/stm32f3xx_hal_pcd.c **** 
 772:Drivers/STM32F3xx_HAL_Driver/Src/stm32f3xx_hal_pcd.c ****   /* NOTE : This function should not be modified, when the callback is needed,
 773:Drivers/STM32F3xx_HAL_Driver/Src/stm32f3xx_hal_pcd.c ****             the HAL_PCD_ConnectCallback could be implemented in the user file
 774:Drivers/STM32F3xx_HAL_Driver/Src/stm32f3xx_hal_pcd.c ****    */ 
 775:Drivers/STM32F3xx_HAL_Driver/Src/stm32f3xx_hal_pcd.c **** }
 538              		.loc 1 775 0
 539 0000 7047     		bx	lr
 540              		.cfi_endproc
 541              	.LFE143:
 543              		.section	.text.HAL_PCD_DisconnectCallback,"ax",%progbits
 544              		.align	1
 545              		.weak	HAL_PCD_DisconnectCallback
 546              		.syntax unified
 547              		.thumb
 548              		.thumb_func
 549              		.fpu fpv4-sp-d16
 551              	HAL_PCD_DisconnectCallback:
 552              	.LFB144:
 776:Drivers/STM32F3xx_HAL_Driver/Src/stm32f3xx_hal_pcd.c **** 
 777:Drivers/STM32F3xx_HAL_Driver/Src/stm32f3xx_hal_pcd.c **** /**
 778:Drivers/STM32F3xx_HAL_Driver/Src/stm32f3xx_hal_pcd.c ****   * @brief  Disconnection event callbacks
 779:Drivers/STM32F3xx_HAL_Driver/Src/stm32f3xx_hal_pcd.c ****   * @param  hpcd PCD handle
 780:Drivers/STM32F3xx_HAL_Driver/Src/stm32f3xx_hal_pcd.c ****   * @retval None
 781:Drivers/STM32F3xx_HAL_Driver/Src/stm32f3xx_hal_pcd.c ****   */
 782:Drivers/STM32F3xx_HAL_Driver/Src/stm32f3xx_hal_pcd.c ****  __weak void HAL_PCD_DisconnectCallback(PCD_HandleTypeDef *hpcd)
 783:Drivers/STM32F3xx_HAL_Driver/Src/stm32f3xx_hal_pcd.c **** {
 553              		.loc 1 783 0
 554              		.cfi_startproc
 555              		@ args = 0, pretend = 0, frame = 0
 556              		@ frame_needed = 0, uses_anonymous_args = 0
 557              		@ link register save eliminated.
 558              	.LVL36:
 784:Drivers/STM32F3xx_HAL_Driver/Src/stm32f3xx_hal_pcd.c ****   /* Prevent unused argument(s) compilation warning */
 785:Drivers/STM32F3xx_HAL_Driver/Src/stm32f3xx_hal_pcd.c ****   UNUSED(hpcd);
 786:Drivers/STM32F3xx_HAL_Driver/Src/stm32f3xx_hal_pcd.c **** 
 787:Drivers/STM32F3xx_HAL_Driver/Src/stm32f3xx_hal_pcd.c ****   /* NOTE : This function should not be modified, when the callback is needed,
 788:Drivers/STM32F3xx_HAL_Driver/Src/stm32f3xx_hal_pcd.c ****             the HAL_PCD_DisconnectCallback could be implemented in the user file
 789:Drivers/STM32F3xx_HAL_Driver/Src/stm32f3xx_hal_pcd.c ****    */ 
 790:Drivers/STM32F3xx_HAL_Driver/Src/stm32f3xx_hal_pcd.c **** }
 559              		.loc 1 790 0
 560 0000 7047     		bx	lr
 561              		.cfi_endproc
 562              	.LFE144:
 564              		.section	.text.HAL_PCD_DevConnect,"ax",%progbits
 565              		.align	1
 566              		.global	HAL_PCD_DevConnect
ARM GAS  C:\Users\acw\AppData\Local\Temp\ccoXZyGi.s 			page 25


 567              		.syntax unified
 568              		.thumb
 569              		.thumb_func
 570              		.fpu fpv4-sp-d16
 572              	HAL_PCD_DevConnect:
 573              	.LFB145:
 791:Drivers/STM32F3xx_HAL_Driver/Src/stm32f3xx_hal_pcd.c **** /**
 792:Drivers/STM32F3xx_HAL_Driver/Src/stm32f3xx_hal_pcd.c ****   * @}
 793:Drivers/STM32F3xx_HAL_Driver/Src/stm32f3xx_hal_pcd.c ****   */
 794:Drivers/STM32F3xx_HAL_Driver/Src/stm32f3xx_hal_pcd.c ****   
 795:Drivers/STM32F3xx_HAL_Driver/Src/stm32f3xx_hal_pcd.c **** /** @defgroup PCD_Exported_Functions_Group3 Peripheral Control functions 
 796:Drivers/STM32F3xx_HAL_Driver/Src/stm32f3xx_hal_pcd.c ****  *  @brief   management functions 
 797:Drivers/STM32F3xx_HAL_Driver/Src/stm32f3xx_hal_pcd.c ****  *
 798:Drivers/STM32F3xx_HAL_Driver/Src/stm32f3xx_hal_pcd.c **** @verbatim   
 799:Drivers/STM32F3xx_HAL_Driver/Src/stm32f3xx_hal_pcd.c ****  ===============================================================================
 800:Drivers/STM32F3xx_HAL_Driver/Src/stm32f3xx_hal_pcd.c ****                       ##### Peripheral Control functions #####
 801:Drivers/STM32F3xx_HAL_Driver/Src/stm32f3xx_hal_pcd.c ****  ===============================================================================  
 802:Drivers/STM32F3xx_HAL_Driver/Src/stm32f3xx_hal_pcd.c ****     [..]
 803:Drivers/STM32F3xx_HAL_Driver/Src/stm32f3xx_hal_pcd.c ****     This subsection provides a set of functions allowing to control the PCD data 
 804:Drivers/STM32F3xx_HAL_Driver/Src/stm32f3xx_hal_pcd.c ****     transfers.
 805:Drivers/STM32F3xx_HAL_Driver/Src/stm32f3xx_hal_pcd.c **** 
 806:Drivers/STM32F3xx_HAL_Driver/Src/stm32f3xx_hal_pcd.c **** @endverbatim
 807:Drivers/STM32F3xx_HAL_Driver/Src/stm32f3xx_hal_pcd.c ****   * @{
 808:Drivers/STM32F3xx_HAL_Driver/Src/stm32f3xx_hal_pcd.c ****   */
 809:Drivers/STM32F3xx_HAL_Driver/Src/stm32f3xx_hal_pcd.c **** 
 810:Drivers/STM32F3xx_HAL_Driver/Src/stm32f3xx_hal_pcd.c **** /**
 811:Drivers/STM32F3xx_HAL_Driver/Src/stm32f3xx_hal_pcd.c ****   * @brief  Connect the USB device 
 812:Drivers/STM32F3xx_HAL_Driver/Src/stm32f3xx_hal_pcd.c ****   * @param  hpcd PCD handle
 813:Drivers/STM32F3xx_HAL_Driver/Src/stm32f3xx_hal_pcd.c ****   * @retval HAL status
 814:Drivers/STM32F3xx_HAL_Driver/Src/stm32f3xx_hal_pcd.c ****   */
 815:Drivers/STM32F3xx_HAL_Driver/Src/stm32f3xx_hal_pcd.c **** HAL_StatusTypeDef HAL_PCD_DevConnect(PCD_HandleTypeDef *hpcd)
 816:Drivers/STM32F3xx_HAL_Driver/Src/stm32f3xx_hal_pcd.c **** {
 574              		.loc 1 816 0
 575              		.cfi_startproc
 576              		@ args = 0, pretend = 0, frame = 0
 577              		@ frame_needed = 0, uses_anonymous_args = 0
 578              	.LVL37:
 817:Drivers/STM32F3xx_HAL_Driver/Src/stm32f3xx_hal_pcd.c ****   __HAL_LOCK(hpcd); 
 579              		.loc 1 817 0
 580 0000 90F87033 		ldrb	r3, [r0, #880]	@ zero_extendqisi2
 581 0004 012B     		cmp	r3, #1
 582 0006 0AD0     		beq	.L41
 816:Drivers/STM32F3xx_HAL_Driver/Src/stm32f3xx_hal_pcd.c ****   __HAL_LOCK(hpcd); 
 583              		.loc 1 816 0 discriminator 2
 584 0008 10B5     		push	{r4, lr}
 585              	.LCFI5:
 586              		.cfi_def_cfa_offset 8
 587              		.cfi_offset 4, -8
 588              		.cfi_offset 14, -4
 589 000a 0446     		mov	r4, r0
 590              		.loc 1 817 0 discriminator 2
 591 000c 0121     		movs	r1, #1
 592 000e 80F87013 		strb	r1, [r0, #880]
 818:Drivers/STM32F3xx_HAL_Driver/Src/stm32f3xx_hal_pcd.c ****   
 819:Drivers/STM32F3xx_HAL_Driver/Src/stm32f3xx_hal_pcd.c ****   /* Enabling DP Pull-Down bit to Connect internal pull-up on USB DP line */
 820:Drivers/STM32F3xx_HAL_Driver/Src/stm32f3xx_hal_pcd.c ****    HAL_PCDEx_SetConnectionState(hpcd, 1U);
 593              		.loc 1 820 0 discriminator 2
ARM GAS  C:\Users\acw\AppData\Local\Temp\ccoXZyGi.s 			page 26


 594 0012 FFF7FEFF 		bl	HAL_PCDEx_SetConnectionState
 595              	.LVL38:
 821:Drivers/STM32F3xx_HAL_Driver/Src/stm32f3xx_hal_pcd.c ****   
 822:Drivers/STM32F3xx_HAL_Driver/Src/stm32f3xx_hal_pcd.c ****   __HAL_UNLOCK(hpcd); 
 596              		.loc 1 822 0 discriminator 2
 597 0016 0020     		movs	r0, #0
 598 0018 84F87003 		strb	r0, [r4, #880]
 823:Drivers/STM32F3xx_HAL_Driver/Src/stm32f3xx_hal_pcd.c ****   return HAL_OK;
 824:Drivers/STM32F3xx_HAL_Driver/Src/stm32f3xx_hal_pcd.c **** }
 599              		.loc 1 824 0 discriminator 2
 600 001c 10BD     		pop	{r4, pc}
 601              	.LVL39:
 602              	.L41:
 603              	.LCFI6:
 604              		.cfi_def_cfa_offset 0
 605              		.cfi_restore 4
 606              		.cfi_restore 14
 817:Drivers/STM32F3xx_HAL_Driver/Src/stm32f3xx_hal_pcd.c ****   
 607              		.loc 1 817 0
 608 001e 0220     		movs	r0, #2
 609              	.LVL40:
 610              		.loc 1 824 0
 611 0020 7047     		bx	lr
 612              		.cfi_endproc
 613              	.LFE145:
 615              		.section	.text.HAL_PCD_DevDisconnect,"ax",%progbits
 616              		.align	1
 617              		.global	HAL_PCD_DevDisconnect
 618              		.syntax unified
 619              		.thumb
 620              		.thumb_func
 621              		.fpu fpv4-sp-d16
 623              	HAL_PCD_DevDisconnect:
 624              	.LFB146:
 825:Drivers/STM32F3xx_HAL_Driver/Src/stm32f3xx_hal_pcd.c **** 
 826:Drivers/STM32F3xx_HAL_Driver/Src/stm32f3xx_hal_pcd.c **** /**
 827:Drivers/STM32F3xx_HAL_Driver/Src/stm32f3xx_hal_pcd.c ****   * @brief  Disconnect the USB device 
 828:Drivers/STM32F3xx_HAL_Driver/Src/stm32f3xx_hal_pcd.c ****   * @param  hpcd PCD handle
 829:Drivers/STM32F3xx_HAL_Driver/Src/stm32f3xx_hal_pcd.c ****   * @retval HAL status
 830:Drivers/STM32F3xx_HAL_Driver/Src/stm32f3xx_hal_pcd.c ****   */
 831:Drivers/STM32F3xx_HAL_Driver/Src/stm32f3xx_hal_pcd.c **** HAL_StatusTypeDef HAL_PCD_DevDisconnect(PCD_HandleTypeDef *hpcd)
 832:Drivers/STM32F3xx_HAL_Driver/Src/stm32f3xx_hal_pcd.c **** {
 625              		.loc 1 832 0
 626              		.cfi_startproc
 627              		@ args = 0, pretend = 0, frame = 0
 628              		@ frame_needed = 0, uses_anonymous_args = 0
 629              	.LVL41:
 833:Drivers/STM32F3xx_HAL_Driver/Src/stm32f3xx_hal_pcd.c ****   __HAL_LOCK(hpcd); 
 630              		.loc 1 833 0
 631 0000 90F87033 		ldrb	r3, [r0, #880]	@ zero_extendqisi2
 632 0004 012B     		cmp	r3, #1
 633 0006 0BD0     		beq	.L48
 832:Drivers/STM32F3xx_HAL_Driver/Src/stm32f3xx_hal_pcd.c ****   __HAL_LOCK(hpcd); 
 634              		.loc 1 832 0 discriminator 2
 635 0008 10B5     		push	{r4, lr}
 636              	.LCFI7:
 637              		.cfi_def_cfa_offset 8
ARM GAS  C:\Users\acw\AppData\Local\Temp\ccoXZyGi.s 			page 27


 638              		.cfi_offset 4, -8
 639              		.cfi_offset 14, -4
 640 000a 0446     		mov	r4, r0
 641              		.loc 1 833 0 discriminator 2
 642 000c 0123     		movs	r3, #1
 643 000e 80F87033 		strb	r3, [r0, #880]
 834:Drivers/STM32F3xx_HAL_Driver/Src/stm32f3xx_hal_pcd.c ****   
 835:Drivers/STM32F3xx_HAL_Driver/Src/stm32f3xx_hal_pcd.c ****   /* Disable DP Pull-Down bit*/
 836:Drivers/STM32F3xx_HAL_Driver/Src/stm32f3xx_hal_pcd.c ****   HAL_PCDEx_SetConnectionState(hpcd, 0U);
 644              		.loc 1 836 0 discriminator 2
 645 0012 0021     		movs	r1, #0
 646 0014 FFF7FEFF 		bl	HAL_PCDEx_SetConnectionState
 647              	.LVL42:
 837:Drivers/STM32F3xx_HAL_Driver/Src/stm32f3xx_hal_pcd.c ****   
 838:Drivers/STM32F3xx_HAL_Driver/Src/stm32f3xx_hal_pcd.c ****   __HAL_UNLOCK(hpcd); 
 648              		.loc 1 838 0 discriminator 2
 649 0018 0020     		movs	r0, #0
 650 001a 84F87003 		strb	r0, [r4, #880]
 839:Drivers/STM32F3xx_HAL_Driver/Src/stm32f3xx_hal_pcd.c ****   return HAL_OK;
 840:Drivers/STM32F3xx_HAL_Driver/Src/stm32f3xx_hal_pcd.c **** }
 651              		.loc 1 840 0 discriminator 2
 652 001e 10BD     		pop	{r4, pc}
 653              	.LVL43:
 654              	.L48:
 655              	.LCFI8:
 656              		.cfi_def_cfa_offset 0
 657              		.cfi_restore 4
 658              		.cfi_restore 14
 833:Drivers/STM32F3xx_HAL_Driver/Src/stm32f3xx_hal_pcd.c ****   
 659              		.loc 1 833 0
 660 0020 0220     		movs	r0, #2
 661              	.LVL44:
 662              		.loc 1 840 0
 663 0022 7047     		bx	lr
 664              		.cfi_endproc
 665              	.LFE146:
 667              		.section	.text.HAL_PCD_SetAddress,"ax",%progbits
 668              		.align	1
 669              		.global	HAL_PCD_SetAddress
 670              		.syntax unified
 671              		.thumb
 672              		.thumb_func
 673              		.fpu fpv4-sp-d16
 675              	HAL_PCD_SetAddress:
 676              	.LFB147:
 841:Drivers/STM32F3xx_HAL_Driver/Src/stm32f3xx_hal_pcd.c **** 
 842:Drivers/STM32F3xx_HAL_Driver/Src/stm32f3xx_hal_pcd.c **** /**
 843:Drivers/STM32F3xx_HAL_Driver/Src/stm32f3xx_hal_pcd.c ****   * @brief  Set the USB Device address 
 844:Drivers/STM32F3xx_HAL_Driver/Src/stm32f3xx_hal_pcd.c ****   * @param  hpcd PCD handle
 845:Drivers/STM32F3xx_HAL_Driver/Src/stm32f3xx_hal_pcd.c ****   * @param  address new device address
 846:Drivers/STM32F3xx_HAL_Driver/Src/stm32f3xx_hal_pcd.c ****   * @retval HAL status
 847:Drivers/STM32F3xx_HAL_Driver/Src/stm32f3xx_hal_pcd.c ****   */
 848:Drivers/STM32F3xx_HAL_Driver/Src/stm32f3xx_hal_pcd.c **** HAL_StatusTypeDef HAL_PCD_SetAddress(PCD_HandleTypeDef *hpcd, uint8_t address)
 849:Drivers/STM32F3xx_HAL_Driver/Src/stm32f3xx_hal_pcd.c **** {
 677              		.loc 1 849 0
 678              		.cfi_startproc
 679              		@ args = 0, pretend = 0, frame = 0
ARM GAS  C:\Users\acw\AppData\Local\Temp\ccoXZyGi.s 			page 28


 680              		@ frame_needed = 0, uses_anonymous_args = 0
 681              		@ link register save eliminated.
 682              	.LVL45:
 850:Drivers/STM32F3xx_HAL_Driver/Src/stm32f3xx_hal_pcd.c ****    __HAL_LOCK(hpcd); 
 683              		.loc 1 850 0
 684 0000 90F87033 		ldrb	r3, [r0, #880]	@ zero_extendqisi2
 685 0004 012B     		cmp	r3, #1
 686 0006 0FD0     		beq	.L57
 687              		.loc 1 850 0 is_stmt 0 discriminator 2
 688 0008 0123     		movs	r3, #1
 689 000a 80F87033 		strb	r3, [r0, #880]
 851:Drivers/STM32F3xx_HAL_Driver/Src/stm32f3xx_hal_pcd.c **** 
 852:Drivers/STM32F3xx_HAL_Driver/Src/stm32f3xx_hal_pcd.c ****    if(address == 0U) 
 690              		.loc 1 852 0 is_stmt 1 discriminator 2
 691 000e 41B9     		cbnz	r1, .L55
 853:Drivers/STM32F3xx_HAL_Driver/Src/stm32f3xx_hal_pcd.c ****    {
 854:Drivers/STM32F3xx_HAL_Driver/Src/stm32f3xx_hal_pcd.c ****      /* set device address and enable function */
 855:Drivers/STM32F3xx_HAL_Driver/Src/stm32f3xx_hal_pcd.c ****      hpcd->Instance->DADDR = USB_DADDR_EF;
 692              		.loc 1 855 0
 693 0010 0368     		ldr	r3, [r0]
 694 0012 8022     		movs	r2, #128
 695 0014 A3F84C20 		strh	r2, [r3, #76]	@ movhi
 696              	.L56:
 856:Drivers/STM32F3xx_HAL_Driver/Src/stm32f3xx_hal_pcd.c ****    }
 857:Drivers/STM32F3xx_HAL_Driver/Src/stm32f3xx_hal_pcd.c ****    else /* USB Address will be applied later */
 858:Drivers/STM32F3xx_HAL_Driver/Src/stm32f3xx_hal_pcd.c ****    {
 859:Drivers/STM32F3xx_HAL_Driver/Src/stm32f3xx_hal_pcd.c ****      hpcd->USB_Address = address;
 860:Drivers/STM32F3xx_HAL_Driver/Src/stm32f3xx_hal_pcd.c ****    }
 861:Drivers/STM32F3xx_HAL_Driver/Src/stm32f3xx_hal_pcd.c **** 
 862:Drivers/STM32F3xx_HAL_Driver/Src/stm32f3xx_hal_pcd.c ****   __HAL_UNLOCK(hpcd);   
 697              		.loc 1 862 0
 698 0018 0023     		movs	r3, #0
 699 001a 80F87033 		strb	r3, [r0, #880]
 863:Drivers/STM32F3xx_HAL_Driver/Src/stm32f3xx_hal_pcd.c ****   return HAL_OK;
 700              		.loc 1 863 0
 701 001e 1846     		mov	r0, r3
 702              	.LVL46:
 703 0020 7047     		bx	lr
 704              	.LVL47:
 705              	.L55:
 859:Drivers/STM32F3xx_HAL_Driver/Src/stm32f3xx_hal_pcd.c ****    }
 706              		.loc 1 859 0
 707 0022 80F82410 		strb	r1, [r0, #36]
 708 0026 F7E7     		b	.L56
 709              	.L57:
 850:Drivers/STM32F3xx_HAL_Driver/Src/stm32f3xx_hal_pcd.c **** 
 710              		.loc 1 850 0
 711 0028 0220     		movs	r0, #2
 712              	.LVL48:
 864:Drivers/STM32F3xx_HAL_Driver/Src/stm32f3xx_hal_pcd.c **** }
 713              		.loc 1 864 0
 714 002a 7047     		bx	lr
 715              		.cfi_endproc
 716              	.LFE147:
 718              		.section	.text.HAL_PCD_EP_Open,"ax",%progbits
 719              		.align	1
 720              		.global	HAL_PCD_EP_Open
ARM GAS  C:\Users\acw\AppData\Local\Temp\ccoXZyGi.s 			page 29


 721              		.syntax unified
 722              		.thumb
 723              		.thumb_func
 724              		.fpu fpv4-sp-d16
 726              	HAL_PCD_EP_Open:
 727              	.LFB148:
 865:Drivers/STM32F3xx_HAL_Driver/Src/stm32f3xx_hal_pcd.c **** /**
 866:Drivers/STM32F3xx_HAL_Driver/Src/stm32f3xx_hal_pcd.c ****   * @brief  Open and configure an endpoint
 867:Drivers/STM32F3xx_HAL_Driver/Src/stm32f3xx_hal_pcd.c ****   * @param  hpcd PCD handle
 868:Drivers/STM32F3xx_HAL_Driver/Src/stm32f3xx_hal_pcd.c ****   * @param  ep_addr endpoint address
 869:Drivers/STM32F3xx_HAL_Driver/Src/stm32f3xx_hal_pcd.c ****   * @param  ep_mps endpoint max packet size
 870:Drivers/STM32F3xx_HAL_Driver/Src/stm32f3xx_hal_pcd.c ****   * @param  ep_type endpoint type   
 871:Drivers/STM32F3xx_HAL_Driver/Src/stm32f3xx_hal_pcd.c ****   * @retval HAL status
 872:Drivers/STM32F3xx_HAL_Driver/Src/stm32f3xx_hal_pcd.c ****   */
 873:Drivers/STM32F3xx_HAL_Driver/Src/stm32f3xx_hal_pcd.c **** HAL_StatusTypeDef HAL_PCD_EP_Open(PCD_HandleTypeDef *hpcd, uint8_t ep_addr, uint16_t ep_mps, uint8_
 874:Drivers/STM32F3xx_HAL_Driver/Src/stm32f3xx_hal_pcd.c **** {
 728              		.loc 1 874 0
 729              		.cfi_startproc
 730              		@ args = 0, pretend = 0, frame = 0
 731              		@ frame_needed = 0, uses_anonymous_args = 0
 732              		@ link register save eliminated.
 733              	.LVL49:
 734 0000 70B4     		push	{r4, r5, r6}
 735              	.LCFI9:
 736              		.cfi_def_cfa_offset 12
 737              		.cfi_offset 4, -12
 738              		.cfi_offset 5, -8
 739              		.cfi_offset 6, -4
 740              	.LVL50:
 875:Drivers/STM32F3xx_HAL_Driver/Src/stm32f3xx_hal_pcd.c ****   HAL_StatusTypeDef  ret = HAL_OK;
 876:Drivers/STM32F3xx_HAL_Driver/Src/stm32f3xx_hal_pcd.c ****   PCD_EPTypeDef *ep;
 877:Drivers/STM32F3xx_HAL_Driver/Src/stm32f3xx_hal_pcd.c ****   
 878:Drivers/STM32F3xx_HAL_Driver/Src/stm32f3xx_hal_pcd.c ****   if ((ep_addr & 0x80U) == 0x80U)
 741              		.loc 1 878 0
 742 0002 4DB2     		sxtb	r5, r1
 743 0004 002D     		cmp	r5, #0
 744 0006 1EDB     		blt	.L84
 879:Drivers/STM32F3xx_HAL_Driver/Src/stm32f3xx_hal_pcd.c ****   {
 880:Drivers/STM32F3xx_HAL_Driver/Src/stm32f3xx_hal_pcd.c ****     ep = &hpcd->IN_ep[ep_addr & 0x7FU];
 881:Drivers/STM32F3xx_HAL_Driver/Src/stm32f3xx_hal_pcd.c ****   }
 882:Drivers/STM32F3xx_HAL_Driver/Src/stm32f3xx_hal_pcd.c ****   else
 883:Drivers/STM32F3xx_HAL_Driver/Src/stm32f3xx_hal_pcd.c ****   {
 884:Drivers/STM32F3xx_HAL_Driver/Src/stm32f3xx_hal_pcd.c ****     ep = &hpcd->OUT_ep[ep_addr & 0x7FU];
 745              		.loc 1 884 0
 746 0008 01F07F06 		and	r6, r1, #127
 747 000c C6EBC606 		rsb	r6, r6, r6, lsl #3
 748 0010 B400     		lsls	r4, r6, #2
 749 0012 04F5E474 		add	r4, r4, #456
 750 0016 0444     		add	r4, r4, r0
 751 0018 0434     		adds	r4, r4, #4
 752              	.LVL51:
 753              	.L60:
 885:Drivers/STM32F3xx_HAL_Driver/Src/stm32f3xx_hal_pcd.c ****   }
 886:Drivers/STM32F3xx_HAL_Driver/Src/stm32f3xx_hal_pcd.c ****   ep->num   = ep_addr & 0x7FU;
 754              		.loc 1 886 0
 755 001a 01F07F01 		and	r1, r1, #127
 756              	.LVL52:
ARM GAS  C:\Users\acw\AppData\Local\Temp\ccoXZyGi.s 			page 30


 757 001e 2170     		strb	r1, [r4]
 887:Drivers/STM32F3xx_HAL_Driver/Src/stm32f3xx_hal_pcd.c ****   
 888:Drivers/STM32F3xx_HAL_Driver/Src/stm32f3xx_hal_pcd.c ****   ep->is_in = (0x80U & ep_addr) != 0U;
 758              		.loc 1 888 0
 759 0020 ED0F     		lsrs	r5, r5, #31
 760              	.LVL53:
 761 0022 6570     		strb	r5, [r4, #1]
 889:Drivers/STM32F3xx_HAL_Driver/Src/stm32f3xx_hal_pcd.c ****   ep->maxpacket = ep_mps;
 762              		.loc 1 889 0
 763 0024 E260     		str	r2, [r4, #12]
 890:Drivers/STM32F3xx_HAL_Driver/Src/stm32f3xx_hal_pcd.c ****   ep->type = ep_type;
 764              		.loc 1 890 0
 765 0026 E370     		strb	r3, [r4, #3]
 891:Drivers/STM32F3xx_HAL_Driver/Src/stm32f3xx_hal_pcd.c ****   
 892:Drivers/STM32F3xx_HAL_Driver/Src/stm32f3xx_hal_pcd.c ****   __HAL_LOCK(hpcd); 
 766              		.loc 1 892 0
 767 0028 90F87033 		ldrb	r3, [r0, #880]	@ zero_extendqisi2
 768              	.LVL54:
 769 002c 012B     		cmp	r3, #1
 770 002e 00F0B881 		beq	.L82
 771              		.loc 1 892 0 is_stmt 0 discriminator 2
 772 0032 0123     		movs	r3, #1
 773 0034 80F87033 		strb	r3, [r0, #880]
 774              	.LVL55:
 893:Drivers/STM32F3xx_HAL_Driver/Src/stm32f3xx_hal_pcd.c **** 
 894:Drivers/STM32F3xx_HAL_Driver/Src/stm32f3xx_hal_pcd.c ****   /* initialize Endpoint */
 895:Drivers/STM32F3xx_HAL_Driver/Src/stm32f3xx_hal_pcd.c ****   switch (ep->type)
 775              		.loc 1 895 0 is_stmt 1 discriminator 2
 776 0038 E378     		ldrb	r3, [r4, #3]	@ zero_extendqisi2
 777 003a 032B     		cmp	r3, #3
 778 003c 18D8     		bhi	.L62
 779 003e DFE803F0 		tbb	[pc, r3]
 780              	.LVL56:
 781              	.L64:
 782 0042 0A       		.byte	(.L63-.L64)/2
 783 0043 7F       		.byte	(.L65-.L64)/2
 784 0044 64       		.byte	(.L66-.L64)/2
 785 0045 71       		.byte	(.L67-.L64)/2
 786              		.p2align 1
 787              	.L84:
 880:Drivers/STM32F3xx_HAL_Driver/Src/stm32f3xx_hal_pcd.c ****   }
 788              		.loc 1 880 0
 789 0046 01F07F06 		and	r6, r1, #127
 790 004a C6EBC606 		rsb	r6, r6, r6, lsl #3
 791 004e B400     		lsls	r4, r6, #2
 792 0050 2834     		adds	r4, r4, #40
 793 0052 0444     		add	r4, r4, r0
 794              	.LVL57:
 795 0054 E1E7     		b	.L60
 796              	.LVL58:
 797              	.L63:
 896:Drivers/STM32F3xx_HAL_Driver/Src/stm32f3xx_hal_pcd.c ****   {
 897:Drivers/STM32F3xx_HAL_Driver/Src/stm32f3xx_hal_pcd.c ****   case PCD_EP_TYPE_CTRL:
 898:Drivers/STM32F3xx_HAL_Driver/Src/stm32f3xx_hal_pcd.c ****     PCD_SET_EPTYPE(hpcd->Instance, ep->num, USB_EP_CONTROL);
 798              		.loc 1 898 0
 799 0056 0268     		ldr	r2, [r0]
 800 0058 2178     		ldrb	r1, [r4]	@ zero_extendqisi2
ARM GAS  C:\Users\acw\AppData\Local\Temp\ccoXZyGi.s 			page 31


 801 005a 32F82130 		ldrh	r3, [r2, r1, lsl #2]
 802 005e 9BB2     		uxth	r3, r3
 803 0060 23F4EC43 		bic	r3, r3, #30208
 804 0064 23F07003 		bic	r3, r3, #112
 805 0068 43F40073 		orr	r3, r3, #512
 806 006c 22F82130 		strh	r3, [r2, r1, lsl #2]	@ movhi
 807              	.L62:
 899:Drivers/STM32F3xx_HAL_Driver/Src/stm32f3xx_hal_pcd.c ****     break;
 900:Drivers/STM32F3xx_HAL_Driver/Src/stm32f3xx_hal_pcd.c ****   case PCD_EP_TYPE_BULK:
 901:Drivers/STM32F3xx_HAL_Driver/Src/stm32f3xx_hal_pcd.c ****     PCD_SET_EPTYPE(hpcd->Instance, ep->num, USB_EP_BULK);
 902:Drivers/STM32F3xx_HAL_Driver/Src/stm32f3xx_hal_pcd.c ****     break;
 903:Drivers/STM32F3xx_HAL_Driver/Src/stm32f3xx_hal_pcd.c ****   case PCD_EP_TYPE_INTR:
 904:Drivers/STM32F3xx_HAL_Driver/Src/stm32f3xx_hal_pcd.c ****     PCD_SET_EPTYPE(hpcd->Instance, ep->num, USB_EP_INTERRUPT);
 905:Drivers/STM32F3xx_HAL_Driver/Src/stm32f3xx_hal_pcd.c ****     break;
 906:Drivers/STM32F3xx_HAL_Driver/Src/stm32f3xx_hal_pcd.c ****   case PCD_EP_TYPE_ISOC:
 907:Drivers/STM32F3xx_HAL_Driver/Src/stm32f3xx_hal_pcd.c ****     PCD_SET_EPTYPE(hpcd->Instance, ep->num, USB_EP_ISOCHRONOUS);
 908:Drivers/STM32F3xx_HAL_Driver/Src/stm32f3xx_hal_pcd.c ****     break;
 909:Drivers/STM32F3xx_HAL_Driver/Src/stm32f3xx_hal_pcd.c ****   default:
 910:Drivers/STM32F3xx_HAL_Driver/Src/stm32f3xx_hal_pcd.c ****     break;
 911:Drivers/STM32F3xx_HAL_Driver/Src/stm32f3xx_hal_pcd.c ****   } 
 912:Drivers/STM32F3xx_HAL_Driver/Src/stm32f3xx_hal_pcd.c ****   
 913:Drivers/STM32F3xx_HAL_Driver/Src/stm32f3xx_hal_pcd.c ****   PCD_SET_EP_ADDRESS(hpcd->Instance, ep->num, ep->num);
 808              		.loc 1 913 0
 809 0070 0168     		ldr	r1, [r0]
 810 0072 2278     		ldrb	r2, [r4]	@ zero_extendqisi2
 811 0074 31F82230 		ldrh	r3, [r1, r2, lsl #2]
 812 0078 23F0F003 		bic	r3, r3, #240
 813 007c 1B05     		lsls	r3, r3, #20
 814 007e 1B0D     		lsrs	r3, r3, #20
 815 0080 1343     		orrs	r3, r3, r2
 816 0082 43F40043 		orr	r3, r3, #32768
 817 0086 43F08003 		orr	r3, r3, #128
 818 008a 21F82230 		strh	r3, [r1, r2, lsl #2]	@ movhi
 914:Drivers/STM32F3xx_HAL_Driver/Src/stm32f3xx_hal_pcd.c ****   
 915:Drivers/STM32F3xx_HAL_Driver/Src/stm32f3xx_hal_pcd.c ****   if (ep->doublebuffer == 0U) 
 819              		.loc 1 915 0
 820 008e A37A     		ldrb	r3, [r4, #10]	@ zero_extendqisi2
 821 0090 002B     		cmp	r3, #0
 822 0092 40F0BA80 		bne	.L68
 916:Drivers/STM32F3xx_HAL_Driver/Src/stm32f3xx_hal_pcd.c ****   {
 917:Drivers/STM32F3xx_HAL_Driver/Src/stm32f3xx_hal_pcd.c ****     if (ep->is_in)
 823              		.loc 1 917 0
 824 0096 6378     		ldrb	r3, [r4, #1]	@ zero_extendqisi2
 825 0098 002B     		cmp	r3, #0
 826 009a 5FD0     		beq	.L69
 918:Drivers/STM32F3xx_HAL_Driver/Src/stm32f3xx_hal_pcd.c ****     {
 919:Drivers/STM32F3xx_HAL_Driver/Src/stm32f3xx_hal_pcd.c ****       /*Set the endpoint Transmit buffer address */
 920:Drivers/STM32F3xx_HAL_Driver/Src/stm32f3xx_hal_pcd.c ****       PCD_SET_EP_TX_ADDRESS(hpcd->Instance, ep->num, ep->pmaadress);
 827              		.loc 1 920 0
 828 009c A288     		ldrh	r2, [r4, #4]
 829 009e 0368     		ldr	r3, [r0]
 830 00a0 B3F85010 		ldrh	r1, [r3, #80]
 831 00a4 2578     		ldrb	r5, [r4]	@ zero_extendqisi2
 832 00a6 01EBC501 		add	r1, r1, r5, lsl #3
 833 00aa 03EB4103 		add	r3, r3, r1, lsl #1
 834 00ae 22F00102 		bic	r2, r2, #1
 835 00b2 A3F80024 		strh	r2, [r3, #1024]	@ movhi
ARM GAS  C:\Users\acw\AppData\Local\Temp\ccoXZyGi.s 			page 32


 921:Drivers/STM32F3xx_HAL_Driver/Src/stm32f3xx_hal_pcd.c ****       PCD_CLEAR_TX_DTOG(hpcd->Instance, ep->num)
 836              		.loc 1 921 0
 837 00b6 0268     		ldr	r2, [r0]
 838 00b8 2178     		ldrb	r1, [r4]	@ zero_extendqisi2
 839 00ba 32F82130 		ldrh	r3, [r2, r1, lsl #2]
 840 00be 13F0400F 		tst	r3, #64
 841 00c2 0BD0     		beq	.L70
 842              		.loc 1 921 0 is_stmt 0 discriminator 1
 843 00c4 32F82130 		ldrh	r3, [r2, r1, lsl #2]
 844 00c8 23F0F003 		bic	r3, r3, #240
 845 00cc 1B05     		lsls	r3, r3, #20
 846 00ce 1B0D     		lsrs	r3, r3, #20
 847 00d0 43F40043 		orr	r3, r3, #32768
 848 00d4 43F0C003 		orr	r3, r3, #192
 849 00d8 22F82130 		strh	r3, [r2, r1, lsl #2]	@ movhi
 850              	.L70:
 851              	.LBB2:
 922:Drivers/STM32F3xx_HAL_Driver/Src/stm32f3xx_hal_pcd.c ****       /* Configure NAK status for the Endpoint*/
 923:Drivers/STM32F3xx_HAL_Driver/Src/stm32f3xx_hal_pcd.c ****       PCD_SET_EP_TX_STATUS(hpcd->Instance, ep->num, USB_EP_TX_NAK) 
 852              		.loc 1 923 0 is_stmt 1
 853 00dc 0268     		ldr	r2, [r0]
 854 00de 2178     		ldrb	r1, [r4]	@ zero_extendqisi2
 855 00e0 32F82130 		ldrh	r3, [r2, r1, lsl #2]
 856 00e4 9BB2     		uxth	r3, r3
 857 00e6 23F4E043 		bic	r3, r3, #28672
 858 00ea 23F04003 		bic	r3, r3, #64
 859              	.LVL59:
 860 00ee 83F02003 		eor	r3, r3, #32
 861              	.LVL60:
 862 00f2 43F40043 		orr	r3, r3, #32768
 863              	.LVL61:
 864 00f6 43F08003 		orr	r3, r3, #128
 865 00fa 22F82130 		strh	r3, [r2, r1, lsl #2]	@ movhi
 866              	.L71:
 867              	.LBE2:
 924:Drivers/STM32F3xx_HAL_Driver/Src/stm32f3xx_hal_pcd.c ****     }
 925:Drivers/STM32F3xx_HAL_Driver/Src/stm32f3xx_hal_pcd.c ****     else
 926:Drivers/STM32F3xx_HAL_Driver/Src/stm32f3xx_hal_pcd.c ****     {
 927:Drivers/STM32F3xx_HAL_Driver/Src/stm32f3xx_hal_pcd.c ****       /*Set the endpoint Receive buffer address */
 928:Drivers/STM32F3xx_HAL_Driver/Src/stm32f3xx_hal_pcd.c ****       PCD_SET_EP_RX_ADDRESS(hpcd->Instance, ep->num, ep->pmaadress);
 929:Drivers/STM32F3xx_HAL_Driver/Src/stm32f3xx_hal_pcd.c ****       /*Set the endpoint Receive buffer counter*/
 930:Drivers/STM32F3xx_HAL_Driver/Src/stm32f3xx_hal_pcd.c ****       PCD_SET_EP_RX_CNT(hpcd->Instance, ep->num, ep->maxpacket)
 931:Drivers/STM32F3xx_HAL_Driver/Src/stm32f3xx_hal_pcd.c ****       PCD_CLEAR_RX_DTOG(hpcd->Instance, ep->num)
 932:Drivers/STM32F3xx_HAL_Driver/Src/stm32f3xx_hal_pcd.c ****       /* Configure VALID status for the Endpoint*/
 933:Drivers/STM32F3xx_HAL_Driver/Src/stm32f3xx_hal_pcd.c ****       PCD_SET_EP_RX_STATUS(hpcd->Instance, ep->num, USB_EP_RX_VALID)
 934:Drivers/STM32F3xx_HAL_Driver/Src/stm32f3xx_hal_pcd.c ****     }
 935:Drivers/STM32F3xx_HAL_Driver/Src/stm32f3xx_hal_pcd.c ****   }
 936:Drivers/STM32F3xx_HAL_Driver/Src/stm32f3xx_hal_pcd.c ****   /*Double Buffer*/
 937:Drivers/STM32F3xx_HAL_Driver/Src/stm32f3xx_hal_pcd.c ****   else
 938:Drivers/STM32F3xx_HAL_Driver/Src/stm32f3xx_hal_pcd.c ****   {
 939:Drivers/STM32F3xx_HAL_Driver/Src/stm32f3xx_hal_pcd.c ****     /*Set the endpoint as double buffered*/
 940:Drivers/STM32F3xx_HAL_Driver/Src/stm32f3xx_hal_pcd.c ****     PCD_SET_EP_DBUF(hpcd->Instance, ep->num);
 941:Drivers/STM32F3xx_HAL_Driver/Src/stm32f3xx_hal_pcd.c ****     /*Set buffer address for double buffered mode*/
 942:Drivers/STM32F3xx_HAL_Driver/Src/stm32f3xx_hal_pcd.c ****     PCD_SET_EP_DBUF_ADDR(hpcd->Instance, ep->num,ep->pmaaddr0, ep->pmaaddr1)
 943:Drivers/STM32F3xx_HAL_Driver/Src/stm32f3xx_hal_pcd.c ****     
 944:Drivers/STM32F3xx_HAL_Driver/Src/stm32f3xx_hal_pcd.c ****     if (ep->is_in==0U)
 945:Drivers/STM32F3xx_HAL_Driver/Src/stm32f3xx_hal_pcd.c ****     {
ARM GAS  C:\Users\acw\AppData\Local\Temp\ccoXZyGi.s 			page 33


 946:Drivers/STM32F3xx_HAL_Driver/Src/stm32f3xx_hal_pcd.c ****       /* Clear the data toggle bits for the endpoint IN/OUT*/
 947:Drivers/STM32F3xx_HAL_Driver/Src/stm32f3xx_hal_pcd.c ****       PCD_CLEAR_RX_DTOG(hpcd->Instance, ep->num)
 948:Drivers/STM32F3xx_HAL_Driver/Src/stm32f3xx_hal_pcd.c ****       PCD_CLEAR_TX_DTOG(hpcd->Instance, ep->num)
 949:Drivers/STM32F3xx_HAL_Driver/Src/stm32f3xx_hal_pcd.c ****       
 950:Drivers/STM32F3xx_HAL_Driver/Src/stm32f3xx_hal_pcd.c ****       /* Reset value of the data toggle bits for the endpoint out*/
 951:Drivers/STM32F3xx_HAL_Driver/Src/stm32f3xx_hal_pcd.c ****       PCD_TX_DTOG(hpcd->Instance, ep->num);
 952:Drivers/STM32F3xx_HAL_Driver/Src/stm32f3xx_hal_pcd.c ****       
 953:Drivers/STM32F3xx_HAL_Driver/Src/stm32f3xx_hal_pcd.c ****       PCD_SET_EP_RX_STATUS(hpcd->Instance, ep->num, USB_EP_RX_VALID)
 954:Drivers/STM32F3xx_HAL_Driver/Src/stm32f3xx_hal_pcd.c ****       PCD_SET_EP_TX_STATUS(hpcd->Instance, ep->num, USB_EP_TX_DIS)
 955:Drivers/STM32F3xx_HAL_Driver/Src/stm32f3xx_hal_pcd.c ****     }
 956:Drivers/STM32F3xx_HAL_Driver/Src/stm32f3xx_hal_pcd.c ****     else
 957:Drivers/STM32F3xx_HAL_Driver/Src/stm32f3xx_hal_pcd.c ****     {
 958:Drivers/STM32F3xx_HAL_Driver/Src/stm32f3xx_hal_pcd.c ****       /* Clear the data toggle bits for the endpoint IN/OUT*/
 959:Drivers/STM32F3xx_HAL_Driver/Src/stm32f3xx_hal_pcd.c ****       PCD_CLEAR_RX_DTOG(hpcd->Instance, ep->num)
 960:Drivers/STM32F3xx_HAL_Driver/Src/stm32f3xx_hal_pcd.c ****       PCD_CLEAR_TX_DTOG(hpcd->Instance, ep->num)
 961:Drivers/STM32F3xx_HAL_Driver/Src/stm32f3xx_hal_pcd.c ****       PCD_RX_DTOG(hpcd->Instance, ep->num);
 962:Drivers/STM32F3xx_HAL_Driver/Src/stm32f3xx_hal_pcd.c ****       /* Configure DISABLE status for the Endpoint*/
 963:Drivers/STM32F3xx_HAL_Driver/Src/stm32f3xx_hal_pcd.c ****       PCD_SET_EP_TX_STATUS(hpcd->Instance, ep->num, USB_EP_TX_DIS)
 964:Drivers/STM32F3xx_HAL_Driver/Src/stm32f3xx_hal_pcd.c ****       PCD_SET_EP_RX_STATUS(hpcd->Instance, ep->num, USB_EP_RX_DIS)
 965:Drivers/STM32F3xx_HAL_Driver/Src/stm32f3xx_hal_pcd.c ****     }
 966:Drivers/STM32F3xx_HAL_Driver/Src/stm32f3xx_hal_pcd.c ****   } 
 967:Drivers/STM32F3xx_HAL_Driver/Src/stm32f3xx_hal_pcd.c ****   
 968:Drivers/STM32F3xx_HAL_Driver/Src/stm32f3xx_hal_pcd.c ****   __HAL_UNLOCK(hpcd);   
 868              		.loc 1 968 0
 869 00fe 0023     		movs	r3, #0
 870 0100 80F87033 		strb	r3, [r0, #880]
 969:Drivers/STM32F3xx_HAL_Driver/Src/stm32f3xx_hal_pcd.c ****   return ret;
 871              		.loc 1 969 0
 872 0104 1846     		mov	r0, r3
 873              	.LVL62:
 874              	.L61:
 970:Drivers/STM32F3xx_HAL_Driver/Src/stm32f3xx_hal_pcd.c **** }
 875              		.loc 1 970 0
 876 0106 70BC     		pop	{r4, r5, r6}
 877              	.LCFI10:
 878              		.cfi_remember_state
 879              		.cfi_restore 6
 880              		.cfi_restore 5
 881              		.cfi_restore 4
 882              		.cfi_def_cfa_offset 0
 883              	.LVL63:
 884 0108 7047     		bx	lr
 885              	.LVL64:
 886              	.L66:
 887              	.LCFI11:
 888              		.cfi_restore_state
 901:Drivers/STM32F3xx_HAL_Driver/Src/stm32f3xx_hal_pcd.c ****     break;
 889              		.loc 1 901 0
 890 010a 0268     		ldr	r2, [r0]
 891 010c 2178     		ldrb	r1, [r4]	@ zero_extendqisi2
 892 010e 32F82130 		ldrh	r3, [r2, r1, lsl #2]
 893 0112 9BB2     		uxth	r3, r3
 894 0114 23F4EC43 		bic	r3, r3, #30208
 895 0118 23F07003 		bic	r3, r3, #112
 896 011c 9BB2     		uxth	r3, r3
 897 011e 22F82130 		strh	r3, [r2, r1, lsl #2]	@ movhi
 902:Drivers/STM32F3xx_HAL_Driver/Src/stm32f3xx_hal_pcd.c ****   case PCD_EP_TYPE_INTR:
ARM GAS  C:\Users\acw\AppData\Local\Temp\ccoXZyGi.s 			page 34


 898              		.loc 1 902 0
 899 0122 A5E7     		b	.L62
 900              	.L67:
 904:Drivers/STM32F3xx_HAL_Driver/Src/stm32f3xx_hal_pcd.c ****     break;
 901              		.loc 1 904 0
 902 0124 0268     		ldr	r2, [r0]
 903 0126 2178     		ldrb	r1, [r4]	@ zero_extendqisi2
 904 0128 32F82130 		ldrh	r3, [r2, r1, lsl #2]
 905 012c 9BB2     		uxth	r3, r3
 906 012e 23F4EC43 		bic	r3, r3, #30208
 907 0132 23F07003 		bic	r3, r3, #112
 908 0136 43F4C063 		orr	r3, r3, #1536
 909 013a 22F82130 		strh	r3, [r2, r1, lsl #2]	@ movhi
 905:Drivers/STM32F3xx_HAL_Driver/Src/stm32f3xx_hal_pcd.c ****   case PCD_EP_TYPE_ISOC:
 910              		.loc 1 905 0
 911 013e 97E7     		b	.L62
 912              	.L65:
 907:Drivers/STM32F3xx_HAL_Driver/Src/stm32f3xx_hal_pcd.c ****     break;
 913              		.loc 1 907 0
 914 0140 0268     		ldr	r2, [r0]
 915 0142 2178     		ldrb	r1, [r4]	@ zero_extendqisi2
 916 0144 32F82130 		ldrh	r3, [r2, r1, lsl #2]
 917 0148 9BB2     		uxth	r3, r3
 918 014a 23F4EC43 		bic	r3, r3, #30208
 919 014e 23F07003 		bic	r3, r3, #112
 920 0152 43F48063 		orr	r3, r3, #1024
 921 0156 22F82130 		strh	r3, [r2, r1, lsl #2]	@ movhi
 908:Drivers/STM32F3xx_HAL_Driver/Src/stm32f3xx_hal_pcd.c ****   default:
 922              		.loc 1 908 0
 923 015a 89E7     		b	.L62
 924              	.L69:
 928:Drivers/STM32F3xx_HAL_Driver/Src/stm32f3xx_hal_pcd.c ****       /*Set the endpoint Receive buffer counter*/
 925              		.loc 1 928 0
 926 015c A188     		ldrh	r1, [r4, #4]
 927 015e 0268     		ldr	r2, [r0]
 928 0160 B2F85030 		ldrh	r3, [r2, #80]
 929 0164 2578     		ldrb	r5, [r4]	@ zero_extendqisi2
 930 0166 03EBC503 		add	r3, r3, r5, lsl #3
 931 016a 0433     		adds	r3, r3, #4
 932 016c 02EB4303 		add	r3, r2, r3, lsl #1
 933 0170 21F00102 		bic	r2, r1, #1
 934 0174 A3F80024 		strh	r2, [r3, #1024]	@ movhi
 935              	.LBB3:
 930:Drivers/STM32F3xx_HAL_Driver/Src/stm32f3xx_hal_pcd.c ****       PCD_CLEAR_RX_DTOG(hpcd->Instance, ep->num)
 936              		.loc 1 930 0
 937 0178 0268     		ldr	r2, [r0]
 938 017a B2F85030 		ldrh	r3, [r2, #80]
 939 017e 2178     		ldrb	r1, [r4]	@ zero_extendqisi2
 940 0180 03EBC103 		add	r3, r3, r1, lsl #3
 941 0184 0633     		adds	r3, r3, #6
 942 0186 02EB4303 		add	r3, r2, r3, lsl #1
 943              	.LVL65:
 944              	.LBB4:
 945 018a E268     		ldr	r2, [r4, #12]
 946 018c 3E2A     		cmp	r2, #62
 947 018e 31D9     		bls	.L72
 930:Drivers/STM32F3xx_HAL_Driver/Src/stm32f3xx_hal_pcd.c ****       PCD_CLEAR_RX_DTOG(hpcd->Instance, ep->num)
ARM GAS  C:\Users\acw\AppData\Local\Temp\ccoXZyGi.s 			page 35


 948              		.loc 1 930 0 is_stmt 0 discriminator 1
 949 0190 C2F34F11 		ubfx	r1, r2, #5, #16
 950              	.LVL66:
 951 0194 12F01F0F 		tst	r2, #31
 952 0198 01D1     		bne	.L73
 930:Drivers/STM32F3xx_HAL_Driver/Src/stm32f3xx_hal_pcd.c ****       PCD_CLEAR_RX_DTOG(hpcd->Instance, ep->num)
 953              		.loc 1 930 0 discriminator 3
 954 019a 0139     		subs	r1, r1, #1
 955              	.LVL67:
 956 019c 89B2     		uxth	r1, r1
 957              	.LVL68:
 958              	.L73:
 930:Drivers/STM32F3xx_HAL_Driver/Src/stm32f3xx_hal_pcd.c ****       PCD_CLEAR_RX_DTOG(hpcd->Instance, ep->num)
 959              		.loc 1 930 0 discriminator 5
 960 019e 6FEAC161 		mvn	r1, r1, lsl #27
 961              	.LVL69:
 962 01a2 6FEA5141 		mvn	r1, r1, lsr #17
 963 01a6 A3F80014 		strh	r1, [r3, #1024]	@ movhi
 964              	.L74:
 965              	.LBE4:
 966              	.LBE3:
 931:Drivers/STM32F3xx_HAL_Driver/Src/stm32f3xx_hal_pcd.c ****       /* Configure VALID status for the Endpoint*/
 967              		.loc 1 931 0 is_stmt 1
 968 01aa 0268     		ldr	r2, [r0]
 969 01ac 2178     		ldrb	r1, [r4]	@ zero_extendqisi2
 970 01ae 32F82130 		ldrh	r3, [r2, r1, lsl #2]
 971              	.LVL70:
 972 01b2 13F4804F 		tst	r3, #16384
 973 01b6 0BD0     		beq	.L76
 931:Drivers/STM32F3xx_HAL_Driver/Src/stm32f3xx_hal_pcd.c ****       /* Configure VALID status for the Endpoint*/
 974              		.loc 1 931 0 is_stmt 0 discriminator 1
 975 01b8 32F82130 		ldrh	r3, [r2, r1, lsl #2]
 976 01bc 23F0F003 		bic	r3, r3, #240
 977 01c0 1B05     		lsls	r3, r3, #20
 978 01c2 1B0D     		lsrs	r3, r3, #20
 979 01c4 43F44043 		orr	r3, r3, #49152
 980 01c8 43F08003 		orr	r3, r3, #128
 981 01cc 22F82130 		strh	r3, [r2, r1, lsl #2]	@ movhi
 982              	.L76:
 983              	.LBB6:
 933:Drivers/STM32F3xx_HAL_Driver/Src/stm32f3xx_hal_pcd.c ****     }
 984              		.loc 1 933 0 is_stmt 1
 985 01d0 0268     		ldr	r2, [r0]
 986 01d2 2178     		ldrb	r1, [r4]	@ zero_extendqisi2
 987 01d4 32F82130 		ldrh	r3, [r2, r1, lsl #2]
 988 01d8 9BB2     		uxth	r3, r3
 989 01da 23F48043 		bic	r3, r3, #16384
 990 01de 23F07003 		bic	r3, r3, #112
 991              	.LVL71:
 992 01e2 83F44053 		eor	r3, r3, #12288
 993              	.LVL72:
 994 01e6 43F40043 		orr	r3, r3, #32768
 995              	.LVL73:
 996 01ea 43F08003 		orr	r3, r3, #128
 997 01ee 22F82130 		strh	r3, [r2, r1, lsl #2]	@ movhi
 998 01f2 84E7     		b	.L71
 999              	.LVL74:
ARM GAS  C:\Users\acw\AppData\Local\Temp\ccoXZyGi.s 			page 36


 1000              	.L72:
 1001              	.LBE6:
 1002              	.LBB7:
 1003              	.LBB5:
 930:Drivers/STM32F3xx_HAL_Driver/Src/stm32f3xx_hal_pcd.c ****       PCD_CLEAR_RX_DTOG(hpcd->Instance, ep->num)
 1004              		.loc 1 930 0 discriminator 2
 1005 01f4 C2F34F01 		ubfx	r1, r2, #1, #16
 1006              	.LVL75:
 1007 01f8 12F0010F 		tst	r2, #1
 1008 01fc 01D0     		beq	.L75
 930:Drivers/STM32F3xx_HAL_Driver/Src/stm32f3xx_hal_pcd.c ****       PCD_CLEAR_RX_DTOG(hpcd->Instance, ep->num)
 1009              		.loc 1 930 0 is_stmt 0 discriminator 6
 1010 01fe 0131     		adds	r1, r1, #1
 1011              	.LVL76:
 1012 0200 89B2     		uxth	r1, r1
 1013              	.LVL77:
 1014              	.L75:
 930:Drivers/STM32F3xx_HAL_Driver/Src/stm32f3xx_hal_pcd.c ****       PCD_CLEAR_RX_DTOG(hpcd->Instance, ep->num)
 1015              		.loc 1 930 0 discriminator 8
 1016 0202 8902     		lsls	r1, r1, #10
 1017              	.LVL78:
 1018 0204 A3F80014 		strh	r1, [r3, #1024]	@ movhi
 1019 0208 CFE7     		b	.L74
 1020              	.LVL79:
 1021              	.L68:
 1022              	.LBE5:
 1023              	.LBE7:
 940:Drivers/STM32F3xx_HAL_Driver/Src/stm32f3xx_hal_pcd.c ****     /*Set buffer address for double buffered mode*/
 1024              		.loc 1 940 0 is_stmt 1
 1025 020a 0268     		ldr	r2, [r0]
 1026 020c 2178     		ldrb	r1, [r4]	@ zero_extendqisi2
 1027 020e 32F82130 		ldrh	r3, [r2, r1, lsl #2]
 1028 0212 23F4F873 		bic	r3, r3, #496
 1029 0216 1B05     		lsls	r3, r3, #20
 1030 0218 1B0D     		lsrs	r3, r3, #20
 1031 021a 43F40143 		orr	r3, r3, #33024
 1032 021e 43F08003 		orr	r3, r3, #128
 1033 0222 22F82130 		strh	r3, [r2, r1, lsl #2]	@ movhi
 942:Drivers/STM32F3xx_HAL_Driver/Src/stm32f3xx_hal_pcd.c ****     
 1034              		.loc 1 942 0
 1035 0226 E288     		ldrh	r2, [r4, #6]
 1036 0228 0368     		ldr	r3, [r0]
 1037 022a B3F85010 		ldrh	r1, [r3, #80]
 1038 022e 2578     		ldrb	r5, [r4]	@ zero_extendqisi2
 1039 0230 01EBC501 		add	r1, r1, r5, lsl #3
 1040 0234 03EB4103 		add	r3, r3, r1, lsl #1
 1041 0238 22F00102 		bic	r2, r2, #1
 1042 023c A3F80024 		strh	r2, [r3, #1024]	@ movhi
 1043 0240 2189     		ldrh	r1, [r4, #8]
 1044 0242 0268     		ldr	r2, [r0]
 1045 0244 B2F85030 		ldrh	r3, [r2, #80]
 1046 0248 2578     		ldrb	r5, [r4]	@ zero_extendqisi2
 1047 024a 03EBC503 		add	r3, r3, r5, lsl #3
 1048 024e 0433     		adds	r3, r3, #4
 1049 0250 02EB4303 		add	r3, r2, r3, lsl #1
 1050 0254 21F00102 		bic	r2, r1, #1
 1051 0258 A3F80024 		strh	r2, [r3, #1024]	@ movhi
ARM GAS  C:\Users\acw\AppData\Local\Temp\ccoXZyGi.s 			page 37


 944:Drivers/STM32F3xx_HAL_Driver/Src/stm32f3xx_hal_pcd.c ****     {
 1052              		.loc 1 944 0
 1053 025c 6378     		ldrb	r3, [r4, #1]	@ zero_extendqisi2
 1054 025e 002B     		cmp	r3, #0
 1055 0260 50D1     		bne	.L77
 947:Drivers/STM32F3xx_HAL_Driver/Src/stm32f3xx_hal_pcd.c ****       PCD_CLEAR_TX_DTOG(hpcd->Instance, ep->num)
 1056              		.loc 1 947 0
 1057 0262 0268     		ldr	r2, [r0]
 1058 0264 2178     		ldrb	r1, [r4]	@ zero_extendqisi2
 1059 0266 32F82130 		ldrh	r3, [r2, r1, lsl #2]
 1060 026a 13F4804F 		tst	r3, #16384
 1061 026e 0BD0     		beq	.L78
 947:Drivers/STM32F3xx_HAL_Driver/Src/stm32f3xx_hal_pcd.c ****       PCD_CLEAR_TX_DTOG(hpcd->Instance, ep->num)
 1062              		.loc 1 947 0 is_stmt 0 discriminator 1
 1063 0270 32F82130 		ldrh	r3, [r2, r1, lsl #2]
 1064 0274 23F0F003 		bic	r3, r3, #240
 1065 0278 1B05     		lsls	r3, r3, #20
 1066 027a 1B0D     		lsrs	r3, r3, #20
 1067 027c 43F44043 		orr	r3, r3, #49152
 1068 0280 43F08003 		orr	r3, r3, #128
 1069 0284 22F82130 		strh	r3, [r2, r1, lsl #2]	@ movhi
 1070              	.L78:
 948:Drivers/STM32F3xx_HAL_Driver/Src/stm32f3xx_hal_pcd.c ****       
 1071              		.loc 1 948 0 is_stmt 1
 1072 0288 0268     		ldr	r2, [r0]
 1073 028a 2178     		ldrb	r1, [r4]	@ zero_extendqisi2
 1074 028c 32F82130 		ldrh	r3, [r2, r1, lsl #2]
 1075 0290 13F0400F 		tst	r3, #64
 1076 0294 0BD0     		beq	.L79
 948:Drivers/STM32F3xx_HAL_Driver/Src/stm32f3xx_hal_pcd.c ****       
 1077              		.loc 1 948 0 is_stmt 0 discriminator 1
 1078 0296 32F82130 		ldrh	r3, [r2, r1, lsl #2]
 1079 029a 23F0F003 		bic	r3, r3, #240
 1080 029e 1B05     		lsls	r3, r3, #20
 1081 02a0 1B0D     		lsrs	r3, r3, #20
 1082 02a2 43F40043 		orr	r3, r3, #32768
 1083 02a6 43F0C003 		orr	r3, r3, #192
 1084 02aa 22F82130 		strh	r3, [r2, r1, lsl #2]	@ movhi
 1085              	.L79:
 951:Drivers/STM32F3xx_HAL_Driver/Src/stm32f3xx_hal_pcd.c ****       
 1086              		.loc 1 951 0 is_stmt 1
 1087 02ae 0268     		ldr	r2, [r0]
 1088 02b0 2178     		ldrb	r1, [r4]	@ zero_extendqisi2
 1089 02b2 32F82130 		ldrh	r3, [r2, r1, lsl #2]
 1090 02b6 23F0F003 		bic	r3, r3, #240
 1091 02ba 1B05     		lsls	r3, r3, #20
 1092 02bc 1B0D     		lsrs	r3, r3, #20
 1093 02be 43F40043 		orr	r3, r3, #32768
 1094 02c2 43F0C003 		orr	r3, r3, #192
 1095 02c6 22F82130 		strh	r3, [r2, r1, lsl #2]	@ movhi
 1096              	.LBB8:
 953:Drivers/STM32F3xx_HAL_Driver/Src/stm32f3xx_hal_pcd.c ****       PCD_SET_EP_TX_STATUS(hpcd->Instance, ep->num, USB_EP_TX_DIS)
 1097              		.loc 1 953 0
 1098 02ca 0268     		ldr	r2, [r0]
 1099 02cc 2178     		ldrb	r1, [r4]	@ zero_extendqisi2
 1100 02ce 32F82130 		ldrh	r3, [r2, r1, lsl #2]
 1101 02d2 9BB2     		uxth	r3, r3
ARM GAS  C:\Users\acw\AppData\Local\Temp\ccoXZyGi.s 			page 38


 1102 02d4 23F48043 		bic	r3, r3, #16384
 1103 02d8 23F07003 		bic	r3, r3, #112
 1104              	.LVL80:
 1105 02dc 83F44053 		eor	r3, r3, #12288
 1106              	.LVL81:
 1107 02e0 48F28005 		movw	r5, #32896
 1108 02e4 2B43     		orrs	r3, r3, r5
 1109              	.LVL82:
 1110 02e6 22F82130 		strh	r3, [r2, r1, lsl #2]	@ movhi
 1111              	.LBE8:
 1112              	.LBB9:
 954:Drivers/STM32F3xx_HAL_Driver/Src/stm32f3xx_hal_pcd.c ****     }
 1113              		.loc 1 954 0
 1114 02ea 0268     		ldr	r2, [r0]
 1115 02ec 2178     		ldrb	r1, [r4]	@ zero_extendqisi2
 1116 02ee 32F82130 		ldrh	r3, [r2, r1, lsl #2]
 1117 02f2 9BB2     		uxth	r3, r3
 1118 02f4 23F4E043 		bic	r3, r3, #28672
 1119 02f8 23F04003 		bic	r3, r3, #64
 1120              	.LVL83:
 1121 02fc 2B43     		orrs	r3, r3, r5
 1122              	.LVL84:
 1123 02fe 22F82130 		strh	r3, [r2, r1, lsl #2]	@ movhi
 1124              	.LBE9:
 1125 0302 FCE6     		b	.L71
 1126              	.L77:
 959:Drivers/STM32F3xx_HAL_Driver/Src/stm32f3xx_hal_pcd.c ****       PCD_CLEAR_TX_DTOG(hpcd->Instance, ep->num)
 1127              		.loc 1 959 0
 1128 0304 0268     		ldr	r2, [r0]
 1129 0306 2178     		ldrb	r1, [r4]	@ zero_extendqisi2
 1130 0308 32F82130 		ldrh	r3, [r2, r1, lsl #2]
 1131 030c 13F4804F 		tst	r3, #16384
 1132 0310 0BD0     		beq	.L80
 959:Drivers/STM32F3xx_HAL_Driver/Src/stm32f3xx_hal_pcd.c ****       PCD_CLEAR_TX_DTOG(hpcd->Instance, ep->num)
 1133              		.loc 1 959 0 is_stmt 0 discriminator 1
 1134 0312 32F82130 		ldrh	r3, [r2, r1, lsl #2]
 1135 0316 23F0F003 		bic	r3, r3, #240
 1136 031a 1B05     		lsls	r3, r3, #20
 1137 031c 1B0D     		lsrs	r3, r3, #20
 1138 031e 43F44043 		orr	r3, r3, #49152
 1139 0322 43F08003 		orr	r3, r3, #128
 1140 0326 22F82130 		strh	r3, [r2, r1, lsl #2]	@ movhi
 1141              	.L80:
 960:Drivers/STM32F3xx_HAL_Driver/Src/stm32f3xx_hal_pcd.c ****       PCD_RX_DTOG(hpcd->Instance, ep->num);
 1142              		.loc 1 960 0 is_stmt 1
 1143 032a 0268     		ldr	r2, [r0]
 1144 032c 2178     		ldrb	r1, [r4]	@ zero_extendqisi2
 1145 032e 32F82130 		ldrh	r3, [r2, r1, lsl #2]
 1146 0332 13F0400F 		tst	r3, #64
 1147 0336 0BD0     		beq	.L81
 960:Drivers/STM32F3xx_HAL_Driver/Src/stm32f3xx_hal_pcd.c ****       PCD_RX_DTOG(hpcd->Instance, ep->num);
 1148              		.loc 1 960 0 is_stmt 0 discriminator 1
 1149 0338 32F82130 		ldrh	r3, [r2, r1, lsl #2]
 1150 033c 23F0F003 		bic	r3, r3, #240
 1151 0340 1B05     		lsls	r3, r3, #20
 1152 0342 1B0D     		lsrs	r3, r3, #20
 1153 0344 43F40043 		orr	r3, r3, #32768
ARM GAS  C:\Users\acw\AppData\Local\Temp\ccoXZyGi.s 			page 39


 1154 0348 43F0C003 		orr	r3, r3, #192
 1155 034c 22F82130 		strh	r3, [r2, r1, lsl #2]	@ movhi
 1156              	.L81:
 961:Drivers/STM32F3xx_HAL_Driver/Src/stm32f3xx_hal_pcd.c ****       /* Configure DISABLE status for the Endpoint*/
 1157              		.loc 1 961 0 is_stmt 1
 1158 0350 0268     		ldr	r2, [r0]
 1159 0352 2178     		ldrb	r1, [r4]	@ zero_extendqisi2
 1160 0354 32F82130 		ldrh	r3, [r2, r1, lsl #2]
 1161 0358 23F0F003 		bic	r3, r3, #240
 1162 035c 1B05     		lsls	r3, r3, #20
 1163 035e 1B0D     		lsrs	r3, r3, #20
 1164 0360 43F44043 		orr	r3, r3, #49152
 1165 0364 43F08003 		orr	r3, r3, #128
 1166 0368 22F82130 		strh	r3, [r2, r1, lsl #2]	@ movhi
 1167              	.LBB10:
 963:Drivers/STM32F3xx_HAL_Driver/Src/stm32f3xx_hal_pcd.c ****       PCD_SET_EP_RX_STATUS(hpcd->Instance, ep->num, USB_EP_RX_DIS)
 1168              		.loc 1 963 0
 1169 036c 0368     		ldr	r3, [r0]
 1170 036e 2178     		ldrb	r1, [r4]	@ zero_extendqisi2
 1171 0370 33F82120 		ldrh	r2, [r3, r1, lsl #2]
 1172 0374 92B2     		uxth	r2, r2
 1173 0376 22F4E042 		bic	r2, r2, #28672
 1174 037a 22F04002 		bic	r2, r2, #64
 1175              	.LVL85:
 1176 037e 48F28005 		movw	r5, #32896
 1177 0382 2A43     		orrs	r2, r2, r5
 1178              	.LVL86:
 1179 0384 23F82120 		strh	r2, [r3, r1, lsl #2]	@ movhi
 1180              	.LBE10:
 1181              	.LBB11:
 964:Drivers/STM32F3xx_HAL_Driver/Src/stm32f3xx_hal_pcd.c ****     }
 1182              		.loc 1 964 0
 1183 0388 0268     		ldr	r2, [r0]
 1184 038a 2178     		ldrb	r1, [r4]	@ zero_extendqisi2
 1185 038c 32F82130 		ldrh	r3, [r2, r1, lsl #2]
 1186 0390 9BB2     		uxth	r3, r3
 1187 0392 23F48043 		bic	r3, r3, #16384
 1188 0396 23F07003 		bic	r3, r3, #112
 1189              	.LVL87:
 1190 039a 2B43     		orrs	r3, r3, r5
 1191              	.LVL88:
 1192 039c 22F82130 		strh	r3, [r2, r1, lsl #2]	@ movhi
 1193 03a0 ADE6     		b	.L71
 1194              	.LVL89:
 1195              	.L82:
 1196              	.LBE11:
 892:Drivers/STM32F3xx_HAL_Driver/Src/stm32f3xx_hal_pcd.c **** 
 1197              		.loc 1 892 0
 1198 03a2 0220     		movs	r0, #2
 1199              	.LVL90:
 1200 03a4 AFE6     		b	.L61
 1201              		.cfi_endproc
 1202              	.LFE148:
 1204              		.section	.text.HAL_PCD_EP_Close,"ax",%progbits
 1205              		.align	1
 1206              		.global	HAL_PCD_EP_Close
 1207              		.syntax unified
ARM GAS  C:\Users\acw\AppData\Local\Temp\ccoXZyGi.s 			page 40


 1208              		.thumb
 1209              		.thumb_func
 1210              		.fpu fpv4-sp-d16
 1212              	HAL_PCD_EP_Close:
 1213              	.LFB149:
 971:Drivers/STM32F3xx_HAL_Driver/Src/stm32f3xx_hal_pcd.c **** 
 972:Drivers/STM32F3xx_HAL_Driver/Src/stm32f3xx_hal_pcd.c **** 
 973:Drivers/STM32F3xx_HAL_Driver/Src/stm32f3xx_hal_pcd.c **** /**
 974:Drivers/STM32F3xx_HAL_Driver/Src/stm32f3xx_hal_pcd.c ****   * @brief  Deactivate an endpoint
 975:Drivers/STM32F3xx_HAL_Driver/Src/stm32f3xx_hal_pcd.c ****   * @param  hpcd PCD handle
 976:Drivers/STM32F3xx_HAL_Driver/Src/stm32f3xx_hal_pcd.c ****   * @param  ep_addr endpoint address
 977:Drivers/STM32F3xx_HAL_Driver/Src/stm32f3xx_hal_pcd.c ****   * @retval HAL status
 978:Drivers/STM32F3xx_HAL_Driver/Src/stm32f3xx_hal_pcd.c ****   */
 979:Drivers/STM32F3xx_HAL_Driver/Src/stm32f3xx_hal_pcd.c **** HAL_StatusTypeDef HAL_PCD_EP_Close(PCD_HandleTypeDef *hpcd, uint8_t ep_addr)
 980:Drivers/STM32F3xx_HAL_Driver/Src/stm32f3xx_hal_pcd.c **** {  
 1214              		.loc 1 980 0
 1215              		.cfi_startproc
 1216              		@ args = 0, pretend = 0, frame = 0
 1217              		@ frame_needed = 0, uses_anonymous_args = 0
 1218              		@ link register save eliminated.
 1219              	.LVL91:
 1220 0000 30B4     		push	{r4, r5}
 1221              	.LCFI12:
 1222              		.cfi_def_cfa_offset 8
 1223              		.cfi_offset 4, -8
 1224              		.cfi_offset 5, -4
 981:Drivers/STM32F3xx_HAL_Driver/Src/stm32f3xx_hal_pcd.c ****   PCD_EPTypeDef *ep;
 982:Drivers/STM32F3xx_HAL_Driver/Src/stm32f3xx_hal_pcd.c ****   
 983:Drivers/STM32F3xx_HAL_Driver/Src/stm32f3xx_hal_pcd.c ****   if ((ep_addr & 0x80U) == 0x80U)
 1225              		.loc 1 983 0
 1226 0002 4AB2     		sxtb	r2, r1
 1227 0004 002A     		cmp	r2, #0
 1228 0006 42DB     		blt	.L101
 984:Drivers/STM32F3xx_HAL_Driver/Src/stm32f3xx_hal_pcd.c ****   {
 985:Drivers/STM32F3xx_HAL_Driver/Src/stm32f3xx_hal_pcd.c ****     ep = &hpcd->IN_ep[ep_addr & 0x7F];
 986:Drivers/STM32F3xx_HAL_Driver/Src/stm32f3xx_hal_pcd.c ****   }
 987:Drivers/STM32F3xx_HAL_Driver/Src/stm32f3xx_hal_pcd.c ****   else
 988:Drivers/STM32F3xx_HAL_Driver/Src/stm32f3xx_hal_pcd.c ****   {
 989:Drivers/STM32F3xx_HAL_Driver/Src/stm32f3xx_hal_pcd.c ****     ep = &hpcd->OUT_ep[ep_addr & 0x7F];
 1229              		.loc 1 989 0
 1230 0008 01F07F04 		and	r4, r1, #127
 1231 000c C4EBC404 		rsb	r4, r4, r4, lsl #3
 1232 0010 A300     		lsls	r3, r4, #2
 1233 0012 03F5E473 		add	r3, r3, #456
 1234 0016 0344     		add	r3, r3, r0
 1235 0018 0433     		adds	r3, r3, #4
 1236              	.LVL92:
 1237              	.L87:
 990:Drivers/STM32F3xx_HAL_Driver/Src/stm32f3xx_hal_pcd.c ****   }
 991:Drivers/STM32F3xx_HAL_Driver/Src/stm32f3xx_hal_pcd.c ****   ep->num   = ep_addr & 0x7FU;
 1238              		.loc 1 991 0
 1239 001a 01F07F01 		and	r1, r1, #127
 1240              	.LVL93:
 1241 001e 1970     		strb	r1, [r3]
 992:Drivers/STM32F3xx_HAL_Driver/Src/stm32f3xx_hal_pcd.c ****   
 993:Drivers/STM32F3xx_HAL_Driver/Src/stm32f3xx_hal_pcd.c ****   ep->is_in = (0x80U & ep_addr) != 0U;
 1242              		.loc 1 993 0
ARM GAS  C:\Users\acw\AppData\Local\Temp\ccoXZyGi.s 			page 41


 1243 0020 D20F     		lsrs	r2, r2, #31
 1244              	.LVL94:
 1245 0022 5A70     		strb	r2, [r3, #1]
 994:Drivers/STM32F3xx_HAL_Driver/Src/stm32f3xx_hal_pcd.c ****   
 995:Drivers/STM32F3xx_HAL_Driver/Src/stm32f3xx_hal_pcd.c ****   __HAL_LOCK(hpcd); 
 1246              		.loc 1 995 0
 1247 0024 90F87023 		ldrb	r2, [r0, #880]	@ zero_extendqisi2
 1248 0028 012A     		cmp	r2, #1
 1249 002a 00F0FC80 		beq	.L99
 1250              		.loc 1 995 0 is_stmt 0 discriminator 2
 1251 002e 0122     		movs	r2, #1
 1252 0030 80F87023 		strb	r2, [r0, #880]
 996:Drivers/STM32F3xx_HAL_Driver/Src/stm32f3xx_hal_pcd.c **** 
 997:Drivers/STM32F3xx_HAL_Driver/Src/stm32f3xx_hal_pcd.c ****   if (ep->doublebuffer == 0U) 
 1253              		.loc 1 997 0 is_stmt 1 discriminator 2
 1254 0034 9A7A     		ldrb	r2, [r3, #10]	@ zero_extendqisi2
 1255 0036 002A     		cmp	r2, #0
 1256 0038 54D1     		bne	.L89
 998:Drivers/STM32F3xx_HAL_Driver/Src/stm32f3xx_hal_pcd.c ****   {
 999:Drivers/STM32F3xx_HAL_Driver/Src/stm32f3xx_hal_pcd.c ****     if (ep->is_in)
 1257              		.loc 1 999 0
 1258 003a 5A78     		ldrb	r2, [r3, #1]	@ zero_extendqisi2
 1259 003c 7AB3     		cbz	r2, .L90
1000:Drivers/STM32F3xx_HAL_Driver/Src/stm32f3xx_hal_pcd.c ****     {
1001:Drivers/STM32F3xx_HAL_Driver/Src/stm32f3xx_hal_pcd.c ****       PCD_CLEAR_TX_DTOG(hpcd->Instance, ep->num)
 1260              		.loc 1 1001 0
 1261 003e 0168     		ldr	r1, [r0]
 1262 0040 1C78     		ldrb	r4, [r3]	@ zero_extendqisi2
 1263 0042 31F82420 		ldrh	r2, [r1, r4, lsl #2]
 1264 0046 12F0400F 		tst	r2, #64
 1265 004a 0BD0     		beq	.L91
 1266              		.loc 1 1001 0 is_stmt 0 discriminator 1
 1267 004c 31F82420 		ldrh	r2, [r1, r4, lsl #2]
 1268 0050 22F0F002 		bic	r2, r2, #240
 1269 0054 1205     		lsls	r2, r2, #20
 1270 0056 120D     		lsrs	r2, r2, #20
 1271 0058 42F40042 		orr	r2, r2, #32768
 1272 005c 42F0C002 		orr	r2, r2, #192
 1273 0060 21F82420 		strh	r2, [r1, r4, lsl #2]	@ movhi
 1274              	.L91:
 1275              	.LBB12:
1002:Drivers/STM32F3xx_HAL_Driver/Src/stm32f3xx_hal_pcd.c ****       /* Configure DISABLE status for the Endpoint*/
1003:Drivers/STM32F3xx_HAL_Driver/Src/stm32f3xx_hal_pcd.c ****       PCD_SET_EP_TX_STATUS(hpcd->Instance, ep->num, USB_EP_TX_DIS) 
 1276              		.loc 1 1003 0 is_stmt 1
 1277 0064 0268     		ldr	r2, [r0]
 1278 0066 1978     		ldrb	r1, [r3]	@ zero_extendqisi2
 1279 0068 32F82130 		ldrh	r3, [r2, r1, lsl #2]
 1280              	.LVL95:
 1281 006c 9BB2     		uxth	r3, r3
 1282 006e 23F4E043 		bic	r3, r3, #28672
 1283 0072 23F04003 		bic	r3, r3, #64
 1284              	.LVL96:
 1285 0076 43F40043 		orr	r3, r3, #32768
 1286              	.LVL97:
 1287 007a 43F08003 		orr	r3, r3, #128
 1288 007e 22F82130 		strh	r3, [r2, r1, lsl #2]	@ movhi
 1289              	.L92:
ARM GAS  C:\Users\acw\AppData\Local\Temp\ccoXZyGi.s 			page 42


 1290              	.LBE12:
1004:Drivers/STM32F3xx_HAL_Driver/Src/stm32f3xx_hal_pcd.c ****     }
1005:Drivers/STM32F3xx_HAL_Driver/Src/stm32f3xx_hal_pcd.c ****     else
1006:Drivers/STM32F3xx_HAL_Driver/Src/stm32f3xx_hal_pcd.c ****     {
1007:Drivers/STM32F3xx_HAL_Driver/Src/stm32f3xx_hal_pcd.c ****       PCD_CLEAR_RX_DTOG(hpcd->Instance, ep->num)
1008:Drivers/STM32F3xx_HAL_Driver/Src/stm32f3xx_hal_pcd.c ****       /* Configure DISABLE status for the Endpoint*/
1009:Drivers/STM32F3xx_HAL_Driver/Src/stm32f3xx_hal_pcd.c ****       PCD_SET_EP_RX_STATUS(hpcd->Instance, ep->num, USB_EP_RX_DIS)
1010:Drivers/STM32F3xx_HAL_Driver/Src/stm32f3xx_hal_pcd.c ****     }
1011:Drivers/STM32F3xx_HAL_Driver/Src/stm32f3xx_hal_pcd.c ****   }
1012:Drivers/STM32F3xx_HAL_Driver/Src/stm32f3xx_hal_pcd.c ****   /*Double Buffer*/
1013:Drivers/STM32F3xx_HAL_Driver/Src/stm32f3xx_hal_pcd.c ****   else
1014:Drivers/STM32F3xx_HAL_Driver/Src/stm32f3xx_hal_pcd.c ****   { 
1015:Drivers/STM32F3xx_HAL_Driver/Src/stm32f3xx_hal_pcd.c ****     if (ep->is_in==0U)
1016:Drivers/STM32F3xx_HAL_Driver/Src/stm32f3xx_hal_pcd.c ****     {
1017:Drivers/STM32F3xx_HAL_Driver/Src/stm32f3xx_hal_pcd.c ****       /* Clear the data toggle bits for the endpoint IN/OUT*/
1018:Drivers/STM32F3xx_HAL_Driver/Src/stm32f3xx_hal_pcd.c ****       PCD_CLEAR_RX_DTOG(hpcd->Instance, ep->num)
1019:Drivers/STM32F3xx_HAL_Driver/Src/stm32f3xx_hal_pcd.c ****       PCD_CLEAR_TX_DTOG(hpcd->Instance, ep->num)
1020:Drivers/STM32F3xx_HAL_Driver/Src/stm32f3xx_hal_pcd.c ****       
1021:Drivers/STM32F3xx_HAL_Driver/Src/stm32f3xx_hal_pcd.c ****       /* Reset value of the data toggle bits for the endpoint out*/
1022:Drivers/STM32F3xx_HAL_Driver/Src/stm32f3xx_hal_pcd.c ****       PCD_TX_DTOG(hpcd->Instance, ep->num);
1023:Drivers/STM32F3xx_HAL_Driver/Src/stm32f3xx_hal_pcd.c ****       
1024:Drivers/STM32F3xx_HAL_Driver/Src/stm32f3xx_hal_pcd.c ****       PCD_SET_EP_RX_STATUS(hpcd->Instance, ep->num, USB_EP_RX_DIS)
1025:Drivers/STM32F3xx_HAL_Driver/Src/stm32f3xx_hal_pcd.c ****       PCD_SET_EP_TX_STATUS(hpcd->Instance, ep->num, USB_EP_TX_DIS)
1026:Drivers/STM32F3xx_HAL_Driver/Src/stm32f3xx_hal_pcd.c ****     }
1027:Drivers/STM32F3xx_HAL_Driver/Src/stm32f3xx_hal_pcd.c ****     else
1028:Drivers/STM32F3xx_HAL_Driver/Src/stm32f3xx_hal_pcd.c ****     {
1029:Drivers/STM32F3xx_HAL_Driver/Src/stm32f3xx_hal_pcd.c ****       /* Clear the data toggle bits for the endpoint IN/OUT*/
1030:Drivers/STM32F3xx_HAL_Driver/Src/stm32f3xx_hal_pcd.c ****       PCD_CLEAR_RX_DTOG(hpcd->Instance, ep->num)
1031:Drivers/STM32F3xx_HAL_Driver/Src/stm32f3xx_hal_pcd.c ****       PCD_CLEAR_TX_DTOG(hpcd->Instance, ep->num)
1032:Drivers/STM32F3xx_HAL_Driver/Src/stm32f3xx_hal_pcd.c ****       PCD_RX_DTOG(hpcd->Instance, ep->num);
1033:Drivers/STM32F3xx_HAL_Driver/Src/stm32f3xx_hal_pcd.c ****       /* Configure DISABLE status for the Endpoint*/
1034:Drivers/STM32F3xx_HAL_Driver/Src/stm32f3xx_hal_pcd.c ****       PCD_SET_EP_TX_STATUS(hpcd->Instance, ep->num, USB_EP_TX_DIS)
1035:Drivers/STM32F3xx_HAL_Driver/Src/stm32f3xx_hal_pcd.c ****       PCD_SET_EP_RX_STATUS(hpcd->Instance, ep->num, USB_EP_RX_DIS)
1036:Drivers/STM32F3xx_HAL_Driver/Src/stm32f3xx_hal_pcd.c ****     }
1037:Drivers/STM32F3xx_HAL_Driver/Src/stm32f3xx_hal_pcd.c ****   } 
1038:Drivers/STM32F3xx_HAL_Driver/Src/stm32f3xx_hal_pcd.c ****   
1039:Drivers/STM32F3xx_HAL_Driver/Src/stm32f3xx_hal_pcd.c ****   __HAL_UNLOCK(hpcd);   
 1291              		.loc 1 1039 0
 1292 0082 0023     		movs	r3, #0
 1293 0084 80F87033 		strb	r3, [r0, #880]
1040:Drivers/STM32F3xx_HAL_Driver/Src/stm32f3xx_hal_pcd.c ****   return HAL_OK;
 1294              		.loc 1 1040 0
 1295 0088 1846     		mov	r0, r3
 1296              	.LVL98:
 1297              	.L88:
1041:Drivers/STM32F3xx_HAL_Driver/Src/stm32f3xx_hal_pcd.c **** }
 1298              		.loc 1 1041 0
 1299 008a 30BC     		pop	{r4, r5}
 1300              	.LCFI13:
 1301              		.cfi_remember_state
 1302              		.cfi_restore 5
 1303              		.cfi_restore 4
 1304              		.cfi_def_cfa_offset 0
 1305 008c 7047     		bx	lr
 1306              	.LVL99:
 1307              	.L101:
 1308              	.LCFI14:
ARM GAS  C:\Users\acw\AppData\Local\Temp\ccoXZyGi.s 			page 43


 1309              		.cfi_restore_state
 985:Drivers/STM32F3xx_HAL_Driver/Src/stm32f3xx_hal_pcd.c ****   }
 1310              		.loc 1 985 0
 1311 008e 01F07F04 		and	r4, r1, #127
 1312 0092 C4EBC404 		rsb	r4, r4, r4, lsl #3
 1313 0096 A300     		lsls	r3, r4, #2
 1314 0098 2833     		adds	r3, r3, #40
 1315 009a 0344     		add	r3, r3, r0
 1316              	.LVL100:
 1317 009c BDE7     		b	.L87
 1318              	.LVL101:
 1319              	.L90:
1007:Drivers/STM32F3xx_HAL_Driver/Src/stm32f3xx_hal_pcd.c ****       /* Configure DISABLE status for the Endpoint*/
 1320              		.loc 1 1007 0
 1321 009e 0168     		ldr	r1, [r0]
 1322 00a0 1C78     		ldrb	r4, [r3]	@ zero_extendqisi2
 1323 00a2 31F82420 		ldrh	r2, [r1, r4, lsl #2]
 1324 00a6 12F4804F 		tst	r2, #16384
 1325 00aa 0BD0     		beq	.L93
1007:Drivers/STM32F3xx_HAL_Driver/Src/stm32f3xx_hal_pcd.c ****       /* Configure DISABLE status for the Endpoint*/
 1326              		.loc 1 1007 0 is_stmt 0 discriminator 1
 1327 00ac 31F82420 		ldrh	r2, [r1, r4, lsl #2]
 1328 00b0 22F0F002 		bic	r2, r2, #240
 1329 00b4 1205     		lsls	r2, r2, #20
 1330 00b6 120D     		lsrs	r2, r2, #20
 1331 00b8 42F44042 		orr	r2, r2, #49152
 1332 00bc 42F08002 		orr	r2, r2, #128
 1333 00c0 21F82420 		strh	r2, [r1, r4, lsl #2]	@ movhi
 1334              	.L93:
 1335              	.LBB13:
1009:Drivers/STM32F3xx_HAL_Driver/Src/stm32f3xx_hal_pcd.c ****     }
 1336              		.loc 1 1009 0 is_stmt 1
 1337 00c4 0268     		ldr	r2, [r0]
 1338 00c6 1978     		ldrb	r1, [r3]	@ zero_extendqisi2
 1339 00c8 32F82130 		ldrh	r3, [r2, r1, lsl #2]
 1340              	.LVL102:
 1341 00cc 9BB2     		uxth	r3, r3
 1342 00ce 23F48043 		bic	r3, r3, #16384
 1343 00d2 23F07003 		bic	r3, r3, #112
 1344              	.LVL103:
 1345 00d6 43F40043 		orr	r3, r3, #32768
 1346              	.LVL104:
 1347 00da 43F08003 		orr	r3, r3, #128
 1348 00de 22F82130 		strh	r3, [r2, r1, lsl #2]	@ movhi
 1349 00e2 CEE7     		b	.L92
 1350              	.LVL105:
 1351              	.L89:
 1352              	.LBE13:
1015:Drivers/STM32F3xx_HAL_Driver/Src/stm32f3xx_hal_pcd.c ****     {
 1353              		.loc 1 1015 0
 1354 00e4 5A78     		ldrb	r2, [r3, #1]	@ zero_extendqisi2
 1355 00e6 002A     		cmp	r2, #0
 1356 00e8 4ED1     		bne	.L94
1018:Drivers/STM32F3xx_HAL_Driver/Src/stm32f3xx_hal_pcd.c ****       PCD_CLEAR_TX_DTOG(hpcd->Instance, ep->num)
 1357              		.loc 1 1018 0
 1358 00ea 0168     		ldr	r1, [r0]
 1359 00ec 1C78     		ldrb	r4, [r3]	@ zero_extendqisi2
ARM GAS  C:\Users\acw\AppData\Local\Temp\ccoXZyGi.s 			page 44


 1360 00ee 31F82420 		ldrh	r2, [r1, r4, lsl #2]
 1361 00f2 12F4804F 		tst	r2, #16384
 1362 00f6 0BD0     		beq	.L95
1018:Drivers/STM32F3xx_HAL_Driver/Src/stm32f3xx_hal_pcd.c ****       PCD_CLEAR_TX_DTOG(hpcd->Instance, ep->num)
 1363              		.loc 1 1018 0 is_stmt 0 discriminator 1
 1364 00f8 31F82420 		ldrh	r2, [r1, r4, lsl #2]
 1365 00fc 22F0F002 		bic	r2, r2, #240
 1366 0100 1205     		lsls	r2, r2, #20
 1367 0102 120D     		lsrs	r2, r2, #20
 1368 0104 42F44042 		orr	r2, r2, #49152
 1369 0108 42F08002 		orr	r2, r2, #128
 1370 010c 21F82420 		strh	r2, [r1, r4, lsl #2]	@ movhi
 1371              	.L95:
1019:Drivers/STM32F3xx_HAL_Driver/Src/stm32f3xx_hal_pcd.c ****       
 1372              		.loc 1 1019 0 is_stmt 1
 1373 0110 0168     		ldr	r1, [r0]
 1374 0112 1C78     		ldrb	r4, [r3]	@ zero_extendqisi2
 1375 0114 31F82420 		ldrh	r2, [r1, r4, lsl #2]
 1376 0118 12F0400F 		tst	r2, #64
 1377 011c 0BD0     		beq	.L96
1019:Drivers/STM32F3xx_HAL_Driver/Src/stm32f3xx_hal_pcd.c ****       
 1378              		.loc 1 1019 0 is_stmt 0 discriminator 1
 1379 011e 31F82420 		ldrh	r2, [r1, r4, lsl #2]
 1380 0122 22F0F002 		bic	r2, r2, #240
 1381 0126 1205     		lsls	r2, r2, #20
 1382 0128 120D     		lsrs	r2, r2, #20
 1383 012a 42F40042 		orr	r2, r2, #32768
 1384 012e 42F0C002 		orr	r2, r2, #192
 1385 0132 21F82420 		strh	r2, [r1, r4, lsl #2]	@ movhi
 1386              	.L96:
1022:Drivers/STM32F3xx_HAL_Driver/Src/stm32f3xx_hal_pcd.c ****       
 1387              		.loc 1 1022 0 is_stmt 1
 1388 0136 0168     		ldr	r1, [r0]
 1389 0138 1C78     		ldrb	r4, [r3]	@ zero_extendqisi2
 1390 013a 31F82420 		ldrh	r2, [r1, r4, lsl #2]
 1391 013e 22F0F002 		bic	r2, r2, #240
 1392 0142 1205     		lsls	r2, r2, #20
 1393 0144 120D     		lsrs	r2, r2, #20
 1394 0146 42F40042 		orr	r2, r2, #32768
 1395 014a 42F0C002 		orr	r2, r2, #192
 1396 014e 21F82420 		strh	r2, [r1, r4, lsl #2]	@ movhi
 1397              	.LBB14:
1024:Drivers/STM32F3xx_HAL_Driver/Src/stm32f3xx_hal_pcd.c ****       PCD_SET_EP_TX_STATUS(hpcd->Instance, ep->num, USB_EP_TX_DIS)
 1398              		.loc 1 1024 0
 1399 0152 0168     		ldr	r1, [r0]
 1400 0154 1D78     		ldrb	r5, [r3]	@ zero_extendqisi2
 1401 0156 31F82520 		ldrh	r2, [r1, r5, lsl #2]
 1402 015a 92B2     		uxth	r2, r2
 1403 015c 22F48042 		bic	r2, r2, #16384
 1404 0160 22F07002 		bic	r2, r2, #112
 1405              	.LVL106:
 1406 0164 48F28004 		movw	r4, #32896
 1407 0168 2243     		orrs	r2, r2, r4
 1408              	.LVL107:
 1409 016a 21F82520 		strh	r2, [r1, r5, lsl #2]	@ movhi
 1410              	.LBE14:
 1411              	.LBB15:
ARM GAS  C:\Users\acw\AppData\Local\Temp\ccoXZyGi.s 			page 45


1025:Drivers/STM32F3xx_HAL_Driver/Src/stm32f3xx_hal_pcd.c ****     }
 1412              		.loc 1 1025 0
 1413 016e 0268     		ldr	r2, [r0]
 1414 0170 1978     		ldrb	r1, [r3]	@ zero_extendqisi2
 1415 0172 32F82130 		ldrh	r3, [r2, r1, lsl #2]
 1416              	.LVL108:
 1417 0176 9BB2     		uxth	r3, r3
 1418 0178 23F4E043 		bic	r3, r3, #28672
 1419 017c 23F04003 		bic	r3, r3, #64
 1420              	.LVL109:
 1421 0180 2343     		orrs	r3, r3, r4
 1422              	.LVL110:
 1423 0182 22F82130 		strh	r3, [r2, r1, lsl #2]	@ movhi
 1424              	.LBE15:
 1425 0186 7CE7     		b	.L92
 1426              	.LVL111:
 1427              	.L94:
1030:Drivers/STM32F3xx_HAL_Driver/Src/stm32f3xx_hal_pcd.c ****       PCD_CLEAR_TX_DTOG(hpcd->Instance, ep->num)
 1428              		.loc 1 1030 0
 1429 0188 0168     		ldr	r1, [r0]
 1430 018a 1C78     		ldrb	r4, [r3]	@ zero_extendqisi2
 1431 018c 31F82420 		ldrh	r2, [r1, r4, lsl #2]
 1432 0190 12F4804F 		tst	r2, #16384
 1433 0194 0BD0     		beq	.L97
1030:Drivers/STM32F3xx_HAL_Driver/Src/stm32f3xx_hal_pcd.c ****       PCD_CLEAR_TX_DTOG(hpcd->Instance, ep->num)
 1434              		.loc 1 1030 0 is_stmt 0 discriminator 1
 1435 0196 31F82420 		ldrh	r2, [r1, r4, lsl #2]
 1436 019a 22F0F002 		bic	r2, r2, #240
 1437 019e 1205     		lsls	r2, r2, #20
 1438 01a0 120D     		lsrs	r2, r2, #20
 1439 01a2 42F44042 		orr	r2, r2, #49152
 1440 01a6 42F08002 		orr	r2, r2, #128
 1441 01aa 21F82420 		strh	r2, [r1, r4, lsl #2]	@ movhi
 1442              	.L97:
1031:Drivers/STM32F3xx_HAL_Driver/Src/stm32f3xx_hal_pcd.c ****       PCD_RX_DTOG(hpcd->Instance, ep->num);
 1443              		.loc 1 1031 0 is_stmt 1
 1444 01ae 0168     		ldr	r1, [r0]
 1445 01b0 1C78     		ldrb	r4, [r3]	@ zero_extendqisi2
 1446 01b2 31F82420 		ldrh	r2, [r1, r4, lsl #2]
 1447 01b6 12F0400F 		tst	r2, #64
 1448 01ba 0BD0     		beq	.L98
1031:Drivers/STM32F3xx_HAL_Driver/Src/stm32f3xx_hal_pcd.c ****       PCD_RX_DTOG(hpcd->Instance, ep->num);
 1449              		.loc 1 1031 0 is_stmt 0 discriminator 1
 1450 01bc 31F82420 		ldrh	r2, [r1, r4, lsl #2]
 1451 01c0 22F0F002 		bic	r2, r2, #240
 1452 01c4 1205     		lsls	r2, r2, #20
 1453 01c6 120D     		lsrs	r2, r2, #20
 1454 01c8 42F40042 		orr	r2, r2, #32768
 1455 01cc 42F0C002 		orr	r2, r2, #192
 1456 01d0 21F82420 		strh	r2, [r1, r4, lsl #2]	@ movhi
 1457              	.L98:
1032:Drivers/STM32F3xx_HAL_Driver/Src/stm32f3xx_hal_pcd.c ****       /* Configure DISABLE status for the Endpoint*/
 1458              		.loc 1 1032 0 is_stmt 1
 1459 01d4 0168     		ldr	r1, [r0]
 1460 01d6 1C78     		ldrb	r4, [r3]	@ zero_extendqisi2
 1461 01d8 31F82420 		ldrh	r2, [r1, r4, lsl #2]
 1462 01dc 22F0F002 		bic	r2, r2, #240
ARM GAS  C:\Users\acw\AppData\Local\Temp\ccoXZyGi.s 			page 46


 1463 01e0 1205     		lsls	r2, r2, #20
 1464 01e2 120D     		lsrs	r2, r2, #20
 1465 01e4 42F44042 		orr	r2, r2, #49152
 1466 01e8 42F08002 		orr	r2, r2, #128
 1467 01ec 21F82420 		strh	r2, [r1, r4, lsl #2]	@ movhi
 1468              	.LBB16:
1034:Drivers/STM32F3xx_HAL_Driver/Src/stm32f3xx_hal_pcd.c ****       PCD_SET_EP_RX_STATUS(hpcd->Instance, ep->num, USB_EP_RX_DIS)
 1469              		.loc 1 1034 0
 1470 01f0 0168     		ldr	r1, [r0]
 1471 01f2 1D78     		ldrb	r5, [r3]	@ zero_extendqisi2
 1472 01f4 31F82520 		ldrh	r2, [r1, r5, lsl #2]
 1473 01f8 92B2     		uxth	r2, r2
 1474 01fa 22F4E042 		bic	r2, r2, #28672
 1475 01fe 22F04002 		bic	r2, r2, #64
 1476              	.LVL112:
 1477 0202 48F28004 		movw	r4, #32896
 1478 0206 2243     		orrs	r2, r2, r4
 1479              	.LVL113:
 1480 0208 21F82520 		strh	r2, [r1, r5, lsl #2]	@ movhi
 1481              	.LBE16:
 1482              	.LBB17:
1035:Drivers/STM32F3xx_HAL_Driver/Src/stm32f3xx_hal_pcd.c ****     }
 1483              		.loc 1 1035 0
 1484 020c 0268     		ldr	r2, [r0]
 1485 020e 1978     		ldrb	r1, [r3]	@ zero_extendqisi2
 1486 0210 32F82130 		ldrh	r3, [r2, r1, lsl #2]
 1487              	.LVL114:
 1488 0214 9BB2     		uxth	r3, r3
 1489 0216 23F48043 		bic	r3, r3, #16384
 1490 021a 23F07003 		bic	r3, r3, #112
 1491              	.LVL115:
 1492 021e 2343     		orrs	r3, r3, r4
 1493              	.LVL116:
 1494 0220 22F82130 		strh	r3, [r2, r1, lsl #2]	@ movhi
 1495 0224 2DE7     		b	.L92
 1496              	.LVL117:
 1497              	.L99:
 1498              	.LBE17:
 995:Drivers/STM32F3xx_HAL_Driver/Src/stm32f3xx_hal_pcd.c **** 
 1499              		.loc 1 995 0
 1500 0226 0220     		movs	r0, #2
 1501              	.LVL118:
 1502 0228 2FE7     		b	.L88
 1503              		.cfi_endproc
 1504              	.LFE149:
 1506              		.section	.text.HAL_PCD_EP_Receive,"ax",%progbits
 1507              		.align	1
 1508              		.global	HAL_PCD_EP_Receive
 1509              		.syntax unified
 1510              		.thumb
 1511              		.thumb_func
 1512              		.fpu fpv4-sp-d16
 1514              	HAL_PCD_EP_Receive:
 1515              	.LFB150:
1042:Drivers/STM32F3xx_HAL_Driver/Src/stm32f3xx_hal_pcd.c **** 
1043:Drivers/STM32F3xx_HAL_Driver/Src/stm32f3xx_hal_pcd.c **** 
1044:Drivers/STM32F3xx_HAL_Driver/Src/stm32f3xx_hal_pcd.c **** /**
ARM GAS  C:\Users\acw\AppData\Local\Temp\ccoXZyGi.s 			page 47


1045:Drivers/STM32F3xx_HAL_Driver/Src/stm32f3xx_hal_pcd.c ****   * @brief  Receive an amount of data  
1046:Drivers/STM32F3xx_HAL_Driver/Src/stm32f3xx_hal_pcd.c ****   * @param  hpcd PCD handle
1047:Drivers/STM32F3xx_HAL_Driver/Src/stm32f3xx_hal_pcd.c ****   * @param  ep_addr endpoint address
1048:Drivers/STM32F3xx_HAL_Driver/Src/stm32f3xx_hal_pcd.c ****   * @param  pBuf pointer to the reception buffer   
1049:Drivers/STM32F3xx_HAL_Driver/Src/stm32f3xx_hal_pcd.c ****   * @param  len amount of data to be received
1050:Drivers/STM32F3xx_HAL_Driver/Src/stm32f3xx_hal_pcd.c ****   * @retval HAL status
1051:Drivers/STM32F3xx_HAL_Driver/Src/stm32f3xx_hal_pcd.c ****   */
1052:Drivers/STM32F3xx_HAL_Driver/Src/stm32f3xx_hal_pcd.c **** HAL_StatusTypeDef HAL_PCD_EP_Receive(PCD_HandleTypeDef *hpcd, uint8_t ep_addr, uint8_t *pBuf, uint3
1053:Drivers/STM32F3xx_HAL_Driver/Src/stm32f3xx_hal_pcd.c **** {
 1516              		.loc 1 1053 0
 1517              		.cfi_startproc
 1518              		@ args = 0, pretend = 0, frame = 0
 1519              		@ frame_needed = 0, uses_anonymous_args = 0
 1520              		@ link register save eliminated.
 1521              	.LVL119:
 1522 0000 70B4     		push	{r4, r5, r6}
 1523              	.LCFI15:
 1524              		.cfi_def_cfa_offset 12
 1525              		.cfi_offset 4, -12
 1526              		.cfi_offset 5, -8
 1527              		.cfi_offset 6, -4
 1528 0002 01F07F01 		and	r1, r1, #127
 1529              	.LVL120:
1054:Drivers/STM32F3xx_HAL_Driver/Src/stm32f3xx_hal_pcd.c ****   
1055:Drivers/STM32F3xx_HAL_Driver/Src/stm32f3xx_hal_pcd.c ****  PCD_EPTypeDef *ep;
1056:Drivers/STM32F3xx_HAL_Driver/Src/stm32f3xx_hal_pcd.c ****   
1057:Drivers/STM32F3xx_HAL_Driver/Src/stm32f3xx_hal_pcd.c ****   ep = &hpcd->OUT_ep[ep_addr & 0x7F];
1058:Drivers/STM32F3xx_HAL_Driver/Src/stm32f3xx_hal_pcd.c ****   
1059:Drivers/STM32F3xx_HAL_Driver/Src/stm32f3xx_hal_pcd.c ****   /*setup and start the Xfer */
1060:Drivers/STM32F3xx_HAL_Driver/Src/stm32f3xx_hal_pcd.c ****   ep->xfer_buff = pBuf;  
 1530              		.loc 1 1060 0
 1531 0006 CD00     		lsls	r5, r1, #3
 1532 0008 6D1A     		subs	r5, r5, r1
 1533 000a AC00     		lsls	r4, r5, #2
 1534 000c 0444     		add	r4, r4, r0
 1535 000e C4F8DC21 		str	r2, [r4, #476]
1061:Drivers/STM32F3xx_HAL_Driver/Src/stm32f3xx_hal_pcd.c ****   ep->xfer_len = len;
 1536              		.loc 1 1061 0
 1537 0012 C4F8E031 		str	r3, [r4, #480]
1062:Drivers/STM32F3xx_HAL_Driver/Src/stm32f3xx_hal_pcd.c ****   ep->xfer_count = 0U;
 1538              		.loc 1 1062 0
 1539 0016 0022     		movs	r2, #0
 1540              	.LVL121:
 1541 0018 C4F8E421 		str	r2, [r4, #484]
1063:Drivers/STM32F3xx_HAL_Driver/Src/stm32f3xx_hal_pcd.c ****   ep->is_in = 0U;
 1542              		.loc 1 1063 0
 1543 001c 84F8CD21 		strb	r2, [r4, #461]
1064:Drivers/STM32F3xx_HAL_Driver/Src/stm32f3xx_hal_pcd.c ****   ep->num = ep_addr & 0x7FU;
 1544              		.loc 1 1064 0
 1545 0020 84F8CC11 		strb	r1, [r4, #460]
1065:Drivers/STM32F3xx_HAL_Driver/Src/stm32f3xx_hal_pcd.c **** 
1066:Drivers/STM32F3xx_HAL_Driver/Src/stm32f3xx_hal_pcd.c ****   /* Multi packet transfer*/
1067:Drivers/STM32F3xx_HAL_Driver/Src/stm32f3xx_hal_pcd.c ****   if (ep->xfer_len > ep->maxpacket)
 1546              		.loc 1 1067 0
 1547 0024 D4F8D821 		ldr	r2, [r4, #472]
 1548 0028 9342     		cmp	r3, r2
 1549 002a 44D9     		bls	.L103
ARM GAS  C:\Users\acw\AppData\Local\Temp\ccoXZyGi.s 			page 48


 1550              	.LVL122:
1068:Drivers/STM32F3xx_HAL_Driver/Src/stm32f3xx_hal_pcd.c ****   {
1069:Drivers/STM32F3xx_HAL_Driver/Src/stm32f3xx_hal_pcd.c ****     len=ep->maxpacket;
1070:Drivers/STM32F3xx_HAL_Driver/Src/stm32f3xx_hal_pcd.c ****     ep->xfer_len-=len; 
 1551              		.loc 1 1070 0
 1552 002c C1EBC105 		rsb	r5, r1, r1, lsl #3
 1553 0030 AC00     		lsls	r4, r5, #2
 1554              	.LVL123:
 1555 0032 0444     		add	r4, r4, r0
 1556              	.LVL124:
 1557 0034 9B1A     		subs	r3, r3, r2
 1558 0036 C4F8E031 		str	r3, [r4, #480]
 1559              	.LVL125:
 1560              	.L104:
1071:Drivers/STM32F3xx_HAL_Driver/Src/stm32f3xx_hal_pcd.c ****   }
1072:Drivers/STM32F3xx_HAL_Driver/Src/stm32f3xx_hal_pcd.c ****   else
1073:Drivers/STM32F3xx_HAL_Driver/Src/stm32f3xx_hal_pcd.c ****   {
1074:Drivers/STM32F3xx_HAL_Driver/Src/stm32f3xx_hal_pcd.c ****     len=ep->xfer_len;
1075:Drivers/STM32F3xx_HAL_Driver/Src/stm32f3xx_hal_pcd.c ****     ep->xfer_len =0U;
1076:Drivers/STM32F3xx_HAL_Driver/Src/stm32f3xx_hal_pcd.c ****   }
1077:Drivers/STM32F3xx_HAL_Driver/Src/stm32f3xx_hal_pcd.c ****   
1078:Drivers/STM32F3xx_HAL_Driver/Src/stm32f3xx_hal_pcd.c ****   /* configure and validate Rx endpoint */
1079:Drivers/STM32F3xx_HAL_Driver/Src/stm32f3xx_hal_pcd.c ****   if (ep->doublebuffer == 0U) 
 1561              		.loc 1 1079 0
 1562 003a C1EBC104 		rsb	r4, r1, r1, lsl #3
 1563 003e A300     		lsls	r3, r4, #2
 1564 0040 0344     		add	r3, r3, r0
 1565 0042 93F8D631 		ldrb	r3, [r3, #470]	@ zero_extendqisi2
 1566 0046 002B     		cmp	r3, #0
 1567 0048 49D1     		bne	.L105
 1568              	.LBB18:
1080:Drivers/STM32F3xx_HAL_Driver/Src/stm32f3xx_hal_pcd.c ****   {
1081:Drivers/STM32F3xx_HAL_Driver/Src/stm32f3xx_hal_pcd.c ****     /*Set RX buffer count*/
1082:Drivers/STM32F3xx_HAL_Driver/Src/stm32f3xx_hal_pcd.c ****     PCD_SET_EP_RX_CNT(hpcd->Instance, ep->num, len)
 1569              		.loc 1 1082 0
 1570 004a 0468     		ldr	r4, [r0]
 1571 004c B4F85030 		ldrh	r3, [r4, #80]
 1572 0050 C1EBC106 		rsb	r6, r1, r1, lsl #3
 1573 0054 B500     		lsls	r5, r6, #2
 1574 0056 0544     		add	r5, r5, r0
 1575 0058 95F8CC51 		ldrb	r5, [r5, #460]	@ zero_extendqisi2
 1576 005c 03EBC503 		add	r3, r3, r5, lsl #3
 1577 0060 0633     		adds	r3, r3, #6
 1578 0062 04EB4303 		add	r3, r4, r3, lsl #1
 1579              	.LVL126:
 1580              	.LBB19:
 1581 0066 3E2A     		cmp	r2, #62
 1582 0068 2ED9     		bls	.L106
 1583              		.loc 1 1082 0 is_stmt 0 discriminator 1
 1584 006a C2F34F14 		ubfx	r4, r2, #5, #16
 1585              	.LVL127:
 1586 006e 12F01F0F 		tst	r2, #31
 1587 0072 01D1     		bne	.L107
 1588              		.loc 1 1082 0 discriminator 3
 1589 0074 013C     		subs	r4, r4, #1
 1590              	.LVL128:
 1591 0076 A4B2     		uxth	r4, r4
ARM GAS  C:\Users\acw\AppData\Local\Temp\ccoXZyGi.s 			page 49


 1592              	.LVL129:
 1593              	.L107:
 1594              		.loc 1 1082 0 discriminator 5
 1595 0078 6FEAC464 		mvn	r4, r4, lsl #27
 1596              	.LVL130:
 1597 007c 6FEA5444 		mvn	r4, r4, lsr #17
 1598 0080 A3F80044 		strh	r4, [r3, #1024]	@ movhi
 1599              	.LVL131:
 1600              	.L108:
 1601              	.LBE19:
 1602              	.LBE18:
 1603              	.LBB21:
1083:Drivers/STM32F3xx_HAL_Driver/Src/stm32f3xx_hal_pcd.c ****   }
1084:Drivers/STM32F3xx_HAL_Driver/Src/stm32f3xx_hal_pcd.c ****   else
1085:Drivers/STM32F3xx_HAL_Driver/Src/stm32f3xx_hal_pcd.c ****   {
1086:Drivers/STM32F3xx_HAL_Driver/Src/stm32f3xx_hal_pcd.c ****     /*Set the Double buffer counter*/
1087:Drivers/STM32F3xx_HAL_Driver/Src/stm32f3xx_hal_pcd.c ****     PCD_SET_EP_DBUF1_CNT(hpcd->Instance, ep->num, ep->is_in, len)
1088:Drivers/STM32F3xx_HAL_Driver/Src/stm32f3xx_hal_pcd.c ****   } 
1089:Drivers/STM32F3xx_HAL_Driver/Src/stm32f3xx_hal_pcd.c ****   
1090:Drivers/STM32F3xx_HAL_Driver/Src/stm32f3xx_hal_pcd.c ****   PCD_SET_EP_RX_STATUS(hpcd->Instance, ep->num, USB_EP_RX_VALID)
 1604              		.loc 1 1090 0 is_stmt 1
 1605 0084 0268     		ldr	r2, [r0]
 1606              	.LVL132:
 1607 0086 C1EBC101 		rsb	r1, r1, r1, lsl #3
 1608              	.LVL133:
 1609 008a 8B00     		lsls	r3, r1, #2
 1610 008c 1844     		add	r0, r0, r3
 1611              	.LVL134:
 1612 008e 90F8CC11 		ldrb	r1, [r0, #460]	@ zero_extendqisi2
 1613 0092 32F82130 		ldrh	r3, [r2, r1, lsl #2]
 1614 0096 9BB2     		uxth	r3, r3
 1615 0098 23F48043 		bic	r3, r3, #16384
 1616 009c 23F07003 		bic	r3, r3, #112
 1617              	.LVL135:
 1618 00a0 83F44053 		eor	r3, r3, #12288
 1619              	.LVL136:
 1620 00a4 43F40043 		orr	r3, r3, #32768
 1621              	.LVL137:
 1622 00a8 43F08003 		orr	r3, r3, #128
 1623 00ac 22F82130 		strh	r3, [r2, r1, lsl #2]	@ movhi
 1624              	.LBE21:
1091:Drivers/STM32F3xx_HAL_Driver/Src/stm32f3xx_hal_pcd.c **** 
1092:Drivers/STM32F3xx_HAL_Driver/Src/stm32f3xx_hal_pcd.c ****   return HAL_OK;
1093:Drivers/STM32F3xx_HAL_Driver/Src/stm32f3xx_hal_pcd.c **** }
 1625              		.loc 1 1093 0
 1626 00b0 0020     		movs	r0, #0
 1627 00b2 70BC     		pop	{r4, r5, r6}
 1628              	.LCFI16:
 1629              		.cfi_remember_state
 1630              		.cfi_restore 6
 1631              		.cfi_restore 5
 1632              		.cfi_restore 4
 1633              		.cfi_def_cfa_offset 0
 1634 00b4 7047     		bx	lr
 1635              	.LVL138:
 1636              	.L103:
 1637              	.LCFI17:
ARM GAS  C:\Users\acw\AppData\Local\Temp\ccoXZyGi.s 			page 50


 1638              		.cfi_restore_state
1075:Drivers/STM32F3xx_HAL_Driver/Src/stm32f3xx_hal_pcd.c ****   }
 1639              		.loc 1 1075 0
 1640 00b6 C1EBC104 		rsb	r4, r1, r1, lsl #3
 1641              	.LVL139:
 1642 00ba A200     		lsls	r2, r4, #2
 1643 00bc 0244     		add	r2, r2, r0
 1644 00be 0024     		movs	r4, #0
 1645 00c0 C2F8E041 		str	r4, [r2, #480]
 1646              	.LVL140:
1074:Drivers/STM32F3xx_HAL_Driver/Src/stm32f3xx_hal_pcd.c ****     ep->xfer_len =0U;
 1647              		.loc 1 1074 0
 1648 00c4 1A46     		mov	r2, r3
 1649 00c6 B8E7     		b	.L104
 1650              	.LVL141:
 1651              	.L106:
 1652              	.LBB22:
 1653              	.LBB20:
1082:Drivers/STM32F3xx_HAL_Driver/Src/stm32f3xx_hal_pcd.c ****   }
 1654              		.loc 1 1082 0 discriminator 2
 1655 00c8 C2F34F04 		ubfx	r4, r2, #1, #16
 1656              	.LVL142:
 1657 00cc 12F0010F 		tst	r2, #1
 1658 00d0 01D0     		beq	.L109
1082:Drivers/STM32F3xx_HAL_Driver/Src/stm32f3xx_hal_pcd.c ****   }
 1659              		.loc 1 1082 0 is_stmt 0 discriminator 6
 1660 00d2 0134     		adds	r4, r4, #1
 1661              	.LVL143:
 1662 00d4 A4B2     		uxth	r4, r4
 1663              	.LVL144:
 1664              	.L109:
1082:Drivers/STM32F3xx_HAL_Driver/Src/stm32f3xx_hal_pcd.c ****   }
 1665              		.loc 1 1082 0 discriminator 8
 1666 00d6 A402     		lsls	r4, r4, #10
 1667              	.LVL145:
 1668 00d8 A3F80044 		strh	r4, [r3, #1024]	@ movhi
 1669 00dc D2E7     		b	.L108
 1670              	.LVL146:
 1671              	.L105:
 1672              	.LBE20:
 1673              	.LBE22:
1087:Drivers/STM32F3xx_HAL_Driver/Src/stm32f3xx_hal_pcd.c ****   } 
 1674              		.loc 1 1087 0 is_stmt 1
 1675 00de C1EBC104 		rsb	r4, r1, r1, lsl #3
 1676 00e2 A300     		lsls	r3, r4, #2
 1677 00e4 0344     		add	r3, r3, r0
 1678 00e6 93F8CD31 		ldrb	r3, [r3, #461]	@ zero_extendqisi2
 1679 00ea 43BB     		cbnz	r3, .L110
 1680              	.LBB23:
1087:Drivers/STM32F3xx_HAL_Driver/Src/stm32f3xx_hal_pcd.c ****   } 
 1681              		.loc 1 1087 0 is_stmt 0 discriminator 1
 1682 00ec 0468     		ldr	r4, [r0]
 1683 00ee B4F85030 		ldrh	r3, [r4, #80]
 1684 00f2 C1EBC106 		rsb	r6, r1, r1, lsl #3
 1685 00f6 B500     		lsls	r5, r6, #2
 1686 00f8 0544     		add	r5, r5, r0
 1687 00fa 95F8CC51 		ldrb	r5, [r5, #460]	@ zero_extendqisi2
ARM GAS  C:\Users\acw\AppData\Local\Temp\ccoXZyGi.s 			page 51


 1688 00fe 03EBC503 		add	r3, r3, r5, lsl #3
 1689 0102 0633     		adds	r3, r3, #6
 1690 0104 04EB4303 		add	r3, r4, r3, lsl #1
 1691              	.LVL147:
 1692              	.LBB24:
 1693 0108 3E2A     		cmp	r2, #62
 1694 010a 0DD9     		bls	.L111
1087:Drivers/STM32F3xx_HAL_Driver/Src/stm32f3xx_hal_pcd.c ****   } 
 1695              		.loc 1 1087 0 discriminator 3
 1696 010c C2F34F14 		ubfx	r4, r2, #5, #16
 1697              	.LVL148:
 1698 0110 12F01F0F 		tst	r2, #31
 1699 0114 01D1     		bne	.L112
1087:Drivers/STM32F3xx_HAL_Driver/Src/stm32f3xx_hal_pcd.c ****   } 
 1700              		.loc 1 1087 0 discriminator 5
 1701 0116 013C     		subs	r4, r4, #1
 1702              	.LVL149:
 1703 0118 A4B2     		uxth	r4, r4
 1704              	.LVL150:
 1705              	.L112:
1087:Drivers/STM32F3xx_HAL_Driver/Src/stm32f3xx_hal_pcd.c ****   } 
 1706              		.loc 1 1087 0 discriminator 7
 1707 011a 6FEAC464 		mvn	r4, r4, lsl #27
 1708              	.LVL151:
 1709 011e 6FEA5444 		mvn	r4, r4, lsr #17
 1710 0122 A3F80044 		strh	r4, [r3, #1024]	@ movhi
 1711 0126 ADE7     		b	.L108
 1712              	.L111:
1087:Drivers/STM32F3xx_HAL_Driver/Src/stm32f3xx_hal_pcd.c ****   } 
 1713              		.loc 1 1087 0 discriminator 4
 1714 0128 C2F34F04 		ubfx	r4, r2, #1, #16
 1715              	.LVL152:
 1716 012c 12F0010F 		tst	r2, #1
 1717 0130 01D0     		beq	.L113
1087:Drivers/STM32F3xx_HAL_Driver/Src/stm32f3xx_hal_pcd.c ****   } 
 1718              		.loc 1 1087 0 discriminator 8
 1719 0132 0134     		adds	r4, r4, #1
 1720              	.LVL153:
 1721 0134 A4B2     		uxth	r4, r4
 1722              	.LVL154:
 1723              	.L113:
1087:Drivers/STM32F3xx_HAL_Driver/Src/stm32f3xx_hal_pcd.c ****   } 
 1724              		.loc 1 1087 0 discriminator 10
 1725 0136 A402     		lsls	r4, r4, #10
 1726              	.LVL155:
 1727 0138 A3F80044 		strh	r4, [r3, #1024]	@ movhi
 1728 013c A2E7     		b	.L108
 1729              	.LVL156:
 1730              	.L110:
 1731              	.LBE24:
 1732              	.LBE23:
1087:Drivers/STM32F3xx_HAL_Driver/Src/stm32f3xx_hal_pcd.c ****   } 
 1733              		.loc 1 1087 0 discriminator 2
 1734 013e 012B     		cmp	r3, #1
 1735 0140 A0D1     		bne	.L108
1087:Drivers/STM32F3xx_HAL_Driver/Src/stm32f3xx_hal_pcd.c ****   } 
 1736              		.loc 1 1087 0 discriminator 11
ARM GAS  C:\Users\acw\AppData\Local\Temp\ccoXZyGi.s 			page 52


 1737 0142 0468     		ldr	r4, [r0]
 1738 0144 B4F85030 		ldrh	r3, [r4, #80]
 1739 0148 C1EBC106 		rsb	r6, r1, r1, lsl #3
 1740 014c B500     		lsls	r5, r6, #2
 1741 014e 0544     		add	r5, r5, r0
 1742 0150 95F8CC51 		ldrb	r5, [r5, #460]	@ zero_extendqisi2
 1743 0154 03EBC503 		add	r3, r3, r5, lsl #3
 1744 0158 0633     		adds	r3, r3, #6
 1745 015a 04EB4303 		add	r3, r4, r3, lsl #1
 1746 015e A3F80024 		strh	r2, [r3, #1024]	@ movhi
 1747 0162 8FE7     		b	.L108
 1748              		.cfi_endproc
 1749              	.LFE150:
 1751              		.section	.text.HAL_PCD_EP_GetRxCount,"ax",%progbits
 1752              		.align	1
 1753              		.global	HAL_PCD_EP_GetRxCount
 1754              		.syntax unified
 1755              		.thumb
 1756              		.thumb_func
 1757              		.fpu fpv4-sp-d16
 1759              	HAL_PCD_EP_GetRxCount:
 1760              	.LFB151:
1094:Drivers/STM32F3xx_HAL_Driver/Src/stm32f3xx_hal_pcd.c **** 
1095:Drivers/STM32F3xx_HAL_Driver/Src/stm32f3xx_hal_pcd.c **** /**
1096:Drivers/STM32F3xx_HAL_Driver/Src/stm32f3xx_hal_pcd.c ****   * @brief  Get Received Data Size
1097:Drivers/STM32F3xx_HAL_Driver/Src/stm32f3xx_hal_pcd.c ****   * @param  hpcd PCD handle
1098:Drivers/STM32F3xx_HAL_Driver/Src/stm32f3xx_hal_pcd.c ****   * @param  ep_addr endpoint address
1099:Drivers/STM32F3xx_HAL_Driver/Src/stm32f3xx_hal_pcd.c ****   * @retval Data Size
1100:Drivers/STM32F3xx_HAL_Driver/Src/stm32f3xx_hal_pcd.c ****   */
1101:Drivers/STM32F3xx_HAL_Driver/Src/stm32f3xx_hal_pcd.c **** uint16_t HAL_PCD_EP_GetRxCount(PCD_HandleTypeDef *hpcd, uint8_t ep_addr)
1102:Drivers/STM32F3xx_HAL_Driver/Src/stm32f3xx_hal_pcd.c **** {
 1761              		.loc 1 1102 0 is_stmt 1
 1762              		.cfi_startproc
 1763              		@ args = 0, pretend = 0, frame = 0
 1764              		@ frame_needed = 0, uses_anonymous_args = 0
 1765              		@ link register save eliminated.
 1766              	.LVL157:
1103:Drivers/STM32F3xx_HAL_Driver/Src/stm32f3xx_hal_pcd.c ****   return hpcd->OUT_ep[ep_addr & 0x7F].xfer_count;
 1767              		.loc 1 1103 0
 1768 0000 01F07F01 		and	r1, r1, #127
 1769              	.LVL158:
 1770 0004 C1EBC101 		rsb	r1, r1, r1, lsl #3
 1771 0008 8B00     		lsls	r3, r1, #2
 1772 000a 1844     		add	r0, r0, r3
 1773              	.LVL159:
1104:Drivers/STM32F3xx_HAL_Driver/Src/stm32f3xx_hal_pcd.c **** }
 1774              		.loc 1 1104 0
 1775 000c B0F8E401 		ldrh	r0, [r0, #484]
 1776 0010 7047     		bx	lr
 1777              		.cfi_endproc
 1778              	.LFE151:
 1780              		.section	.text.HAL_PCD_EP_Transmit,"ax",%progbits
 1781              		.align	1
 1782              		.global	HAL_PCD_EP_Transmit
 1783              		.syntax unified
 1784              		.thumb
 1785              		.thumb_func
ARM GAS  C:\Users\acw\AppData\Local\Temp\ccoXZyGi.s 			page 53


 1786              		.fpu fpv4-sp-d16
 1788              	HAL_PCD_EP_Transmit:
 1789              	.LFB152:
1105:Drivers/STM32F3xx_HAL_Driver/Src/stm32f3xx_hal_pcd.c **** /**
1106:Drivers/STM32F3xx_HAL_Driver/Src/stm32f3xx_hal_pcd.c ****   * @brief  Send an amount of data  
1107:Drivers/STM32F3xx_HAL_Driver/Src/stm32f3xx_hal_pcd.c ****   * @param  hpcd PCD handle
1108:Drivers/STM32F3xx_HAL_Driver/Src/stm32f3xx_hal_pcd.c ****   * @param  ep_addr endpoint address
1109:Drivers/STM32F3xx_HAL_Driver/Src/stm32f3xx_hal_pcd.c ****   * @param  pBuf pointer to the transmission buffer   
1110:Drivers/STM32F3xx_HAL_Driver/Src/stm32f3xx_hal_pcd.c ****   * @param  len amount of data to be sent
1111:Drivers/STM32F3xx_HAL_Driver/Src/stm32f3xx_hal_pcd.c ****   * @retval HAL status
1112:Drivers/STM32F3xx_HAL_Driver/Src/stm32f3xx_hal_pcd.c ****   */
1113:Drivers/STM32F3xx_HAL_Driver/Src/stm32f3xx_hal_pcd.c **** HAL_StatusTypeDef HAL_PCD_EP_Transmit(PCD_HandleTypeDef *hpcd, uint8_t ep_addr, uint8_t *pBuf, uint
1114:Drivers/STM32F3xx_HAL_Driver/Src/stm32f3xx_hal_pcd.c **** {
 1790              		.loc 1 1114 0
 1791              		.cfi_startproc
 1792              		@ args = 0, pretend = 0, frame = 0
 1793              		@ frame_needed = 0, uses_anonymous_args = 0
 1794              	.LVL160:
 1795 0000 F8B5     		push	{r3, r4, r5, r6, r7, lr}
 1796              	.LCFI18:
 1797              		.cfi_def_cfa_offset 24
 1798              		.cfi_offset 3, -24
 1799              		.cfi_offset 4, -20
 1800              		.cfi_offset 5, -16
 1801              		.cfi_offset 6, -12
 1802              		.cfi_offset 7, -8
 1803              		.cfi_offset 14, -4
 1804 0002 0546     		mov	r5, r0
 1805              	.LVL161:
 1806 0004 01F07F04 		and	r4, r1, #127
 1807              	.LVL162:
1115:Drivers/STM32F3xx_HAL_Driver/Src/stm32f3xx_hal_pcd.c ****   PCD_EPTypeDef *ep;
1116:Drivers/STM32F3xx_HAL_Driver/Src/stm32f3xx_hal_pcd.c ****   uint16_t pmabuffer = 0U;
1117:Drivers/STM32F3xx_HAL_Driver/Src/stm32f3xx_hal_pcd.c ****     
1118:Drivers/STM32F3xx_HAL_Driver/Src/stm32f3xx_hal_pcd.c ****   ep = &hpcd->IN_ep[ep_addr & 0x7F];
1119:Drivers/STM32F3xx_HAL_Driver/Src/stm32f3xx_hal_pcd.c ****   
1120:Drivers/STM32F3xx_HAL_Driver/Src/stm32f3xx_hal_pcd.c ****   /*setup and start the Xfer */
1121:Drivers/STM32F3xx_HAL_Driver/Src/stm32f3xx_hal_pcd.c ****   ep->xfer_buff = pBuf;  
 1808              		.loc 1 1121 0
 1809 0008 E000     		lsls	r0, r4, #3
 1810              	.LVL163:
 1811 000a 001B     		subs	r0, r0, r4
 1812 000c 8100     		lsls	r1, r0, #2
 1813              	.LVL164:
 1814 000e 2944     		add	r1, r1, r5
 1815 0010 8A63     		str	r2, [r1, #56]
1122:Drivers/STM32F3xx_HAL_Driver/Src/stm32f3xx_hal_pcd.c ****   ep->xfer_len = len;
 1816              		.loc 1 1122 0
 1817 0012 CB63     		str	r3, [r1, #60]
1123:Drivers/STM32F3xx_HAL_Driver/Src/stm32f3xx_hal_pcd.c ****   ep->xfer_count = 0U;
 1818              		.loc 1 1123 0
 1819 0014 0022     		movs	r2, #0
 1820              	.LVL165:
 1821 0016 0A64     		str	r2, [r1, #64]
1124:Drivers/STM32F3xx_HAL_Driver/Src/stm32f3xx_hal_pcd.c ****   ep->is_in = 1U;
 1822              		.loc 1 1124 0
 1823 0018 0122     		movs	r2, #1
ARM GAS  C:\Users\acw\AppData\Local\Temp\ccoXZyGi.s 			page 54


 1824 001a 81F82920 		strb	r2, [r1, #41]
1125:Drivers/STM32F3xx_HAL_Driver/Src/stm32f3xx_hal_pcd.c ****   ep->num = ep_addr & 0x7FU;
 1825              		.loc 1 1125 0
 1826 001e 81F82840 		strb	r4, [r1, #40]
1126:Drivers/STM32F3xx_HAL_Driver/Src/stm32f3xx_hal_pcd.c **** 
1127:Drivers/STM32F3xx_HAL_Driver/Src/stm32f3xx_hal_pcd.c ****   /*Multi packet transfer*/
1128:Drivers/STM32F3xx_HAL_Driver/Src/stm32f3xx_hal_pcd.c ****   if (ep->xfer_len > ep->maxpacket)
 1827              		.loc 1 1128 0
 1828 0022 4F6B     		ldr	r7, [r1, #52]
 1829 0024 BB42     		cmp	r3, r7
 1830 0026 3CD9     		bls	.L117
 1831              	.LVL166:
1129:Drivers/STM32F3xx_HAL_Driver/Src/stm32f3xx_hal_pcd.c ****   {
1130:Drivers/STM32F3xx_HAL_Driver/Src/stm32f3xx_hal_pcd.c ****     len=ep->maxpacket;
1131:Drivers/STM32F3xx_HAL_Driver/Src/stm32f3xx_hal_pcd.c ****     ep->xfer_len-=len; 
 1832              		.loc 1 1131 0
 1833 0028 DB1B     		subs	r3, r3, r7
 1834 002a CB63     		str	r3, [r1, #60]
 1835              	.LVL167:
 1836              	.L118:
1132:Drivers/STM32F3xx_HAL_Driver/Src/stm32f3xx_hal_pcd.c ****   }
1133:Drivers/STM32F3xx_HAL_Driver/Src/stm32f3xx_hal_pcd.c ****   else
1134:Drivers/STM32F3xx_HAL_Driver/Src/stm32f3xx_hal_pcd.c ****   {  
1135:Drivers/STM32F3xx_HAL_Driver/Src/stm32f3xx_hal_pcd.c ****     len=ep->xfer_len;
1136:Drivers/STM32F3xx_HAL_Driver/Src/stm32f3xx_hal_pcd.c ****     ep->xfer_len =0U;
1137:Drivers/STM32F3xx_HAL_Driver/Src/stm32f3xx_hal_pcd.c ****   }
1138:Drivers/STM32F3xx_HAL_Driver/Src/stm32f3xx_hal_pcd.c ****   
1139:Drivers/STM32F3xx_HAL_Driver/Src/stm32f3xx_hal_pcd.c ****   /* configure and validate Tx endpoint */
1140:Drivers/STM32F3xx_HAL_Driver/Src/stm32f3xx_hal_pcd.c ****   if (ep->doublebuffer == 0U) 
 1837              		.loc 1 1140 0
 1838 002c C4EBC403 		rsb	r3, r4, r4, lsl #3
 1839 0030 9A00     		lsls	r2, r3, #2
 1840 0032 2A44     		add	r2, r2, r5
 1841 0034 92F83230 		ldrb	r3, [r2, #50]	@ zero_extendqisi2
 1842 0038 002B     		cmp	r3, #0
 1843 003a 3AD0     		beq	.L125
1141:Drivers/STM32F3xx_HAL_Driver/Src/stm32f3xx_hal_pcd.c ****   {
1142:Drivers/STM32F3xx_HAL_Driver/Src/stm32f3xx_hal_pcd.c ****     PCD_WritePMA(hpcd->Instance, ep->xfer_buff, ep->pmaadress, len);
1143:Drivers/STM32F3xx_HAL_Driver/Src/stm32f3xx_hal_pcd.c ****     PCD_SET_EP_TX_CNT(hpcd->Instance, ep->num, len);
1144:Drivers/STM32F3xx_HAL_Driver/Src/stm32f3xx_hal_pcd.c ****   }
1145:Drivers/STM32F3xx_HAL_Driver/Src/stm32f3xx_hal_pcd.c ****   else
1146:Drivers/STM32F3xx_HAL_Driver/Src/stm32f3xx_hal_pcd.c ****   {
1147:Drivers/STM32F3xx_HAL_Driver/Src/stm32f3xx_hal_pcd.c ****     /*Write the data to the USB endpoint*/
1148:Drivers/STM32F3xx_HAL_Driver/Src/stm32f3xx_hal_pcd.c ****     if ((PCD_GET_ENDPOINT(hpcd->Instance, ep->num)& USB_EP_DTOG_TX) == USB_EP_DTOG_TX)
 1844              		.loc 1 1148 0
 1845 003c 2868     		ldr	r0, [r5]
 1846 003e C4EBC402 		rsb	r2, r4, r4, lsl #3
 1847 0042 9300     		lsls	r3, r2, #2
 1848 0044 2B44     		add	r3, r3, r5
 1849 0046 93F82830 		ldrb	r3, [r3, #40]	@ zero_extendqisi2
 1850 004a 30F82330 		ldrh	r3, [r0, r3, lsl #2]
 1851 004e 13F0400F 		tst	r3, #64
 1852 0052 43D0     		beq	.L121
1149:Drivers/STM32F3xx_HAL_Driver/Src/stm32f3xx_hal_pcd.c ****     {
1150:Drivers/STM32F3xx_HAL_Driver/Src/stm32f3xx_hal_pcd.c ****       pmabuffer = ep->pmaaddr1;
 1853              		.loc 1 1150 0
 1854 0054 C4EBC402 		rsb	r2, r4, r4, lsl #3
ARM GAS  C:\Users\acw\AppData\Local\Temp\ccoXZyGi.s 			page 55


 1855 0058 9300     		lsls	r3, r2, #2
 1856 005a 2B44     		add	r3, r3, r5
 1857 005c 1A8E     		ldrh	r2, [r3, #48]
 1858              	.LVL168:
 1859              	.L122:
1151:Drivers/STM32F3xx_HAL_Driver/Src/stm32f3xx_hal_pcd.c ****     }
1152:Drivers/STM32F3xx_HAL_Driver/Src/stm32f3xx_hal_pcd.c ****     else
1153:Drivers/STM32F3xx_HAL_Driver/Src/stm32f3xx_hal_pcd.c ****     {
1154:Drivers/STM32F3xx_HAL_Driver/Src/stm32f3xx_hal_pcd.c ****       pmabuffer = ep->pmaaddr0;
1155:Drivers/STM32F3xx_HAL_Driver/Src/stm32f3xx_hal_pcd.c ****     }
1156:Drivers/STM32F3xx_HAL_Driver/Src/stm32f3xx_hal_pcd.c ****     PCD_WritePMA(hpcd->Instance, ep->xfer_buff, pmabuffer, len);
 1860              		.loc 1 1156 0
 1861 005e E300     		lsls	r3, r4, #3
 1862 0060 1B1B     		subs	r3, r3, r4
 1863 0062 9E00     		lsls	r6, r3, #2
 1864 0064 2E44     		add	r6, r6, r5
 1865 0066 BBB2     		uxth	r3, r7
 1866 0068 B16B     		ldr	r1, [r6, #56]
 1867 006a FFF7FEFF 		bl	PCD_WritePMA
 1868              	.LVL169:
1157:Drivers/STM32F3xx_HAL_Driver/Src/stm32f3xx_hal_pcd.c ****     PCD_FreeUserBuffer(hpcd->Instance, ep->num, ep->is_in)
 1869              		.loc 1 1157 0
 1870 006e 96F82930 		ldrb	r3, [r6, #41]	@ zero_extendqisi2
 1871 0072 002B     		cmp	r3, #0
 1872 0074 38D0     		beq	.L126
 1873              		.loc 1 1157 0 is_stmt 0 discriminator 2
 1874 0076 012B     		cmp	r3, #1
 1875 0078 45D1     		bne	.L120
 1876              		.loc 1 1157 0 discriminator 3
 1877 007a 2A68     		ldr	r2, [r5]
 1878 007c C4EBC401 		rsb	r1, r4, r4, lsl #3
 1879 0080 8B00     		lsls	r3, r1, #2
 1880 0082 2B44     		add	r3, r3, r5
 1881 0084 93F82810 		ldrb	r1, [r3, #40]	@ zero_extendqisi2
 1882 0088 32F82130 		ldrh	r3, [r2, r1, lsl #2]
 1883 008c 23F0F003 		bic	r3, r3, #240
 1884 0090 1B05     		lsls	r3, r3, #20
 1885 0092 1B0D     		lsrs	r3, r3, #20
 1886 0094 43F44043 		orr	r3, r3, #49152
 1887 0098 43F08003 		orr	r3, r3, #128
 1888 009c 22F82130 		strh	r3, [r2, r1, lsl #2]	@ movhi
 1889 00a0 31E0     		b	.L120
 1890              	.LVL170:
 1891              	.L117:
1136:Drivers/STM32F3xx_HAL_Driver/Src/stm32f3xx_hal_pcd.c ****   }
 1892              		.loc 1 1136 0 is_stmt 1
 1893 00a2 C4EBC401 		rsb	r1, r4, r4, lsl #3
 1894              	.LVL171:
 1895 00a6 8A00     		lsls	r2, r1, #2
 1896 00a8 2A44     		add	r2, r2, r5
 1897 00aa 0021     		movs	r1, #0
 1898 00ac D163     		str	r1, [r2, #60]
 1899              	.LVL172:
1135:Drivers/STM32F3xx_HAL_Driver/Src/stm32f3xx_hal_pcd.c ****     ep->xfer_len =0U;
 1900              		.loc 1 1135 0
 1901 00ae 1F46     		mov	r7, r3
 1902 00b0 BCE7     		b	.L118
ARM GAS  C:\Users\acw\AppData\Local\Temp\ccoXZyGi.s 			page 56


 1903              	.LVL173:
 1904              	.L125:
1142:Drivers/STM32F3xx_HAL_Driver/Src/stm32f3xx_hal_pcd.c ****     PCD_SET_EP_TX_CNT(hpcd->Instance, ep->num, len);
 1905              		.loc 1 1142 0
 1906 00b2 BFB2     		uxth	r7, r7
 1907              	.LVL174:
 1908 00b4 1646     		mov	r6, r2
 1909 00b6 3B46     		mov	r3, r7
 1910 00b8 928D     		ldrh	r2, [r2, #44]
 1911 00ba B16B     		ldr	r1, [r6, #56]
 1912 00bc 2868     		ldr	r0, [r5]
 1913 00be FFF7FEFF 		bl	PCD_WritePMA
 1914              	.LVL175:
1143:Drivers/STM32F3xx_HAL_Driver/Src/stm32f3xx_hal_pcd.c ****   }
 1915              		.loc 1 1143 0
 1916 00c2 2A68     		ldr	r2, [r5]
 1917 00c4 B2F85030 		ldrh	r3, [r2, #80]
 1918 00c8 96F82810 		ldrb	r1, [r6, #40]	@ zero_extendqisi2
 1919 00cc 03EBC103 		add	r3, r3, r1, lsl #3
 1920 00d0 0233     		adds	r3, r3, #2
 1921 00d2 02EB4303 		add	r3, r2, r3, lsl #1
 1922 00d6 A3F80074 		strh	r7, [r3, #1024]	@ movhi
 1923 00da 14E0     		b	.L120
 1924              	.LVL176:
 1925              	.L121:
1154:Drivers/STM32F3xx_HAL_Driver/Src/stm32f3xx_hal_pcd.c ****     }
 1926              		.loc 1 1154 0
 1927 00dc C4EBC402 		rsb	r2, r4, r4, lsl #3
 1928 00e0 9300     		lsls	r3, r2, #2
 1929 00e2 2B44     		add	r3, r3, r5
 1930 00e4 DA8D     		ldrh	r2, [r3, #46]
 1931              	.LVL177:
 1932 00e6 BAE7     		b	.L122
 1933              	.LVL178:
 1934              	.L126:
 1935              		.loc 1 1157 0 discriminator 1
 1936 00e8 2A68     		ldr	r2, [r5]
 1937 00ea 96F82810 		ldrb	r1, [r6, #40]	@ zero_extendqisi2
 1938 00ee 32F82130 		ldrh	r3, [r2, r1, lsl #2]
 1939 00f2 23F0F003 		bic	r3, r3, #240
 1940 00f6 1B05     		lsls	r3, r3, #20
 1941 00f8 1B0D     		lsrs	r3, r3, #20
 1942 00fa 43F40043 		orr	r3, r3, #32768
 1943 00fe 43F0C003 		orr	r3, r3, #192
 1944 0102 22F82130 		strh	r3, [r2, r1, lsl #2]	@ movhi
 1945              	.LVL179:
 1946              	.L120:
 1947              	.LBB25:
1158:Drivers/STM32F3xx_HAL_Driver/Src/stm32f3xx_hal_pcd.c ****   }
1159:Drivers/STM32F3xx_HAL_Driver/Src/stm32f3xx_hal_pcd.c **** 
1160:Drivers/STM32F3xx_HAL_Driver/Src/stm32f3xx_hal_pcd.c ****   PCD_SET_EP_TX_STATUS(hpcd->Instance, ep->num, USB_EP_TX_VALID)
 1948              		.loc 1 1160 0
 1949 0106 2A68     		ldr	r2, [r5]
 1950 0108 C4EBC404 		rsb	r4, r4, r4, lsl #3
 1951              	.LVL180:
 1952 010c A300     		lsls	r3, r4, #2
 1953 010e 1D44     		add	r5, r5, r3
ARM GAS  C:\Users\acw\AppData\Local\Temp\ccoXZyGi.s 			page 57


 1954              	.LVL181:
 1955 0110 95F82810 		ldrb	r1, [r5, #40]	@ zero_extendqisi2
 1956 0114 32F82130 		ldrh	r3, [r2, r1, lsl #2]
 1957 0118 9BB2     		uxth	r3, r3
 1958 011a 23F4E043 		bic	r3, r3, #28672
 1959 011e 23F04003 		bic	r3, r3, #64
 1960              	.LVL182:
 1961 0122 83F03003 		eor	r3, r3, #48
 1962              	.LVL183:
 1963 0126 43F40043 		orr	r3, r3, #32768
 1964              	.LVL184:
 1965 012a 43F08003 		orr	r3, r3, #128
 1966 012e 22F82130 		strh	r3, [r2, r1, lsl #2]	@ movhi
 1967              	.LBE25:
1161:Drivers/STM32F3xx_HAL_Driver/Src/stm32f3xx_hal_pcd.c **** 
1162:Drivers/STM32F3xx_HAL_Driver/Src/stm32f3xx_hal_pcd.c ****   return HAL_OK;
1163:Drivers/STM32F3xx_HAL_Driver/Src/stm32f3xx_hal_pcd.c **** }
 1968              		.loc 1 1163 0
 1969 0132 0020     		movs	r0, #0
 1970 0134 F8BD     		pop	{r3, r4, r5, r6, r7, pc}
 1971              		.cfi_endproc
 1972              	.LFE152:
 1974              		.section	.text.PCD_EP_ISR_Handler,"ax",%progbits
 1975              		.align	1
 1976              		.syntax unified
 1977              		.thumb
 1978              		.thumb_func
 1979              		.fpu fpv4-sp-d16
 1981              	PCD_EP_ISR_Handler:
 1982              	.LFB132:
 340:Drivers/STM32F3xx_HAL_Driver/Src/stm32f3xx_hal_pcd.c ****   PCD_EPTypeDef *ep;
 1983              		.loc 1 340 0
 1984              		.cfi_startproc
 1985              		@ args = 0, pretend = 0, frame = 8
 1986              		@ frame_needed = 0, uses_anonymous_args = 0
 1987              	.LVL185:
 1988 0000 70B5     		push	{r4, r5, r6, lr}
 1989              	.LCFI19:
 1990              		.cfi_def_cfa_offset 16
 1991              		.cfi_offset 4, -16
 1992              		.cfi_offset 5, -12
 1993              		.cfi_offset 6, -8
 1994              		.cfi_offset 14, -4
 1995 0002 82B0     		sub	sp, sp, #8
 1996              	.LCFI20:
 1997              		.cfi_def_cfa_offset 24
 1998 0004 0546     		mov	r5, r0
 1999              	.LVL186:
 345:Drivers/STM32F3xx_HAL_Driver/Src/stm32f3xx_hal_pcd.c ****   
 2000              		.loc 1 345 0
 2001 0006 0023     		movs	r3, #0
 2002 0008 ADF80430 		strh	r3, [sp, #4]	@ movhi
 2003              	.LVL187:
 2004              	.L128:
 348:Drivers/STM32F3xx_HAL_Driver/Src/stm32f3xx_hal_pcd.c ****   {
 2005              		.loc 1 348 0
 2006 000c 2868     		ldr	r0, [r5]
ARM GAS  C:\Users\acw\AppData\Local\Temp\ccoXZyGi.s 			page 58


 2007 000e B0F84430 		ldrh	r3, [r0, #68]
 2008 0012 9BB2     		uxth	r3, r3
 2009 0014 ADF80630 		strh	r3, [sp, #6]	@ movhi
 2010 0018 13F4004F 		tst	r3, #32768
 2011 001c 00F02582 		beq	.L152
 351:Drivers/STM32F3xx_HAL_Driver/Src/stm32f3xx_hal_pcd.c ****     
 2012              		.loc 1 351 0
 2013 0020 BDF80640 		ldrh	r4, [sp, #6]
 2014              	.LVL188:
 353:Drivers/STM32F3xx_HAL_Driver/Src/stm32f3xx_hal_pcd.c ****     {
 2015              		.loc 1 353 0
 2016 0024 14F00F04 		ands	r4, r4, #15
 2017              	.LVL189:
 2018 0028 40F0C080 		bne	.L129
 358:Drivers/STM32F3xx_HAL_Driver/Src/stm32f3xx_hal_pcd.c ****       {
 2019              		.loc 1 358 0
 2020 002c BDF80630 		ldrh	r3, [sp, #6]
 2021 0030 13F0100F 		tst	r3, #16
 2022 0034 4FD0     		beq	.L153
 2023              	.LVL190:
 388:Drivers/STM32F3xx_HAL_Driver/Src/stm32f3xx_hal_pcd.c ****         
 2024              		.loc 1 388 0
 2025 0036 0388     		ldrh	r3, [r0]
 2026 0038 9BB2     		uxth	r3, r3
 2027 003a ADF80430 		strh	r3, [sp, #4]	@ movhi
 390:Drivers/STM32F3xx_HAL_Driver/Src/stm32f3xx_hal_pcd.c ****         {
 2028              		.loc 1 390 0
 2029 003e BDF80430 		ldrh	r3, [sp, #4]
 2030 0042 13F4006F 		tst	r3, #2048
 2031 0046 78D1     		bne	.L154
 402:Drivers/STM32F3xx_HAL_Driver/Src/stm32f3xx_hal_pcd.c ****         {
 2032              		.loc 1 402 0
 2033 0048 BDF80430 		ldrh	r3, [sp, #4]
 2034 004c 13F4004F 		tst	r3, #32768
 2035 0050 DCD0     		beq	.L128
 404:Drivers/STM32F3xx_HAL_Driver/Src/stm32f3xx_hal_pcd.c ****           /* Get Control Data OUT Packet*/
 2036              		.loc 1 404 0
 2037 0052 0388     		ldrh	r3, [r0]
 2038 0054 23F07003 		bic	r3, r3, #112
 2039 0058 1B05     		lsls	r3, r3, #20
 2040 005a 1B0D     		lsrs	r3, r3, #20
 2041 005c 0380     		strh	r3, [r0]	@ movhi
 406:Drivers/STM32F3xx_HAL_Driver/Src/stm32f3xx_hal_pcd.c ****           
 2042              		.loc 1 406 0
 2043 005e 2868     		ldr	r0, [r5]
 2044 0060 B0F85030 		ldrh	r3, [r0, #80]
 2045 0064 95F8CC21 		ldrb	r2, [r5, #460]	@ zero_extendqisi2
 2046 0068 03EBC203 		add	r3, r3, r2, lsl #3
 2047 006c 0633     		adds	r3, r3, #6
 2048 006e 00EB4303 		add	r3, r0, r3, lsl #1
 2049 0072 B3F80034 		ldrh	r3, [r3, #1024]
 2050 0076 C3F30903 		ubfx	r3, r3, #0, #10
 2051 007a C5F8E431 		str	r3, [r5, #484]
 408:Drivers/STM32F3xx_HAL_Driver/Src/stm32f3xx_hal_pcd.c ****           {
 2052              		.loc 1 408 0
 2053 007e 002B     		cmp	r3, #0
 2054 0080 7BD1     		bne	.L155
ARM GAS  C:\Users\acw\AppData\Local\Temp\ccoXZyGi.s 			page 59


 2055              	.L133:
 415:Drivers/STM32F3xx_HAL_Driver/Src/stm32f3xx_hal_pcd.c ****           
 2056              		.loc 1 415 0
 2057 0082 0021     		movs	r1, #0
 2058 0084 2846     		mov	r0, r5
 2059 0086 FFF7FEFF 		bl	HAL_PCD_DataOutStageCallback
 2060              	.LVL191:
 2061              	.LBB26:
 417:Drivers/STM32F3xx_HAL_Driver/Src/stm32f3xx_hal_pcd.c ****           PCD_SET_EP_RX_STATUS(hpcd->Instance, PCD_ENDP0, USB_EP_RX_VALID)
 2062              		.loc 1 417 0
 2063 008a 2B68     		ldr	r3, [r5]
 2064 008c B3F85020 		ldrh	r2, [r3, #80]
 2065 0090 0632     		adds	r2, r2, #6
 2066 0092 03EB4203 		add	r3, r3, r2, lsl #1
 2067              	.LVL192:
 2068              	.LBB27:
 2069 0096 D5F8D821 		ldr	r2, [r5, #472]
 2070 009a 3E2A     		cmp	r2, #62
 2071 009c 7BD9     		bls	.L134
 417:Drivers/STM32F3xx_HAL_Driver/Src/stm32f3xx_hal_pcd.c ****           PCD_SET_EP_RX_STATUS(hpcd->Instance, PCD_ENDP0, USB_EP_RX_VALID)
 2072              		.loc 1 417 0 is_stmt 0 discriminator 1
 2073 009e C2F34F11 		ubfx	r1, r2, #5, #16
 2074              	.LVL193:
 2075 00a2 12F01F0F 		tst	r2, #31
 2076 00a6 01D1     		bne	.L135
 417:Drivers/STM32F3xx_HAL_Driver/Src/stm32f3xx_hal_pcd.c ****           PCD_SET_EP_RX_STATUS(hpcd->Instance, PCD_ENDP0, USB_EP_RX_VALID)
 2077              		.loc 1 417 0 discriminator 3
 2078 00a8 0139     		subs	r1, r1, #1
 2079              	.LVL194:
 2080 00aa 89B2     		uxth	r1, r1
 2081              	.LVL195:
 2082              	.L135:
 417:Drivers/STM32F3xx_HAL_Driver/Src/stm32f3xx_hal_pcd.c ****           PCD_SET_EP_RX_STATUS(hpcd->Instance, PCD_ENDP0, USB_EP_RX_VALID)
 2083              		.loc 1 417 0 discriminator 5
 2084 00ac 6FEAC161 		mvn	r1, r1, lsl #27
 2085              	.LVL196:
 2086 00b0 6FEA5141 		mvn	r1, r1, lsr #17
 2087 00b4 A3F80014 		strh	r1, [r3, #1024]	@ movhi
 2088              	.L136:
 2089              	.LBE27:
 2090              	.LBE26:
 2091              	.LBB29:
 418:Drivers/STM32F3xx_HAL_Driver/Src/stm32f3xx_hal_pcd.c ****         }
 2092              		.loc 1 418 0 is_stmt 1
 2093 00b8 2A68     		ldr	r2, [r5]
 2094 00ba 1388     		ldrh	r3, [r2]
 2095              	.LVL197:
 2096 00bc 9BB2     		uxth	r3, r3
 2097 00be 23F48043 		bic	r3, r3, #16384
 2098 00c2 23F07003 		bic	r3, r3, #112
 2099              	.LVL198:
 2100 00c6 83F44053 		eor	r3, r3, #12288
 2101              	.LVL199:
 2102 00ca 43F40043 		orr	r3, r3, #32768
 2103              	.LVL200:
 2104 00ce 43F08003 		orr	r3, r3, #128
 2105 00d2 1380     		strh	r3, [r2]	@ movhi
ARM GAS  C:\Users\acw\AppData\Local\Temp\ccoXZyGi.s 			page 60


 2106 00d4 9AE7     		b	.L128
 2107              	.LVL201:
 2108              	.L153:
 2109              	.LBE29:
 364:Drivers/STM32F3xx_HAL_Driver/Src/stm32f3xx_hal_pcd.c ****         ep = &hpcd->IN_ep[0];
 2110              		.loc 1 364 0
 2111 00d6 0388     		ldrh	r3, [r0]
 2112 00d8 9BB2     		uxth	r3, r3
 2113 00da 23F4E143 		bic	r3, r3, #28800
 2114 00de 23F07003 		bic	r3, r3, #112
 2115 00e2 9BB2     		uxth	r3, r3
 2116 00e4 0380     		strh	r3, [r0]	@ movhi
 2117              	.LVL202:
 367:Drivers/STM32F3xx_HAL_Driver/Src/stm32f3xx_hal_pcd.c ****         ep->xfer_buff += ep->xfer_count;
 2118              		.loc 1 367 0
 2119 00e6 2A68     		ldr	r2, [r5]
 2120 00e8 B2F85030 		ldrh	r3, [r2, #80]
 2121 00ec 95F82810 		ldrb	r1, [r5, #40]	@ zero_extendqisi2
 2122 00f0 03EBC103 		add	r3, r3, r1, lsl #3
 2123 00f4 0233     		adds	r3, r3, #2
 2124 00f6 02EB4303 		add	r3, r2, r3, lsl #1
 2125 00fa B3F80034 		ldrh	r3, [r3, #1024]
 2126 00fe C3F30903 		ubfx	r3, r3, #0, #10
 2127 0102 2B64     		str	r3, [r5, #64]
 368:Drivers/STM32F3xx_HAL_Driver/Src/stm32f3xx_hal_pcd.c ****  
 2128              		.loc 1 368 0
 2129 0104 AA6B     		ldr	r2, [r5, #56]
 2130 0106 1344     		add	r3, r3, r2
 2131 0108 AB63     		str	r3, [r5, #56]
 371:Drivers/STM32F3xx_HAL_Driver/Src/stm32f3xx_hal_pcd.c ****         
 2132              		.loc 1 371 0
 2133 010a 0021     		movs	r1, #0
 2134 010c 2846     		mov	r0, r5
 2135 010e FFF7FEFF 		bl	HAL_PCD_DataInStageCallback
 2136              	.LVL203:
 374:Drivers/STM32F3xx_HAL_Driver/Src/stm32f3xx_hal_pcd.c ****         {
 2137              		.loc 1 374 0
 2138 0112 95F82430 		ldrb	r3, [r5, #36]	@ zero_extendqisi2
 2139 0116 002B     		cmp	r3, #0
 2140 0118 3FF478AF 		beq	.L128
 374:Drivers/STM32F3xx_HAL_Driver/Src/stm32f3xx_hal_pcd.c ****         {
 2141              		.loc 1 374 0 is_stmt 0 discriminator 1
 2142 011c EB6B     		ldr	r3, [r5, #60]
 2143 011e 002B     		cmp	r3, #0
 2144 0120 7FF474AF 		bne	.L128
 376:Drivers/STM32F3xx_HAL_Driver/Src/stm32f3xx_hal_pcd.c ****           hpcd->USB_Address = 0U;
 2145              		.loc 1 376 0 is_stmt 1
 2146 0124 95F82430 		ldrb	r3, [r5, #36]	@ zero_extendqisi2
 2147 0128 2A68     		ldr	r2, [r5]
 2148 012a 43F08003 		orr	r3, r3, #128
 2149 012e A2F84C30 		strh	r3, [r2, #76]	@ movhi
 377:Drivers/STM32F3xx_HAL_Driver/Src/stm32f3xx_hal_pcd.c ****         }
 2150              		.loc 1 377 0
 2151 0132 0023     		movs	r3, #0
 2152 0134 85F82430 		strb	r3, [r5, #36]
 2153 0138 68E7     		b	.L128
 2154              	.LVL204:
ARM GAS  C:\Users\acw\AppData\Local\Temp\ccoXZyGi.s 			page 61


 2155              	.L154:
 393:Drivers/STM32F3xx_HAL_Driver/Src/stm32f3xx_hal_pcd.c ****           PCD_ReadPMA(hpcd->Instance, (uint8_t*)(void*)hpcd->Setup ,ep->pmaadress , ep->xfer_count)
 2156              		.loc 1 393 0
 2157 013a B0F85030 		ldrh	r3, [r0, #80]
 2158 013e 95F8CC21 		ldrb	r2, [r5, #460]	@ zero_extendqisi2
 2159 0142 03EBC203 		add	r3, r3, r2, lsl #3
 2160 0146 0633     		adds	r3, r3, #6
 2161 0148 00EB4303 		add	r3, r0, r3, lsl #1
 2162 014c B3F80034 		ldrh	r3, [r3, #1024]
 2163 0150 C3F30903 		ubfx	r3, r3, #0, #10
 2164 0154 C5F8E431 		str	r3, [r5, #484]
 394:Drivers/STM32F3xx_HAL_Driver/Src/stm32f3xx_hal_pcd.c ****           /* SETUP bit kept frozen while CTR_RX = 1U*/ 
 2165              		.loc 1 394 0
 2166 0158 B5F8D021 		ldrh	r2, [r5, #464]
 2167 015c 05F55D71 		add	r1, r5, #884
 2168 0160 FFF7FEFF 		bl	PCD_ReadPMA
 2169              	.LVL205:
 396:Drivers/STM32F3xx_HAL_Driver/Src/stm32f3xx_hal_pcd.c ****           
 2170              		.loc 1 396 0
 2171 0164 2A68     		ldr	r2, [r5]
 2172 0166 1388     		ldrh	r3, [r2]
 2173 0168 23F07003 		bic	r3, r3, #112
 2174 016c 1B05     		lsls	r3, r3, #20
 2175 016e 1B0D     		lsrs	r3, r3, #20
 2176 0170 1380     		strh	r3, [r2]	@ movhi
 399:Drivers/STM32F3xx_HAL_Driver/Src/stm32f3xx_hal_pcd.c ****         }
 2177              		.loc 1 399 0
 2178 0172 2846     		mov	r0, r5
 2179 0174 FFF7FEFF 		bl	HAL_PCD_SetupStageCallback
 2180              	.LVL206:
 2181 0178 48E7     		b	.L128
 2182              	.L155:
 410:Drivers/STM32F3xx_HAL_Driver/Src/stm32f3xx_hal_pcd.c ****             ep->xfer_buff+=ep->xfer_count;
 2183              		.loc 1 410 0
 2184 017a B5F8D021 		ldrh	r2, [r5, #464]
 2185 017e D5F8DC11 		ldr	r1, [r5, #476]
 2186 0182 FFF7FEFF 		bl	PCD_ReadPMA
 2187              	.LVL207:
 411:Drivers/STM32F3xx_HAL_Driver/Src/stm32f3xx_hal_pcd.c ****           }
 2188              		.loc 1 411 0
 2189 0186 D5F8E421 		ldr	r2, [r5, #484]
 2190 018a D5F8DC31 		ldr	r3, [r5, #476]
 2191 018e 1344     		add	r3, r3, r2
 2192 0190 C5F8DC31 		str	r3, [r5, #476]
 2193 0194 75E7     		b	.L133
 2194              	.LVL208:
 2195              	.L134:
 2196              	.LBB30:
 2197              	.LBB28:
 417:Drivers/STM32F3xx_HAL_Driver/Src/stm32f3xx_hal_pcd.c ****           PCD_SET_EP_RX_STATUS(hpcd->Instance, PCD_ENDP0, USB_EP_RX_VALID)
 2198              		.loc 1 417 0 discriminator 2
 2199 0196 C2F34F01 		ubfx	r1, r2, #1, #16
 2200              	.LVL209:
 2201 019a 12F0010F 		tst	r2, #1
 2202 019e 01D0     		beq	.L137
 417:Drivers/STM32F3xx_HAL_Driver/Src/stm32f3xx_hal_pcd.c ****           PCD_SET_EP_RX_STATUS(hpcd->Instance, PCD_ENDP0, USB_EP_RX_VALID)
 2203              		.loc 1 417 0 is_stmt 0 discriminator 6
ARM GAS  C:\Users\acw\AppData\Local\Temp\ccoXZyGi.s 			page 62


 2204 01a0 0131     		adds	r1, r1, #1
 2205              	.LVL210:
 2206 01a2 89B2     		uxth	r1, r1
 2207              	.LVL211:
 2208              	.L137:
 417:Drivers/STM32F3xx_HAL_Driver/Src/stm32f3xx_hal_pcd.c ****           PCD_SET_EP_RX_STATUS(hpcd->Instance, PCD_ENDP0, USB_EP_RX_VALID)
 2209              		.loc 1 417 0 discriminator 8
 2210 01a4 8902     		lsls	r1, r1, #10
 2211              	.LVL212:
 2212 01a6 A3F80014 		strh	r1, [r3, #1024]	@ movhi
 2213 01aa 85E7     		b	.L136
 2214              	.LVL213:
 2215              	.L129:
 2216              	.LBE28:
 2217              	.LBE30:
 428:Drivers/STM32F3xx_HAL_Driver/Src/stm32f3xx_hal_pcd.c ****       if ((wEPVal & USB_EP_CTR_RX) != 0U)
 2218              		.loc 1 428 0 is_stmt 1
 2219 01ac 30F82430 		ldrh	r3, [r0, r4, lsl #2]
 2220 01b0 9BB2     		uxth	r3, r3
 2221 01b2 ADF80430 		strh	r3, [sp, #4]	@ movhi
 429:Drivers/STM32F3xx_HAL_Driver/Src/stm32f3xx_hal_pcd.c ****       {  
 2222              		.loc 1 429 0
 2223 01b6 BDF80430 		ldrh	r3, [sp, #4]
 2224 01ba 13F4004F 		tst	r3, #32768
 2225 01be 36D1     		bne	.L156
 2226              	.L138:
 482:Drivers/STM32F3xx_HAL_Driver/Src/stm32f3xx_hal_pcd.c ****       {
 2227              		.loc 1 482 0
 2228 01c0 BDF80430 		ldrh	r3, [sp, #4]
 2229 01c4 13F0800F 		tst	r3, #128
 2230 01c8 3FF420AF 		beq	.L128
 2231              	.LVL214:
 487:Drivers/STM32F3xx_HAL_Driver/Src/stm32f3xx_hal_pcd.c ****         
 2232              		.loc 1 487 0
 2233 01cc 2A68     		ldr	r2, [r5]
 2234 01ce 32F82430 		ldrh	r3, [r2, r4, lsl #2]
 2235 01d2 9BB2     		uxth	r3, r3
 2236 01d4 23F4E143 		bic	r3, r3, #28800
 2237 01d8 23F07003 		bic	r3, r3, #112
 2238 01dc 9BB2     		uxth	r3, r3
 2239 01de 22F82430 		strh	r3, [r2, r4, lsl #2]	@ movhi
 490:Drivers/STM32F3xx_HAL_Driver/Src/stm32f3xx_hal_pcd.c ****         {
 2240              		.loc 1 490 0
 2241 01e2 C4EBC402 		rsb	r2, r4, r4, lsl #3
 2242 01e6 9300     		lsls	r3, r2, #2
 2243 01e8 1A46     		mov	r2, r3
 2244 01ea 2B44     		add	r3, r3, r5
 2245 01ec 93F83230 		ldrb	r3, [r3, #50]	@ zero_extendqisi2
 2246 01f0 002B     		cmp	r3, #0
 2247 01f2 40F0C380 		bne	.L145
 492:Drivers/STM32F3xx_HAL_Driver/Src/stm32f3xx_hal_pcd.c ****           if (ep->xfer_count != 0U)
 2248              		.loc 1 492 0
 2249 01f6 2868     		ldr	r0, [r5]
 2250 01f8 B0F85030 		ldrh	r3, [r0, #80]
 2251 01fc 2A44     		add	r2, r2, r5
 2252 01fe 92F82810 		ldrb	r1, [r2, #40]	@ zero_extendqisi2
 2253 0202 03EBC103 		add	r3, r3, r1, lsl #3
ARM GAS  C:\Users\acw\AppData\Local\Temp\ccoXZyGi.s 			page 63


 2254 0206 0233     		adds	r3, r3, #2
 2255 0208 00EB4303 		add	r3, r0, r3, lsl #1
 2256 020c B3F80034 		ldrh	r3, [r3, #1024]
 2257 0210 C3F30903 		ubfx	r3, r3, #0, #10
 2258 0214 1364     		str	r3, [r2, #64]
 493:Drivers/STM32F3xx_HAL_Driver/Src/stm32f3xx_hal_pcd.c ****           {
 2259              		.loc 1 493 0
 2260 0216 002B     		cmp	r3, #0
 2261 0218 00F0E180 		beq	.L146
 495:Drivers/STM32F3xx_HAL_Driver/Src/stm32f3xx_hal_pcd.c ****           }
 2262              		.loc 1 495 0
 2263 021c E200     		lsls	r2, r4, #3
 2264 021e 121B     		subs	r2, r2, r4
 2265 0220 9100     		lsls	r1, r2, #2
 2266 0222 2944     		add	r1, r1, r5
 2267 0224 8A8D     		ldrh	r2, [r1, #44]
 2268 0226 896B     		ldr	r1, [r1, #56]
 2269 0228 FFF7FEFF 		bl	PCD_WritePMA
 2270              	.LVL215:
 2271 022c D7E0     		b	.L146
 2272              	.LVL216:
 2273              	.L156:
 432:Drivers/STM32F3xx_HAL_Driver/Src/stm32f3xx_hal_pcd.c ****         ep = &hpcd->OUT_ep[EPindex];
 2274              		.loc 1 432 0
 2275 022e 30F82430 		ldrh	r3, [r0, r4, lsl #2]
 2276 0232 23F07003 		bic	r3, r3, #112
 2277 0236 1B05     		lsls	r3, r3, #20
 2278 0238 1B0D     		lsrs	r3, r3, #20
 2279 023a 20F82430 		strh	r3, [r0, r4, lsl #2]	@ movhi
 2280              	.LVL217:
 436:Drivers/STM32F3xx_HAL_Driver/Src/stm32f3xx_hal_pcd.c ****         {
 2281              		.loc 1 436 0
 2282 023e C4EBC402 		rsb	r2, r4, r4, lsl #3
 2283 0242 9300     		lsls	r3, r2, #2
 2284 0244 1A46     		mov	r2, r3
 2285 0246 2B44     		add	r3, r3, r5
 2286 0248 93F8D631 		ldrb	r3, [r3, #470]	@ zero_extendqisi2
 2287 024c CBB9     		cbnz	r3, .L139
 438:Drivers/STM32F3xx_HAL_Driver/Src/stm32f3xx_hal_pcd.c ****           if (count != 0U)
 2288              		.loc 1 438 0
 2289 024e 2868     		ldr	r0, [r5]
 2290 0250 B0F85030 		ldrh	r3, [r0, #80]
 2291 0254 1146     		mov	r1, r2
 2292 0256 2A44     		add	r2, r2, r5
 2293 0258 92F8CC21 		ldrb	r2, [r2, #460]	@ zero_extendqisi2
 2294 025c 03EBC203 		add	r3, r3, r2, lsl #3
 2295 0260 0633     		adds	r3, r3, #6
 2296 0262 00EB4303 		add	r3, r0, r3, lsl #1
 2297 0266 B3F80064 		ldrh	r6, [r3, #1024]
 2298 026a C6F30906 		ubfx	r6, r6, #0, #10
 2299              	.LVL218:
 439:Drivers/STM32F3xx_HAL_Driver/Src/stm32f3xx_hal_pcd.c ****           {
 2300              		.loc 1 439 0
 2301 026e 9EB3     		cbz	r6, .L140
 441:Drivers/STM32F3xx_HAL_Driver/Src/stm32f3xx_hal_pcd.c ****           }
 2302              		.loc 1 441 0
 2303 0270 2944     		add	r1, r1, r5
ARM GAS  C:\Users\acw\AppData\Local\Temp\ccoXZyGi.s 			page 64


 2304 0272 3346     		mov	r3, r6
 2305 0274 B1F8D021 		ldrh	r2, [r1, #464]
 2306 0278 D1F8DC11 		ldr	r1, [r1, #476]
 2307 027c FFF7FEFF 		bl	PCD_ReadPMA
 2308              	.LVL219:
 2309 0280 2AE0     		b	.L140
 2310              	.LVL220:
 2311              	.L139:
 446:Drivers/STM32F3xx_HAL_Driver/Src/stm32f3xx_hal_pcd.c ****           {
 2312              		.loc 1 446 0
 2313 0282 2868     		ldr	r0, [r5]
 2314 0284 C4EBC402 		rsb	r2, r4, r4, lsl #3
 2315 0288 9300     		lsls	r3, r2, #2
 2316 028a 2B44     		add	r3, r3, r5
 2317 028c 93F8CC21 		ldrb	r2, [r3, #460]	@ zero_extendqisi2
 2318 0290 30F82230 		ldrh	r3, [r0, r2, lsl #2]
 2319 0294 13F4804F 		tst	r3, #16384
 2320 0298 4DD0     		beq	.L141
 449:Drivers/STM32F3xx_HAL_Driver/Src/stm32f3xx_hal_pcd.c ****             if (count != 0U)
 2321              		.loc 1 449 0
 2322 029a B0F85030 		ldrh	r3, [r0, #80]
 2323 029e 03EBC203 		add	r3, r3, r2, lsl #3
 2324 02a2 0233     		adds	r3, r3, #2
 2325 02a4 00EB4303 		add	r3, r0, r3, lsl #1
 2326 02a8 B3F80064 		ldrh	r6, [r3, #1024]
 2327 02ac C6F30906 		ubfx	r6, r6, #0, #10
 2328              	.LVL221:
 450:Drivers/STM32F3xx_HAL_Driver/Src/stm32f3xx_hal_pcd.c ****             {
 2329              		.loc 1 450 0
 2330 02b0 AEBB     		cbnz	r6, .L157
 2331              	.L142:
 464:Drivers/STM32F3xx_HAL_Driver/Src/stm32f3xx_hal_pcd.c ****         }
 2332              		.loc 1 464 0 discriminator 1
 2333 02b2 2A68     		ldr	r2, [r5]
 2334 02b4 C4EBC401 		rsb	r1, r4, r4, lsl #3
 2335 02b8 8B00     		lsls	r3, r1, #2
 2336 02ba 2B44     		add	r3, r3, r5
 2337 02bc 93F8CC11 		ldrb	r1, [r3, #460]	@ zero_extendqisi2
 2338 02c0 32F82130 		ldrh	r3, [r2, r1, lsl #2]
 2339 02c4 23F0F003 		bic	r3, r3, #240
 2340 02c8 1B05     		lsls	r3, r3, #20
 2341 02ca 1B0D     		lsrs	r3, r3, #20
 2342 02cc 43F40043 		orr	r3, r3, #32768
 2343 02d0 43F0C003 		orr	r3, r3, #192
 2344 02d4 22F82130 		strh	r3, [r2, r1, lsl #2]	@ movhi
 2345              	.L140:
 467:Drivers/STM32F3xx_HAL_Driver/Src/stm32f3xx_hal_pcd.c ****         ep->xfer_buff+=count;
 2346              		.loc 1 467 0
 2347 02d8 E200     		lsls	r2, r4, #3
 2348 02da 121B     		subs	r2, r2, r4
 2349 02dc 9300     		lsls	r3, r2, #2
 2350 02de 2B44     		add	r3, r3, r5
 2351 02e0 D3F8E421 		ldr	r2, [r3, #484]
 2352 02e4 3244     		add	r2, r2, r6
 2353 02e6 C3F8E421 		str	r2, [r3, #484]
 468:Drivers/STM32F3xx_HAL_Driver/Src/stm32f3xx_hal_pcd.c ****        
 2354              		.loc 1 468 0
ARM GAS  C:\Users\acw\AppData\Local\Temp\ccoXZyGi.s 			page 65


 2355 02ea D3F8DC21 		ldr	r2, [r3, #476]
 2356 02ee 3244     		add	r2, r2, r6
 2357 02f0 C3F8DC21 		str	r2, [r3, #476]
 470:Drivers/STM32F3xx_HAL_Driver/Src/stm32f3xx_hal_pcd.c ****         {
 2358              		.loc 1 470 0
 2359 02f4 D3F8E031 		ldr	r3, [r3, #480]
 2360 02f8 3BB1     		cbz	r3, .L143
 470:Drivers/STM32F3xx_HAL_Driver/Src/stm32f3xx_hal_pcd.c ****         {
 2361              		.loc 1 470 0 is_stmt 0 discriminator 1
 2362 02fa C4EBC400 		rsb	r0, r4, r4, lsl #3
 2363 02fe 8100     		lsls	r1, r0, #2
 2364 0300 2944     		add	r1, r1, r5
 2365 0302 D1F8D811 		ldr	r1, [r1, #472]
 2366 0306 8E42     		cmp	r6, r1
 2367 0308 2ED2     		bcs	.L144
 2368              	.L143:
 473:Drivers/STM32F3xx_HAL_Driver/Src/stm32f3xx_hal_pcd.c ****         }
 2369              		.loc 1 473 0 is_stmt 1
 2370 030a C4EBC402 		rsb	r2, r4, r4, lsl #3
 2371 030e 9300     		lsls	r3, r2, #2
 2372 0310 2B44     		add	r3, r3, r5
 2373 0312 93F8CC11 		ldrb	r1, [r3, #460]	@ zero_extendqisi2
 2374 0316 2846     		mov	r0, r5
 2375 0318 FFF7FEFF 		bl	HAL_PCD_DataOutStageCallback
 2376              	.LVL222:
 2377 031c 50E7     		b	.L138
 2378              	.L157:
 452:Drivers/STM32F3xx_HAL_Driver/Src/stm32f3xx_hal_pcd.c ****             }
 2379              		.loc 1 452 0
 2380 031e E300     		lsls	r3, r4, #3
 2381 0320 1B1B     		subs	r3, r3, r4
 2382 0322 9900     		lsls	r1, r3, #2
 2383 0324 2944     		add	r1, r1, r5
 2384 0326 3346     		mov	r3, r6
 2385 0328 B1F8D221 		ldrh	r2, [r1, #466]
 2386 032c D1F8DC11 		ldr	r1, [r1, #476]
 2387 0330 FFF7FEFF 		bl	PCD_ReadPMA
 2388              	.LVL223:
 2389 0334 BDE7     		b	.L142
 2390              	.LVL224:
 2391              	.L141:
 458:Drivers/STM32F3xx_HAL_Driver/Src/stm32f3xx_hal_pcd.c ****             if (count != 0U)
 2392              		.loc 1 458 0
 2393 0336 B0F85030 		ldrh	r3, [r0, #80]
 2394 033a 03EBC203 		add	r3, r3, r2, lsl #3
 2395 033e 0633     		adds	r3, r3, #6
 2396 0340 00EB4303 		add	r3, r0, r3, lsl #1
 2397 0344 B3F80064 		ldrh	r6, [r3, #1024]
 2398 0348 C6F30906 		ubfx	r6, r6, #0, #10
 2399              	.LVL225:
 459:Drivers/STM32F3xx_HAL_Driver/Src/stm32f3xx_hal_pcd.c ****             {
 2400              		.loc 1 459 0
 2401 034c 002E     		cmp	r6, #0
 2402 034e B0D0     		beq	.L142
 461:Drivers/STM32F3xx_HAL_Driver/Src/stm32f3xx_hal_pcd.c ****             }
 2403              		.loc 1 461 0
 2404 0350 E300     		lsls	r3, r4, #3
ARM GAS  C:\Users\acw\AppData\Local\Temp\ccoXZyGi.s 			page 66


 2405 0352 1B1B     		subs	r3, r3, r4
 2406 0354 9900     		lsls	r1, r3, #2
 2407 0356 2944     		add	r1, r1, r5
 2408 0358 3346     		mov	r3, r6
 2409 035a B1F8D421 		ldrh	r2, [r1, #468]
 2410 035e D1F8DC11 		ldr	r1, [r1, #476]
 2411 0362 FFF7FEFF 		bl	PCD_ReadPMA
 2412              	.LVL226:
 2413 0366 A4E7     		b	.L142
 2414              	.L144:
 477:Drivers/STM32F3xx_HAL_Driver/Src/stm32f3xx_hal_pcd.c ****         }
 2415              		.loc 1 477 0
 2416 0368 C4EBC400 		rsb	r0, r4, r4, lsl #3
 2417 036c 8100     		lsls	r1, r0, #2
 2418 036e 2944     		add	r1, r1, r5
 2419 0370 91F8CC11 		ldrb	r1, [r1, #460]	@ zero_extendqisi2
 2420 0374 2846     		mov	r0, r5
 2421 0376 FFF7FEFF 		bl	HAL_PCD_EP_Receive
 2422              	.LVL227:
 2423 037a 21E7     		b	.L138
 2424              	.LVL228:
 2425              	.L145:
 500:Drivers/STM32F3xx_HAL_Driver/Src/stm32f3xx_hal_pcd.c ****           {
 2426              		.loc 1 500 0
 2427 037c 2868     		ldr	r0, [r5]
 2428 037e C4EBC402 		rsb	r2, r4, r4, lsl #3
 2429 0382 9300     		lsls	r3, r2, #2
 2430 0384 2B44     		add	r3, r3, r5
 2431 0386 93F82820 		ldrb	r2, [r3, #40]	@ zero_extendqisi2
 2432 038a 30F82230 		ldrh	r3, [r0, r2, lsl #2]
 2433 038e 13F0400F 		tst	r3, #64
 2434 0392 47D0     		beq	.L147
 503:Drivers/STM32F3xx_HAL_Driver/Src/stm32f3xx_hal_pcd.c ****             if (ep->xfer_count != 0U)
 2435              		.loc 1 503 0
 2436 0394 B0F85030 		ldrh	r3, [r0, #80]
 2437 0398 03EBC203 		add	r3, r3, r2, lsl #3
 2438 039c 0233     		adds	r3, r3, #2
 2439 039e 00EB4303 		add	r3, r0, r3, lsl #1
 2440 03a2 B3F80034 		ldrh	r3, [r3, #1024]
 2441 03a6 C3F30903 		ubfx	r3, r3, #0, #10
 2442 03aa C4EBC401 		rsb	r1, r4, r4, lsl #3
 2443 03ae 8A00     		lsls	r2, r1, #2
 2444 03b0 1146     		mov	r1, r2
 2445 03b2 2A44     		add	r2, r2, r5
 2446 03b4 1364     		str	r3, [r2, #64]
 504:Drivers/STM32F3xx_HAL_Driver/Src/stm32f3xx_hal_pcd.c ****             {
 2447              		.loc 1 504 0
 2448 03b6 7BBB     		cbnz	r3, .L158
 2449              	.L148:
 518:Drivers/STM32F3xx_HAL_Driver/Src/stm32f3xx_hal_pcd.c ****         }
 2450              		.loc 1 518 0 discriminator 3
 2451 03b8 2A68     		ldr	r2, [r5]
 2452 03ba C4EBC401 		rsb	r1, r4, r4, lsl #3
 2453 03be 8B00     		lsls	r3, r1, #2
 2454 03c0 2B44     		add	r3, r3, r5
 2455 03c2 93F82810 		ldrb	r1, [r3, #40]	@ zero_extendqisi2
 2456 03c6 32F82130 		ldrh	r3, [r2, r1, lsl #2]
ARM GAS  C:\Users\acw\AppData\Local\Temp\ccoXZyGi.s 			page 67


 2457 03ca 23F0F003 		bic	r3, r3, #240
 2458 03ce 1B05     		lsls	r3, r3, #20
 2459 03d0 1B0D     		lsrs	r3, r3, #20
 2460 03d2 43F44043 		orr	r3, r3, #49152
 2461 03d6 43F08003 		orr	r3, r3, #128
 2462 03da 22F82130 		strh	r3, [r2, r1, lsl #2]	@ movhi
 2463              	.L146:
 521:Drivers/STM32F3xx_HAL_Driver/Src/stm32f3xx_hal_pcd.c ****         ep->xfer_buff+=ep->xfer_count;
 2464              		.loc 1 521 0
 2465 03de 2968     		ldr	r1, [r5]
 2466 03e0 B1F85020 		ldrh	r2, [r1, #80]
 2467 03e4 E000     		lsls	r0, r4, #3
 2468 03e6 001B     		subs	r0, r0, r4
 2469 03e8 8300     		lsls	r3, r0, #2
 2470 03ea 2B44     		add	r3, r3, r5
 2471 03ec 93F82800 		ldrb	r0, [r3, #40]	@ zero_extendqisi2
 2472 03f0 02EBC002 		add	r2, r2, r0, lsl #3
 2473 03f4 0232     		adds	r2, r2, #2
 2474 03f6 01EB4202 		add	r2, r1, r2, lsl #1
 2475 03fa B2F80024 		ldrh	r2, [r2, #1024]
 2476 03fe C2F30902 		ubfx	r2, r2, #0, #10
 2477 0402 1A64     		str	r2, [r3, #64]
 522:Drivers/STM32F3xx_HAL_Driver/Src/stm32f3xx_hal_pcd.c ****        
 2478              		.loc 1 522 0
 2479 0404 996B     		ldr	r1, [r3, #56]
 2480 0406 0A44     		add	r2, r2, r1
 2481 0408 9A63     		str	r2, [r3, #56]
 525:Drivers/STM32F3xx_HAL_Driver/Src/stm32f3xx_hal_pcd.c ****         {
 2482              		.loc 1 525 0
 2483 040a DB6B     		ldr	r3, [r3, #60]
 2484 040c 1BBB     		cbnz	r3, .L149
 528:Drivers/STM32F3xx_HAL_Driver/Src/stm32f3xx_hal_pcd.c ****         }
 2485              		.loc 1 528 0
 2486 040e 0146     		mov	r1, r0
 2487 0410 2846     		mov	r0, r5
 2488 0412 FFF7FEFF 		bl	HAL_PCD_DataInStageCallback
 2489              	.LVL229:
 2490 0416 F9E5     		b	.L128
 2491              	.L158:
 506:Drivers/STM32F3xx_HAL_Driver/Src/stm32f3xx_hal_pcd.c ****             }
 2492              		.loc 1 506 0
 2493 0418 2944     		add	r1, r1, r5
 2494 041a CA8D     		ldrh	r2, [r1, #46]
 2495 041c 896B     		ldr	r1, [r1, #56]
 2496 041e FFF7FEFF 		bl	PCD_WritePMA
 2497              	.LVL230:
 2498 0422 C9E7     		b	.L148
 2499              	.L147:
 512:Drivers/STM32F3xx_HAL_Driver/Src/stm32f3xx_hal_pcd.c ****             if (ep->xfer_count != 0U)
 2500              		.loc 1 512 0
 2501 0424 B0F85030 		ldrh	r3, [r0, #80]
 2502 0428 03EBC203 		add	r3, r3, r2, lsl #3
 2503 042c 0633     		adds	r3, r3, #6
 2504 042e 00EB4303 		add	r3, r0, r3, lsl #1
 2505 0432 B3F80034 		ldrh	r3, [r3, #1024]
 2506 0436 C3F30903 		ubfx	r3, r3, #0, #10
 2507 043a C4EBC401 		rsb	r1, r4, r4, lsl #3
ARM GAS  C:\Users\acw\AppData\Local\Temp\ccoXZyGi.s 			page 68


 2508 043e 8A00     		lsls	r2, r1, #2
 2509 0440 1146     		mov	r1, r2
 2510 0442 2A44     		add	r2, r2, r5
 2511 0444 1364     		str	r3, [r2, #64]
 513:Drivers/STM32F3xx_HAL_Driver/Src/stm32f3xx_hal_pcd.c ****             {
 2512              		.loc 1 513 0
 2513 0446 002B     		cmp	r3, #0
 2514 0448 B6D0     		beq	.L148
 515:Drivers/STM32F3xx_HAL_Driver/Src/stm32f3xx_hal_pcd.c ****             }
 2515              		.loc 1 515 0
 2516 044a 2944     		add	r1, r1, r5
 2517 044c 0A8E     		ldrh	r2, [r1, #48]
 2518 044e 896B     		ldr	r1, [r1, #56]
 2519 0450 FFF7FEFF 		bl	PCD_WritePMA
 2520              	.LVL231:
 2521 0454 B0E7     		b	.L148
 2522              	.L149:
 532:Drivers/STM32F3xx_HAL_Driver/Src/stm32f3xx_hal_pcd.c ****         }
 2523              		.loc 1 532 0
 2524 0456 C4EBC404 		rsb	r4, r4, r4, lsl #3
 2525              	.LVL232:
 2526 045a A100     		lsls	r1, r4, #2
 2527 045c 2944     		add	r1, r1, r5
 2528 045e 91F82810 		ldrb	r1, [r1, #40]	@ zero_extendqisi2
 2529 0462 2846     		mov	r0, r5
 2530 0464 FFF7FEFF 		bl	HAL_PCD_EP_Transmit
 2531              	.LVL233:
 2532 0468 D0E5     		b	.L128
 2533              	.L152:
 538:Drivers/STM32F3xx_HAL_Driver/Src/stm32f3xx_hal_pcd.c **** /**
 2534              		.loc 1 538 0
 2535 046a 0020     		movs	r0, #0
 2536 046c 02B0     		add	sp, sp, #8
 2537              	.LCFI21:
 2538              		.cfi_def_cfa_offset 16
 2539              		@ sp needed
 2540 046e 70BD     		pop	{r4, r5, r6, pc}
 2541              		.cfi_endproc
 2542              	.LFE132:
 2544              		.section	.text.HAL_PCD_IRQHandler,"ax",%progbits
 2545              		.align	1
 2546              		.global	HAL_PCD_IRQHandler
 2547              		.syntax unified
 2548              		.thumb
 2549              		.thumb_func
 2550              		.fpu fpv4-sp-d16
 2552              	HAL_PCD_IRQHandler:
 2553              	.LFB133:
 557:Drivers/STM32F3xx_HAL_Driver/Src/stm32f3xx_hal_pcd.c ****   
 2554              		.loc 1 557 0
 2555              		.cfi_startproc
 2556              		@ args = 0, pretend = 0, frame = 0
 2557              		@ frame_needed = 0, uses_anonymous_args = 0
 2558              	.LVL234:
 2559 0000 10B5     		push	{r4, lr}
 2560              	.LCFI22:
 2561              		.cfi_def_cfa_offset 8
ARM GAS  C:\Users\acw\AppData\Local\Temp\ccoXZyGi.s 			page 69


 2562              		.cfi_offset 4, -8
 2563              		.cfi_offset 14, -4
 2564 0002 0446     		mov	r4, r0
 559:Drivers/STM32F3xx_HAL_Driver/Src/stm32f3xx_hal_pcd.c ****   {
 2565              		.loc 1 559 0
 2566 0004 0368     		ldr	r3, [r0]
 2567 0006 B3F84430 		ldrh	r3, [r3, #68]
 2568 000a 13F4004F 		tst	r3, #32768
 2569 000e 4ED1     		bne	.L169
 2570              	.LVL235:
 2571              	.L160:
 566:Drivers/STM32F3xx_HAL_Driver/Src/stm32f3xx_hal_pcd.c ****   {
 2572              		.loc 1 566 0
 2573 0010 2368     		ldr	r3, [r4]
 2574 0012 B3F84420 		ldrh	r2, [r3, #68]
 2575 0016 12F4806F 		tst	r2, #1024
 2576 001a 4BD1     		bne	.L170
 2577              	.L161:
 573:Drivers/STM32F3xx_HAL_Driver/Src/stm32f3xx_hal_pcd.c ****   {
 2578              		.loc 1 573 0
 2579 001c 2368     		ldr	r3, [r4]
 2580 001e B3F84420 		ldrh	r2, [r3, #68]
 2581 0022 12F4804F 		tst	r2, #16384
 2582 0026 03D0     		beq	.L162
 575:Drivers/STM32F3xx_HAL_Driver/Src/stm32f3xx_hal_pcd.c ****   }
 2583              		.loc 1 575 0
 2584 0028 4BF6FF72 		movw	r2, #49151
 2585 002c A3F84420 		strh	r2, [r3, #68]	@ movhi
 2586              	.L162:
 577:Drivers/STM32F3xx_HAL_Driver/Src/stm32f3xx_hal_pcd.c ****   {
 2587              		.loc 1 577 0
 2588 0030 2368     		ldr	r3, [r4]
 2589 0032 B3F84420 		ldrh	r2, [r3, #68]
 2590 0036 12F4005F 		tst	r2, #8192
 2591 003a 03D0     		beq	.L163
 579:Drivers/STM32F3xx_HAL_Driver/Src/stm32f3xx_hal_pcd.c ****   }
 2592              		.loc 1 579 0
 2593 003c 4DF6FF72 		movw	r2, #57343
 2594 0040 A3F84420 		strh	r2, [r3, #68]	@ movhi
 2595              	.L163:
 582:Drivers/STM32F3xx_HAL_Driver/Src/stm32f3xx_hal_pcd.c ****   {
 2596              		.loc 1 582 0
 2597 0044 2368     		ldr	r3, [r4]
 2598 0046 B3F84420 		ldrh	r2, [r3, #68]
 2599 004a 12F4805F 		tst	r2, #4096
 2600 004e 3DD1     		bne	.L171
 2601              	.L164:
 592:Drivers/STM32F3xx_HAL_Driver/Src/stm32f3xx_hal_pcd.c ****   {
 2602              		.loc 1 592 0
 2603 0050 2368     		ldr	r3, [r4]
 2604 0052 B3F84420 		ldrh	r2, [r3, #68]
 2605 0056 12F4006F 		tst	r2, #2048
 2606 005a 17D0     		beq	.L165
 595:Drivers/STM32F3xx_HAL_Driver/Src/stm32f3xx_hal_pcd.c **** 
 2607              		.loc 1 595 0
 2608 005c B3F84020 		ldrh	r2, [r3, #64]
 2609 0060 42F00802 		orr	r2, r2, #8
ARM GAS  C:\Users\acw\AppData\Local\Temp\ccoXZyGi.s 			page 70


 2610 0064 A3F84020 		strh	r2, [r3, #64]	@ movhi
 598:Drivers/STM32F3xx_HAL_Driver/Src/stm32f3xx_hal_pcd.c **** 
 2611              		.loc 1 598 0
 2612 0068 2368     		ldr	r3, [r4]
 2613 006a 4FF2FF72 		movw	r2, #63487
 2614 006e A3F84420 		strh	r2, [r3, #68]	@ movhi
 600:Drivers/STM32F3xx_HAL_Driver/Src/stm32f3xx_hal_pcd.c ****     if (__HAL_PCD_GET_FLAG (hpcd, USB_ISTR_WKUP) == 0U)
 2615              		.loc 1 600 0
 2616 0072 2268     		ldr	r2, [r4]
 2617 0074 B2F84030 		ldrh	r3, [r2, #64]
 2618 0078 43F00403 		orr	r3, r3, #4
 2619 007c A2F84030 		strh	r3, [r2, #64]	@ movhi
 601:Drivers/STM32F3xx_HAL_Driver/Src/stm32f3xx_hal_pcd.c ****     {
 2620              		.loc 1 601 0
 2621 0080 2368     		ldr	r3, [r4]
 2622 0082 B3F84430 		ldrh	r3, [r3, #68]
 2623 0086 13F4805F 		tst	r3, #4096
 2624 008a 39D0     		beq	.L172
 2625              	.L165:
 607:Drivers/STM32F3xx_HAL_Driver/Src/stm32f3xx_hal_pcd.c ****   {
 2626              		.loc 1 607 0
 2627 008c 2368     		ldr	r3, [r4]
 2628 008e B3F84420 		ldrh	r2, [r3, #68]
 2629 0092 12F4007F 		tst	r2, #512
 2630 0096 37D1     		bne	.L173
 2631              	.L166:
 613:Drivers/STM32F3xx_HAL_Driver/Src/stm32f3xx_hal_pcd.c ****   {
 2632              		.loc 1 613 0
 2633 0098 2368     		ldr	r3, [r4]
 2634 009a B3F84420 		ldrh	r2, [r3, #68]
 2635 009e 12F4807F 		tst	r2, #256
 2636 00a2 03D0     		beq	.L159
 616:Drivers/STM32F3xx_HAL_Driver/Src/stm32f3xx_hal_pcd.c ****   }
 2637              		.loc 1 616 0
 2638 00a4 4FF6FF62 		movw	r2, #65279
 2639 00a8 A3F84420 		strh	r2, [r3, #68]	@ movhi
 2640              	.L159:
 618:Drivers/STM32F3xx_HAL_Driver/Src/stm32f3xx_hal_pcd.c **** 
 2641              		.loc 1 618 0
 2642 00ac 10BD     		pop	{r4, pc}
 2643              	.LVL236:
 2644              	.L169:
 563:Drivers/STM32F3xx_HAL_Driver/Src/stm32f3xx_hal_pcd.c ****   }
 2645              		.loc 1 563 0
 2646 00ae FFF7FEFF 		bl	PCD_EP_ISR_Handler
 2647              	.LVL237:
 2648 00b2 ADE7     		b	.L160
 2649              	.L170:
 568:Drivers/STM32F3xx_HAL_Driver/Src/stm32f3xx_hal_pcd.c ****     HAL_PCD_ResetCallback(hpcd);
 2650              		.loc 1 568 0
 2651 00b4 4FF6FF32 		movw	r2, #64511
 2652 00b8 A3F84420 		strh	r2, [r3, #68]	@ movhi
 569:Drivers/STM32F3xx_HAL_Driver/Src/stm32f3xx_hal_pcd.c ****     HAL_PCD_SetAddress(hpcd, 0U);
 2653              		.loc 1 569 0
 2654 00bc 2046     		mov	r0, r4
 2655 00be FFF7FEFF 		bl	HAL_PCD_ResetCallback
 2656              	.LVL238:
ARM GAS  C:\Users\acw\AppData\Local\Temp\ccoXZyGi.s 			page 71


 570:Drivers/STM32F3xx_HAL_Driver/Src/stm32f3xx_hal_pcd.c ****   }
 2657              		.loc 1 570 0
 2658 00c2 0021     		movs	r1, #0
 2659 00c4 2046     		mov	r0, r4
 2660 00c6 FFF7FEFF 		bl	HAL_PCD_SetAddress
 2661              	.LVL239:
 2662 00ca A7E7     		b	.L161
 2663              	.L171:
 584:Drivers/STM32F3xx_HAL_Driver/Src/stm32f3xx_hal_pcd.c ****     hpcd->Instance->CNTR &= (uint16_t) ~(USB_CNTR_FSUSP);
 2664              		.loc 1 584 0
 2665 00cc B3F84020 		ldrh	r2, [r3, #64]
 2666 00d0 92B2     		uxth	r2, r2
 2667 00d2 22F00402 		bic	r2, r2, #4
 2668 00d6 92B2     		uxth	r2, r2
 2669 00d8 A3F84020 		strh	r2, [r3, #64]	@ movhi
 585:Drivers/STM32F3xx_HAL_Driver/Src/stm32f3xx_hal_pcd.c **** 
 2670              		.loc 1 585 0
 2671 00dc 2268     		ldr	r2, [r4]
 2672 00de B2F84030 		ldrh	r3, [r2, #64]
 2673 00e2 9BB2     		uxth	r3, r3
 2674 00e4 23F00803 		bic	r3, r3, #8
 2675 00e8 9BB2     		uxth	r3, r3
 2676 00ea A2F84030 		strh	r3, [r2, #64]	@ movhi
 587:Drivers/STM32F3xx_HAL_Driver/Src/stm32f3xx_hal_pcd.c **** 
 2677              		.loc 1 587 0
 2678 00ee 2046     		mov	r0, r4
 2679 00f0 FFF7FEFF 		bl	HAL_PCD_ResumeCallback
 2680              	.LVL240:
 589:Drivers/STM32F3xx_HAL_Driver/Src/stm32f3xx_hal_pcd.c ****   }
 2681              		.loc 1 589 0
 2682 00f4 2368     		ldr	r3, [r4]
 2683 00f6 4EF6FF72 		movw	r2, #61439
 2684 00fa A3F84420 		strh	r2, [r3, #68]	@ movhi
 2685 00fe A7E7     		b	.L164
 2686              	.L172:
 603:Drivers/STM32F3xx_HAL_Driver/Src/stm32f3xx_hal_pcd.c ****     }
 2687              		.loc 1 603 0
 2688 0100 2046     		mov	r0, r4
 2689 0102 FFF7FEFF 		bl	HAL_PCD_SuspendCallback
 2690              	.LVL241:
 2691 0106 C1E7     		b	.L165
 2692              	.L173:
 609:Drivers/STM32F3xx_HAL_Driver/Src/stm32f3xx_hal_pcd.c ****     HAL_PCD_SOFCallback(hpcd);
 2693              		.loc 1 609 0
 2694 0108 4FF6FF52 		movw	r2, #65023
 2695 010c A3F84420 		strh	r2, [r3, #68]	@ movhi
 610:Drivers/STM32F3xx_HAL_Driver/Src/stm32f3xx_hal_pcd.c ****   }
 2696              		.loc 1 610 0
 2697 0110 2046     		mov	r0, r4
 2698 0112 FFF7FEFF 		bl	HAL_PCD_SOFCallback
 2699              	.LVL242:
 2700 0116 BFE7     		b	.L166
 2701              		.cfi_endproc
 2702              	.LFE133:
 2704              		.section	.text.HAL_PCD_EP_SetStall,"ax",%progbits
 2705              		.align	1
 2706              		.global	HAL_PCD_EP_SetStall
ARM GAS  C:\Users\acw\AppData\Local\Temp\ccoXZyGi.s 			page 72


 2707              		.syntax unified
 2708              		.thumb
 2709              		.thumb_func
 2710              		.fpu fpv4-sp-d16
 2712              	HAL_PCD_EP_SetStall:
 2713              	.LFB153:
1164:Drivers/STM32F3xx_HAL_Driver/Src/stm32f3xx_hal_pcd.c **** 
1165:Drivers/STM32F3xx_HAL_Driver/Src/stm32f3xx_hal_pcd.c **** /**
1166:Drivers/STM32F3xx_HAL_Driver/Src/stm32f3xx_hal_pcd.c ****   * @brief  Set a STALL condition over an endpoint
1167:Drivers/STM32F3xx_HAL_Driver/Src/stm32f3xx_hal_pcd.c ****   * @param  hpcd PCD handle
1168:Drivers/STM32F3xx_HAL_Driver/Src/stm32f3xx_hal_pcd.c ****   * @param  ep_addr endpoint address
1169:Drivers/STM32F3xx_HAL_Driver/Src/stm32f3xx_hal_pcd.c ****   * @retval HAL status
1170:Drivers/STM32F3xx_HAL_Driver/Src/stm32f3xx_hal_pcd.c ****   */
1171:Drivers/STM32F3xx_HAL_Driver/Src/stm32f3xx_hal_pcd.c **** HAL_StatusTypeDef HAL_PCD_EP_SetStall(PCD_HandleTypeDef *hpcd, uint8_t ep_addr)
1172:Drivers/STM32F3xx_HAL_Driver/Src/stm32f3xx_hal_pcd.c **** {
 2714              		.loc 1 1172 0
 2715              		.cfi_startproc
 2716              		@ args = 0, pretend = 0, frame = 0
 2717              		@ frame_needed = 0, uses_anonymous_args = 0
 2718              		@ link register save eliminated.
 2719              	.LVL243:
1173:Drivers/STM32F3xx_HAL_Driver/Src/stm32f3xx_hal_pcd.c ****   PCD_EPTypeDef *ep;
1174:Drivers/STM32F3xx_HAL_Driver/Src/stm32f3xx_hal_pcd.c ****    
1175:Drivers/STM32F3xx_HAL_Driver/Src/stm32f3xx_hal_pcd.c ****   __HAL_LOCK(hpcd); 
 2720              		.loc 1 1175 0
 2721 0000 90F87033 		ldrb	r3, [r0, #880]	@ zero_extendqisi2
 2722 0004 012B     		cmp	r3, #1
 2723 0006 59D0     		beq	.L181
1172:Drivers/STM32F3xx_HAL_Driver/Src/stm32f3xx_hal_pcd.c ****   PCD_EPTypeDef *ep;
 2724              		.loc 1 1172 0 discriminator 2
 2725 0008 10B4     		push	{r4}
 2726              	.LCFI23:
 2727              		.cfi_def_cfa_offset 4
 2728              		.cfi_offset 4, -4
 2729              		.loc 1 1175 0 discriminator 2
 2730 000a 0123     		movs	r3, #1
 2731 000c 80F87033 		strb	r3, [r0, #880]
1176:Drivers/STM32F3xx_HAL_Driver/Src/stm32f3xx_hal_pcd.c ****    
1177:Drivers/STM32F3xx_HAL_Driver/Src/stm32f3xx_hal_pcd.c ****   if ((0x80U & ep_addr) == 0x80U)
 2732              		.loc 1 1177 0 discriminator 2
 2733 0010 4AB2     		sxtb	r2, r1
 2734 0012 002A     		cmp	r2, #0
 2735 0014 27DB     		blt	.L186
1178:Drivers/STM32F3xx_HAL_Driver/Src/stm32f3xx_hal_pcd.c ****   {
1179:Drivers/STM32F3xx_HAL_Driver/Src/stm32f3xx_hal_pcd.c ****     ep = &hpcd->IN_ep[ep_addr & 0x7F];
1180:Drivers/STM32F3xx_HAL_Driver/Src/stm32f3xx_hal_pcd.c ****   }
1181:Drivers/STM32F3xx_HAL_Driver/Src/stm32f3xx_hal_pcd.c ****   else
1182:Drivers/STM32F3xx_HAL_Driver/Src/stm32f3xx_hal_pcd.c ****   {
1183:Drivers/STM32F3xx_HAL_Driver/Src/stm32f3xx_hal_pcd.c ****     ep = &hpcd->OUT_ep[ep_addr];
 2736              		.loc 1 1183 0
 2737 0016 C1EBC104 		rsb	r4, r1, r1, lsl #3
 2738 001a A300     		lsls	r3, r4, #2
 2739 001c 03F5E473 		add	r3, r3, #456
 2740 0020 0344     		add	r3, r3, r0
 2741 0022 0433     		adds	r3, r3, #4
 2742              	.LVL244:
 2743              	.L177:
ARM GAS  C:\Users\acw\AppData\Local\Temp\ccoXZyGi.s 			page 73


1184:Drivers/STM32F3xx_HAL_Driver/Src/stm32f3xx_hal_pcd.c ****   }
1185:Drivers/STM32F3xx_HAL_Driver/Src/stm32f3xx_hal_pcd.c ****   
1186:Drivers/STM32F3xx_HAL_Driver/Src/stm32f3xx_hal_pcd.c ****   ep->is_stall = 1U;
 2744              		.loc 1 1186 0
 2745 0024 0124     		movs	r4, #1
 2746 0026 9C70     		strb	r4, [r3, #2]
1187:Drivers/STM32F3xx_HAL_Driver/Src/stm32f3xx_hal_pcd.c ****   ep->num   = ep_addr & 0x7FU;
 2747              		.loc 1 1187 0
 2748 0028 01F07F01 		and	r1, r1, #127
 2749              	.LVL245:
 2750 002c 1970     		strb	r1, [r3]
1188:Drivers/STM32F3xx_HAL_Driver/Src/stm32f3xx_hal_pcd.c ****   ep->is_in = ((ep_addr & 0x80U) == 0x80U);
 2751              		.loc 1 1188 0
 2752 002e D20F     		lsrs	r2, r2, #31
 2753              	.LVL246:
 2754 0030 5A70     		strb	r2, [r3, #1]
1189:Drivers/STM32F3xx_HAL_Driver/Src/stm32f3xx_hal_pcd.c ****   
1190:Drivers/STM32F3xx_HAL_Driver/Src/stm32f3xx_hal_pcd.c ****   if (ep->num == 0U)
 2755              		.loc 1 1190 0
 2756 0032 01BB     		cbnz	r1, .L178
 2757              	.LBB31:
1191:Drivers/STM32F3xx_HAL_Driver/Src/stm32f3xx_hal_pcd.c ****   {
1192:Drivers/STM32F3xx_HAL_Driver/Src/stm32f3xx_hal_pcd.c ****     /* This macro sets STALL status for RX & TX*/ 
1193:Drivers/STM32F3xx_HAL_Driver/Src/stm32f3xx_hal_pcd.c ****     PCD_SET_EP_TXRX_STATUS(hpcd->Instance, ep->num, USB_EP_RX_STALL, USB_EP_TX_STALL) 
 2758              		.loc 1 1193 0
 2759 0034 0268     		ldr	r2, [r0]
 2760 0036 32F82130 		ldrh	r3, [r2, r1, lsl #2]
 2761              	.LVL247:
 2762 003a 9BB2     		uxth	r3, r3
 2763              	.LVL248:
 2764 003c 23F48043 		bic	r3, r3, #16384
 2765              	.LVL249:
 2766 0040 23F04003 		bic	r3, r3, #64
 2767 0044 83F48053 		eor	r3, r3, #4096
 2768 0048 83F01003 		eor	r3, r3, #16
 2769 004c 43F40043 		orr	r3, r3, #32768
 2770 0050 43F08003 		orr	r3, r3, #128
 2771 0054 22F82130 		strh	r3, [r2, r1, lsl #2]	@ movhi
 2772              	.L179:
 2773              	.LBE31:
1194:Drivers/STM32F3xx_HAL_Driver/Src/stm32f3xx_hal_pcd.c ****   }
1195:Drivers/STM32F3xx_HAL_Driver/Src/stm32f3xx_hal_pcd.c ****   else
1196:Drivers/STM32F3xx_HAL_Driver/Src/stm32f3xx_hal_pcd.c ****   {
1197:Drivers/STM32F3xx_HAL_Driver/Src/stm32f3xx_hal_pcd.c ****     if (ep->is_in)
1198:Drivers/STM32F3xx_HAL_Driver/Src/stm32f3xx_hal_pcd.c ****     {
1199:Drivers/STM32F3xx_HAL_Driver/Src/stm32f3xx_hal_pcd.c ****       PCD_SET_EP_TX_STATUS(hpcd->Instance, ep->num , USB_EP_TX_STALL) 
1200:Drivers/STM32F3xx_HAL_Driver/Src/stm32f3xx_hal_pcd.c ****     }
1201:Drivers/STM32F3xx_HAL_Driver/Src/stm32f3xx_hal_pcd.c ****     else
1202:Drivers/STM32F3xx_HAL_Driver/Src/stm32f3xx_hal_pcd.c ****     {
1203:Drivers/STM32F3xx_HAL_Driver/Src/stm32f3xx_hal_pcd.c ****       PCD_SET_EP_RX_STATUS(hpcd->Instance, ep->num , USB_EP_RX_STALL)
1204:Drivers/STM32F3xx_HAL_Driver/Src/stm32f3xx_hal_pcd.c ****     }
1205:Drivers/STM32F3xx_HAL_Driver/Src/stm32f3xx_hal_pcd.c ****   }
1206:Drivers/STM32F3xx_HAL_Driver/Src/stm32f3xx_hal_pcd.c ****   __HAL_UNLOCK(hpcd); 
 2774              		.loc 1 1206 0
 2775 0058 0023     		movs	r3, #0
 2776 005a 80F87033 		strb	r3, [r0, #880]
1207:Drivers/STM32F3xx_HAL_Driver/Src/stm32f3xx_hal_pcd.c ****   
ARM GAS  C:\Users\acw\AppData\Local\Temp\ccoXZyGi.s 			page 74


1208:Drivers/STM32F3xx_HAL_Driver/Src/stm32f3xx_hal_pcd.c ****   return HAL_OK;
 2777              		.loc 1 1208 0
 2778 005e 1846     		mov	r0, r3
 2779              	.LVL250:
1209:Drivers/STM32F3xx_HAL_Driver/Src/stm32f3xx_hal_pcd.c **** }
 2780              		.loc 1 1209 0
 2781 0060 5DF8044B 		ldr	r4, [sp], #4
 2782              	.LCFI24:
 2783              		.cfi_remember_state
 2784              		.cfi_restore 4
 2785              		.cfi_def_cfa_offset 0
 2786 0064 7047     		bx	lr
 2787              	.LVL251:
 2788              	.L186:
 2789              	.LCFI25:
 2790              		.cfi_restore_state
1179:Drivers/STM32F3xx_HAL_Driver/Src/stm32f3xx_hal_pcd.c ****   }
 2791              		.loc 1 1179 0
 2792 0066 01F07F04 		and	r4, r1, #127
 2793 006a C4EBC404 		rsb	r4, r4, r4, lsl #3
 2794 006e A300     		lsls	r3, r4, #2
 2795 0070 2833     		adds	r3, r3, #40
 2796 0072 0344     		add	r3, r3, r0
 2797              	.LVL252:
 2798 0074 D6E7     		b	.L177
 2799              	.LVL253:
 2800              	.L178:
1197:Drivers/STM32F3xx_HAL_Driver/Src/stm32f3xx_hal_pcd.c ****     {
 2801              		.loc 1 1197 0
 2802 0076 82B1     		cbz	r2, .L180
 2803              	.LBB32:
1199:Drivers/STM32F3xx_HAL_Driver/Src/stm32f3xx_hal_pcd.c ****     }
 2804              		.loc 1 1199 0
 2805 0078 0268     		ldr	r2, [r0]
 2806 007a 32F82130 		ldrh	r3, [r2, r1, lsl #2]
 2807              	.LVL254:
 2808 007e 9BB2     		uxth	r3, r3
 2809 0080 23F4E043 		bic	r3, r3, #28672
 2810 0084 23F04003 		bic	r3, r3, #64
 2811              	.LVL255:
 2812 0088 83F01003 		eor	r3, r3, #16
 2813              	.LVL256:
 2814 008c 43F40043 		orr	r3, r3, #32768
 2815              	.LVL257:
 2816 0090 43F08003 		orr	r3, r3, #128
 2817 0094 22F82130 		strh	r3, [r2, r1, lsl #2]	@ movhi
 2818              	.LBE32:
 2819 0098 DEE7     		b	.L179
 2820              	.LVL258:
 2821              	.L180:
 2822              	.LBB33:
1203:Drivers/STM32F3xx_HAL_Driver/Src/stm32f3xx_hal_pcd.c ****     }
 2823              		.loc 1 1203 0
 2824 009a 0268     		ldr	r2, [r0]
 2825 009c 32F82130 		ldrh	r3, [r2, r1, lsl #2]
 2826              	.LVL259:
 2827 00a0 9BB2     		uxth	r3, r3
ARM GAS  C:\Users\acw\AppData\Local\Temp\ccoXZyGi.s 			page 75


 2828 00a2 23F48043 		bic	r3, r3, #16384
 2829 00a6 23F07003 		bic	r3, r3, #112
 2830              	.LVL260:
 2831 00aa 83F48053 		eor	r3, r3, #4096
 2832              	.LVL261:
 2833 00ae 43F40043 		orr	r3, r3, #32768
 2834              	.LVL262:
 2835 00b2 43F08003 		orr	r3, r3, #128
 2836 00b6 22F82130 		strh	r3, [r2, r1, lsl #2]	@ movhi
 2837 00ba CDE7     		b	.L179
 2838              	.LVL263:
 2839              	.L181:
 2840              	.LCFI26:
 2841              		.cfi_def_cfa_offset 0
 2842              		.cfi_restore 4
 2843              	.LBE33:
1175:Drivers/STM32F3xx_HAL_Driver/Src/stm32f3xx_hal_pcd.c ****    
 2844              		.loc 1 1175 0
 2845 00bc 0220     		movs	r0, #2
 2846              	.LVL264:
 2847              		.loc 1 1209 0
 2848 00be 7047     		bx	lr
 2849              		.cfi_endproc
 2850              	.LFE153:
 2852              		.section	.text.HAL_PCD_EP_ClrStall,"ax",%progbits
 2853              		.align	1
 2854              		.global	HAL_PCD_EP_ClrStall
 2855              		.syntax unified
 2856              		.thumb
 2857              		.thumb_func
 2858              		.fpu fpv4-sp-d16
 2860              	HAL_PCD_EP_ClrStall:
 2861              	.LFB154:
1210:Drivers/STM32F3xx_HAL_Driver/Src/stm32f3xx_hal_pcd.c **** 
1211:Drivers/STM32F3xx_HAL_Driver/Src/stm32f3xx_hal_pcd.c **** /**
1212:Drivers/STM32F3xx_HAL_Driver/Src/stm32f3xx_hal_pcd.c ****   * @brief  Clear a STALL condition over in an endpoint
1213:Drivers/STM32F3xx_HAL_Driver/Src/stm32f3xx_hal_pcd.c ****   * @param  hpcd PCD handle
1214:Drivers/STM32F3xx_HAL_Driver/Src/stm32f3xx_hal_pcd.c ****   * @param  ep_addr endpoint address
1215:Drivers/STM32F3xx_HAL_Driver/Src/stm32f3xx_hal_pcd.c ****   * @retval HAL status
1216:Drivers/STM32F3xx_HAL_Driver/Src/stm32f3xx_hal_pcd.c ****   */
1217:Drivers/STM32F3xx_HAL_Driver/Src/stm32f3xx_hal_pcd.c **** HAL_StatusTypeDef HAL_PCD_EP_ClrStall(PCD_HandleTypeDef *hpcd, uint8_t ep_addr)
1218:Drivers/STM32F3xx_HAL_Driver/Src/stm32f3xx_hal_pcd.c **** {
 2862              		.loc 1 1218 0
 2863              		.cfi_startproc
 2864              		@ args = 0, pretend = 0, frame = 0
 2865              		@ frame_needed = 0, uses_anonymous_args = 0
 2866              		@ link register save eliminated.
 2867              	.LVL265:
 2868 0000 10B4     		push	{r4}
 2869              	.LCFI27:
 2870              		.cfi_def_cfa_offset 4
 2871              		.cfi_offset 4, -4
1219:Drivers/STM32F3xx_HAL_Driver/Src/stm32f3xx_hal_pcd.c ****   PCD_EPTypeDef *ep;
1220:Drivers/STM32F3xx_HAL_Driver/Src/stm32f3xx_hal_pcd.c ****   
1221:Drivers/STM32F3xx_HAL_Driver/Src/stm32f3xx_hal_pcd.c ****   if ((0x80U & ep_addr) == 0x80U)
 2872              		.loc 1 1221 0
 2873 0002 4AB2     		sxtb	r2, r1
ARM GAS  C:\Users\acw\AppData\Local\Temp\ccoXZyGi.s 			page 76


 2874 0004 002A     		cmp	r2, #0
 2875 0006 41DB     		blt	.L197
1222:Drivers/STM32F3xx_HAL_Driver/Src/stm32f3xx_hal_pcd.c ****   {
1223:Drivers/STM32F3xx_HAL_Driver/Src/stm32f3xx_hal_pcd.c ****     ep = &hpcd->IN_ep[ep_addr & 0x7F];
1224:Drivers/STM32F3xx_HAL_Driver/Src/stm32f3xx_hal_pcd.c ****   }
1225:Drivers/STM32F3xx_HAL_Driver/Src/stm32f3xx_hal_pcd.c ****   else
1226:Drivers/STM32F3xx_HAL_Driver/Src/stm32f3xx_hal_pcd.c ****   {
1227:Drivers/STM32F3xx_HAL_Driver/Src/stm32f3xx_hal_pcd.c ****     ep = &hpcd->OUT_ep[ep_addr];
 2876              		.loc 1 1227 0
 2877 0008 C1EBC104 		rsb	r4, r1, r1, lsl #3
 2878 000c A300     		lsls	r3, r4, #2
 2879 000e 03F5E473 		add	r3, r3, #456
 2880 0012 0344     		add	r3, r3, r0
 2881 0014 0433     		adds	r3, r3, #4
 2882              	.LVL266:
 2883              	.L189:
1228:Drivers/STM32F3xx_HAL_Driver/Src/stm32f3xx_hal_pcd.c ****   }
1229:Drivers/STM32F3xx_HAL_Driver/Src/stm32f3xx_hal_pcd.c ****   
1230:Drivers/STM32F3xx_HAL_Driver/Src/stm32f3xx_hal_pcd.c ****   ep->is_stall = 0U;
 2884              		.loc 1 1230 0
 2885 0016 0024     		movs	r4, #0
 2886 0018 9C70     		strb	r4, [r3, #2]
1231:Drivers/STM32F3xx_HAL_Driver/Src/stm32f3xx_hal_pcd.c ****   ep->num   = ep_addr & 0x7FU;
 2887              		.loc 1 1231 0
 2888 001a 01F07F01 		and	r1, r1, #127
 2889              	.LVL267:
 2890 001e 1970     		strb	r1, [r3]
1232:Drivers/STM32F3xx_HAL_Driver/Src/stm32f3xx_hal_pcd.c ****   ep->is_in = ((ep_addr & 0x80U) == 0x80U);
 2891              		.loc 1 1232 0
 2892 0020 D20F     		lsrs	r2, r2, #31
 2893              	.LVL268:
 2894 0022 5A70     		strb	r2, [r3, #1]
1233:Drivers/STM32F3xx_HAL_Driver/Src/stm32f3xx_hal_pcd.c ****   
1234:Drivers/STM32F3xx_HAL_Driver/Src/stm32f3xx_hal_pcd.c ****   __HAL_LOCK(hpcd); 
 2895              		.loc 1 1234 0
 2896 0024 90F87023 		ldrb	r2, [r0, #880]	@ zero_extendqisi2
 2897 0028 012A     		cmp	r2, #1
 2898 002a 5CD0     		beq	.L195
 2899              		.loc 1 1234 0 is_stmt 0 discriminator 2
 2900 002c 0122     		movs	r2, #1
 2901 002e 80F87023 		strb	r2, [r0, #880]
1235:Drivers/STM32F3xx_HAL_Driver/Src/stm32f3xx_hal_pcd.c ****   
1236:Drivers/STM32F3xx_HAL_Driver/Src/stm32f3xx_hal_pcd.c ****   if (ep->is_in)
 2902              		.loc 1 1236 0 is_stmt 1 discriminator 2
 2903 0032 5A78     		ldrb	r2, [r3, #1]	@ zero_extendqisi2
 2904 0034 92B3     		cbz	r2, .L191
1237:Drivers/STM32F3xx_HAL_Driver/Src/stm32f3xx_hal_pcd.c ****   {
1238:Drivers/STM32F3xx_HAL_Driver/Src/stm32f3xx_hal_pcd.c ****     PCD_CLEAR_TX_DTOG(hpcd->Instance, ep->num)
 2905              		.loc 1 1238 0
 2906 0036 0168     		ldr	r1, [r0]
 2907 0038 1C78     		ldrb	r4, [r3]	@ zero_extendqisi2
 2908 003a 31F82420 		ldrh	r2, [r1, r4, lsl #2]
 2909 003e 12F0400F 		tst	r2, #64
 2910 0042 0BD0     		beq	.L192
 2911              		.loc 1 1238 0 is_stmt 0 discriminator 1
 2912 0044 31F82420 		ldrh	r2, [r1, r4, lsl #2]
 2913 0048 22F0F002 		bic	r2, r2, #240
ARM GAS  C:\Users\acw\AppData\Local\Temp\ccoXZyGi.s 			page 77


 2914 004c 1205     		lsls	r2, r2, #20
 2915 004e 120D     		lsrs	r2, r2, #20
 2916 0050 42F40042 		orr	r2, r2, #32768
 2917 0054 42F0C002 		orr	r2, r2, #192
 2918 0058 21F82420 		strh	r2, [r1, r4, lsl #2]	@ movhi
 2919              	.L192:
 2920              	.LBB34:
1239:Drivers/STM32F3xx_HAL_Driver/Src/stm32f3xx_hal_pcd.c ****     PCD_SET_EP_TX_STATUS(hpcd->Instance, ep->num, USB_EP_TX_VALID)
 2921              		.loc 1 1239 0 is_stmt 1
 2922 005c 0268     		ldr	r2, [r0]
 2923 005e 1978     		ldrb	r1, [r3]	@ zero_extendqisi2
 2924 0060 32F82130 		ldrh	r3, [r2, r1, lsl #2]
 2925              	.LVL269:
 2926 0064 9BB2     		uxth	r3, r3
 2927 0066 23F4E043 		bic	r3, r3, #28672
 2928 006a 23F04003 		bic	r3, r3, #64
 2929              	.LVL270:
 2930 006e 83F03003 		eor	r3, r3, #48
 2931              	.LVL271:
 2932 0072 43F40043 		orr	r3, r3, #32768
 2933              	.LVL272:
 2934 0076 43F08003 		orr	r3, r3, #128
 2935 007a 22F82130 		strh	r3, [r2, r1, lsl #2]	@ movhi
 2936              	.L193:
 2937              	.LBE34:
1240:Drivers/STM32F3xx_HAL_Driver/Src/stm32f3xx_hal_pcd.c ****   }
1241:Drivers/STM32F3xx_HAL_Driver/Src/stm32f3xx_hal_pcd.c ****   else
1242:Drivers/STM32F3xx_HAL_Driver/Src/stm32f3xx_hal_pcd.c ****   {
1243:Drivers/STM32F3xx_HAL_Driver/Src/stm32f3xx_hal_pcd.c ****     PCD_CLEAR_RX_DTOG(hpcd->Instance, ep->num)
1244:Drivers/STM32F3xx_HAL_Driver/Src/stm32f3xx_hal_pcd.c ****     PCD_SET_EP_RX_STATUS(hpcd->Instance, ep->num, USB_EP_RX_VALID)
1245:Drivers/STM32F3xx_HAL_Driver/Src/stm32f3xx_hal_pcd.c ****   }
1246:Drivers/STM32F3xx_HAL_Driver/Src/stm32f3xx_hal_pcd.c ****   __HAL_UNLOCK(hpcd); 
 2938              		.loc 1 1246 0
 2939 007e 0023     		movs	r3, #0
 2940 0080 80F87033 		strb	r3, [r0, #880]
1247:Drivers/STM32F3xx_HAL_Driver/Src/stm32f3xx_hal_pcd.c ****     
1248:Drivers/STM32F3xx_HAL_Driver/Src/stm32f3xx_hal_pcd.c ****   return HAL_OK;
 2941              		.loc 1 1248 0
 2942 0084 1846     		mov	r0, r3
 2943              	.LVL273:
 2944              	.L190:
1249:Drivers/STM32F3xx_HAL_Driver/Src/stm32f3xx_hal_pcd.c **** }
 2945              		.loc 1 1249 0
 2946 0086 5DF8044B 		ldr	r4, [sp], #4
 2947              	.LCFI28:
 2948              		.cfi_remember_state
 2949              		.cfi_restore 4
 2950              		.cfi_def_cfa_offset 0
 2951 008a 7047     		bx	lr
 2952              	.LVL274:
 2953              	.L197:
 2954              	.LCFI29:
 2955              		.cfi_restore_state
1223:Drivers/STM32F3xx_HAL_Driver/Src/stm32f3xx_hal_pcd.c ****   }
 2956              		.loc 1 1223 0
 2957 008c 01F07F04 		and	r4, r1, #127
 2958 0090 C4EBC404 		rsb	r4, r4, r4, lsl #3
ARM GAS  C:\Users\acw\AppData\Local\Temp\ccoXZyGi.s 			page 78


 2959 0094 A300     		lsls	r3, r4, #2
 2960 0096 2833     		adds	r3, r3, #40
 2961 0098 0344     		add	r3, r3, r0
 2962              	.LVL275:
 2963 009a BCE7     		b	.L189
 2964              	.LVL276:
 2965              	.L191:
1243:Drivers/STM32F3xx_HAL_Driver/Src/stm32f3xx_hal_pcd.c ****     PCD_SET_EP_RX_STATUS(hpcd->Instance, ep->num, USB_EP_RX_VALID)
 2966              		.loc 1 1243 0
 2967 009c 0168     		ldr	r1, [r0]
 2968 009e 1C78     		ldrb	r4, [r3]	@ zero_extendqisi2
 2969 00a0 31F82420 		ldrh	r2, [r1, r4, lsl #2]
 2970 00a4 12F4804F 		tst	r2, #16384
 2971 00a8 0BD0     		beq	.L194
1243:Drivers/STM32F3xx_HAL_Driver/Src/stm32f3xx_hal_pcd.c ****     PCD_SET_EP_RX_STATUS(hpcd->Instance, ep->num, USB_EP_RX_VALID)
 2972              		.loc 1 1243 0 is_stmt 0 discriminator 1
 2973 00aa 31F82420 		ldrh	r2, [r1, r4, lsl #2]
 2974 00ae 22F0F002 		bic	r2, r2, #240
 2975 00b2 1205     		lsls	r2, r2, #20
 2976 00b4 120D     		lsrs	r2, r2, #20
 2977 00b6 42F44042 		orr	r2, r2, #49152
 2978 00ba 42F08002 		orr	r2, r2, #128
 2979 00be 21F82420 		strh	r2, [r1, r4, lsl #2]	@ movhi
 2980              	.L194:
 2981              	.LBB35:
1244:Drivers/STM32F3xx_HAL_Driver/Src/stm32f3xx_hal_pcd.c ****   }
 2982              		.loc 1 1244 0 is_stmt 1
 2983 00c2 0268     		ldr	r2, [r0]
 2984 00c4 1978     		ldrb	r1, [r3]	@ zero_extendqisi2
 2985 00c6 32F82130 		ldrh	r3, [r2, r1, lsl #2]
 2986              	.LVL277:
 2987 00ca 9BB2     		uxth	r3, r3
 2988 00cc 23F48043 		bic	r3, r3, #16384
 2989 00d0 23F07003 		bic	r3, r3, #112
 2990              	.LVL278:
 2991 00d4 83F44053 		eor	r3, r3, #12288
 2992              	.LVL279:
 2993 00d8 43F40043 		orr	r3, r3, #32768
 2994              	.LVL280:
 2995 00dc 43F08003 		orr	r3, r3, #128
 2996 00e0 22F82130 		strh	r3, [r2, r1, lsl #2]	@ movhi
 2997 00e4 CBE7     		b	.L193
 2998              	.LVL281:
 2999              	.L195:
 3000              	.LBE35:
1234:Drivers/STM32F3xx_HAL_Driver/Src/stm32f3xx_hal_pcd.c ****   
 3001              		.loc 1 1234 0
 3002 00e6 0220     		movs	r0, #2
 3003              	.LVL282:
 3004 00e8 CDE7     		b	.L190
 3005              		.cfi_endproc
 3006              	.LFE154:
 3008              		.section	.text.HAL_PCD_EP_Flush,"ax",%progbits
 3009              		.align	1
 3010              		.global	HAL_PCD_EP_Flush
 3011              		.syntax unified
 3012              		.thumb
ARM GAS  C:\Users\acw\AppData\Local\Temp\ccoXZyGi.s 			page 79


 3013              		.thumb_func
 3014              		.fpu fpv4-sp-d16
 3016              	HAL_PCD_EP_Flush:
 3017              	.LFB155:
1250:Drivers/STM32F3xx_HAL_Driver/Src/stm32f3xx_hal_pcd.c **** 
