ARM GAS  /tmp/ccTH4Y0M.s 			page 1


   1              		.cpu cortex-m4
   2              		.eabi_attribute 27, 1
   3              		.eabi_attribute 28, 1
   4              		.eabi_attribute 20, 1
   5              		.eabi_attribute 21, 1
   6              		.eabi_attribute 23, 3
   7              		.eabi_attribute 24, 1
   8              		.eabi_attribute 25, 1
   9              		.eabi_attribute 26, 1
  10              		.eabi_attribute 30, 1
  11              		.eabi_attribute 34, 1
  12              		.eabi_attribute 18, 4
  13              		.file	"stm32f3xx_hal_can.c"
  14              		.text
  15              	.Ltext0:
  16              		.cfi_sections	.debug_frame
  17              		.section	.text.HAL_CAN_MspInit,"ax",%progbits
  18              		.align	1
  19              		.weak	HAL_CAN_MspInit
  20              		.arch armv7e-m
  21              		.syntax unified
  22              		.thumb
  23              		.thumb_func
  24              		.fpu fpv4-sp-d16
  26              	HAL_CAN_MspInit:
  27              	.LVL0:
  28              	.LFB128:
  29              		.file 1 "Drivers/STM32F3xx_HAL_Driver/Src/stm32f3xx_hal_can.c"
   1:Drivers/STM32F3xx_HAL_Driver/Src/stm32f3xx_hal_can.c **** /**
   2:Drivers/STM32F3xx_HAL_Driver/Src/stm32f3xx_hal_can.c ****   ******************************************************************************
   3:Drivers/STM32F3xx_HAL_Driver/Src/stm32f3xx_hal_can.c ****   * @file    stm32f3xx_hal_can.c
   4:Drivers/STM32F3xx_HAL_Driver/Src/stm32f3xx_hal_can.c ****   * @author  MCD Application Team
   5:Drivers/STM32F3xx_HAL_Driver/Src/stm32f3xx_hal_can.c ****   * @brief   CAN HAL module driver.
   6:Drivers/STM32F3xx_HAL_Driver/Src/stm32f3xx_hal_can.c ****   *          This file provides firmware functions to manage the following
   7:Drivers/STM32F3xx_HAL_Driver/Src/stm32f3xx_hal_can.c ****   *          functionalities of the Controller Area Network (CAN) peripheral:
   8:Drivers/STM32F3xx_HAL_Driver/Src/stm32f3xx_hal_can.c ****   *           + Initialization and de-initialization functions
   9:Drivers/STM32F3xx_HAL_Driver/Src/stm32f3xx_hal_can.c ****   *           + Configuration functions
  10:Drivers/STM32F3xx_HAL_Driver/Src/stm32f3xx_hal_can.c ****   *           + Control functions
  11:Drivers/STM32F3xx_HAL_Driver/Src/stm32f3xx_hal_can.c ****   *           + Interrupts management
  12:Drivers/STM32F3xx_HAL_Driver/Src/stm32f3xx_hal_can.c ****   *           + Callbacks functions
  13:Drivers/STM32F3xx_HAL_Driver/Src/stm32f3xx_hal_can.c ****   *           + Peripheral State and Error functions
  14:Drivers/STM32F3xx_HAL_Driver/Src/stm32f3xx_hal_can.c ****   *
  15:Drivers/STM32F3xx_HAL_Driver/Src/stm32f3xx_hal_can.c ****   @verbatim
  16:Drivers/STM32F3xx_HAL_Driver/Src/stm32f3xx_hal_can.c ****   ==============================================================================
  17:Drivers/STM32F3xx_HAL_Driver/Src/stm32f3xx_hal_can.c ****                         ##### How to use this driver #####
  18:Drivers/STM32F3xx_HAL_Driver/Src/stm32f3xx_hal_can.c ****   ==============================================================================
  19:Drivers/STM32F3xx_HAL_Driver/Src/stm32f3xx_hal_can.c ****     [..]
  20:Drivers/STM32F3xx_HAL_Driver/Src/stm32f3xx_hal_can.c ****       (#) Initialize the CAN low level resources by implementing the
  21:Drivers/STM32F3xx_HAL_Driver/Src/stm32f3xx_hal_can.c ****           HAL_CAN_MspInit():
  22:Drivers/STM32F3xx_HAL_Driver/Src/stm32f3xx_hal_can.c ****          (++) Enable the CAN interface clock using __HAL_RCC_CANx_CLK_ENABLE()
  23:Drivers/STM32F3xx_HAL_Driver/Src/stm32f3xx_hal_can.c ****          (++) Configure CAN pins
  24:Drivers/STM32F3xx_HAL_Driver/Src/stm32f3xx_hal_can.c ****              (+++) Enable the clock for the CAN GPIOs
  25:Drivers/STM32F3xx_HAL_Driver/Src/stm32f3xx_hal_can.c ****              (+++) Configure CAN pins as alternate function open-drain
  26:Drivers/STM32F3xx_HAL_Driver/Src/stm32f3xx_hal_can.c ****          (++) In case of using interrupts (e.g. HAL_CAN_ActivateNotification())
  27:Drivers/STM32F3xx_HAL_Driver/Src/stm32f3xx_hal_can.c ****              (+++) Configure the CAN interrupt priority using
  28:Drivers/STM32F3xx_HAL_Driver/Src/stm32f3xx_hal_can.c ****                    HAL_NVIC_SetPriority()
  29:Drivers/STM32F3xx_HAL_Driver/Src/stm32f3xx_hal_can.c ****              (+++) Enable the CAN IRQ handler using HAL_NVIC_EnableIRQ()
ARM GAS  /tmp/ccTH4Y0M.s 			page 2


  30:Drivers/STM32F3xx_HAL_Driver/Src/stm32f3xx_hal_can.c ****              (+++) In CAN IRQ handler, call HAL_CAN_IRQHandler()
  31:Drivers/STM32F3xx_HAL_Driver/Src/stm32f3xx_hal_can.c **** 
  32:Drivers/STM32F3xx_HAL_Driver/Src/stm32f3xx_hal_can.c ****       (#) Initialize the CAN peripheral using HAL_CAN_Init() function. This
  33:Drivers/STM32F3xx_HAL_Driver/Src/stm32f3xx_hal_can.c ****           function resorts to HAL_CAN_MspInit() for low-level initialization.
  34:Drivers/STM32F3xx_HAL_Driver/Src/stm32f3xx_hal_can.c **** 
  35:Drivers/STM32F3xx_HAL_Driver/Src/stm32f3xx_hal_can.c ****       (#) Configure the reception filters using the following configuration
  36:Drivers/STM32F3xx_HAL_Driver/Src/stm32f3xx_hal_can.c ****           functions:
  37:Drivers/STM32F3xx_HAL_Driver/Src/stm32f3xx_hal_can.c ****             (++) HAL_CAN_ConfigFilter()
  38:Drivers/STM32F3xx_HAL_Driver/Src/stm32f3xx_hal_can.c **** 
  39:Drivers/STM32F3xx_HAL_Driver/Src/stm32f3xx_hal_can.c ****       (#) Start the CAN module using HAL_CAN_Start() function. At this level
  40:Drivers/STM32F3xx_HAL_Driver/Src/stm32f3xx_hal_can.c ****           the node is active on the bus: it receive messages, and can send
  41:Drivers/STM32F3xx_HAL_Driver/Src/stm32f3xx_hal_can.c ****           messages.
  42:Drivers/STM32F3xx_HAL_Driver/Src/stm32f3xx_hal_can.c **** 
  43:Drivers/STM32F3xx_HAL_Driver/Src/stm32f3xx_hal_can.c ****       (#) To manage messages transmission, the following Tx control functions
  44:Drivers/STM32F3xx_HAL_Driver/Src/stm32f3xx_hal_can.c ****           can be used:
  45:Drivers/STM32F3xx_HAL_Driver/Src/stm32f3xx_hal_can.c ****             (++) HAL_CAN_AddTxMessage() to request transmission of a new
  46:Drivers/STM32F3xx_HAL_Driver/Src/stm32f3xx_hal_can.c ****                  message.
  47:Drivers/STM32F3xx_HAL_Driver/Src/stm32f3xx_hal_can.c ****             (++) HAL_CAN_AbortTxRequest() to abort transmission of a pending
  48:Drivers/STM32F3xx_HAL_Driver/Src/stm32f3xx_hal_can.c ****                  message.
  49:Drivers/STM32F3xx_HAL_Driver/Src/stm32f3xx_hal_can.c ****             (++) HAL_CAN_GetTxMailboxesFreeLevel() to get the number of free Tx
  50:Drivers/STM32F3xx_HAL_Driver/Src/stm32f3xx_hal_can.c ****                  mailboxes.
  51:Drivers/STM32F3xx_HAL_Driver/Src/stm32f3xx_hal_can.c ****             (++) HAL_CAN_IsTxMessagePending() to check if a message is pending
  52:Drivers/STM32F3xx_HAL_Driver/Src/stm32f3xx_hal_can.c ****                  in a Tx mailbox.
  53:Drivers/STM32F3xx_HAL_Driver/Src/stm32f3xx_hal_can.c ****             (++) HAL_CAN_GetTxTimestamp() to get the timestamp of Tx message
  54:Drivers/STM32F3xx_HAL_Driver/Src/stm32f3xx_hal_can.c ****                  sent, if time triggered communication mode is enabled.
  55:Drivers/STM32F3xx_HAL_Driver/Src/stm32f3xx_hal_can.c **** 
  56:Drivers/STM32F3xx_HAL_Driver/Src/stm32f3xx_hal_can.c ****       (#) When a message is received into the CAN Rx FIFOs, it can be retrieved
  57:Drivers/STM32F3xx_HAL_Driver/Src/stm32f3xx_hal_can.c ****           using the HAL_CAN_GetRxMessage() function. The function
  58:Drivers/STM32F3xx_HAL_Driver/Src/stm32f3xx_hal_can.c ****           HAL_CAN_GetRxFifoFillLevel() allows to know how many Rx message are
  59:Drivers/STM32F3xx_HAL_Driver/Src/stm32f3xx_hal_can.c ****           stored in the Rx Fifo.
  60:Drivers/STM32F3xx_HAL_Driver/Src/stm32f3xx_hal_can.c **** 
  61:Drivers/STM32F3xx_HAL_Driver/Src/stm32f3xx_hal_can.c ****       (#) Calling the HAL_CAN_Stop() function stops the CAN module.
  62:Drivers/STM32F3xx_HAL_Driver/Src/stm32f3xx_hal_can.c **** 
  63:Drivers/STM32F3xx_HAL_Driver/Src/stm32f3xx_hal_can.c ****       (#) The deinitialization is achieved with HAL_CAN_DeInit() function.
  64:Drivers/STM32F3xx_HAL_Driver/Src/stm32f3xx_hal_can.c **** 
  65:Drivers/STM32F3xx_HAL_Driver/Src/stm32f3xx_hal_can.c **** 
  66:Drivers/STM32F3xx_HAL_Driver/Src/stm32f3xx_hal_can.c ****       *** Polling mode operation ***
  67:Drivers/STM32F3xx_HAL_Driver/Src/stm32f3xx_hal_can.c ****       ==============================
  68:Drivers/STM32F3xx_HAL_Driver/Src/stm32f3xx_hal_can.c ****     [..]
  69:Drivers/STM32F3xx_HAL_Driver/Src/stm32f3xx_hal_can.c ****       (#) Reception:
  70:Drivers/STM32F3xx_HAL_Driver/Src/stm32f3xx_hal_can.c ****             (++) Monitor reception of message using HAL_CAN_GetRxFifoFillLevel()
  71:Drivers/STM32F3xx_HAL_Driver/Src/stm32f3xx_hal_can.c ****                  until at least one message is received.
  72:Drivers/STM32F3xx_HAL_Driver/Src/stm32f3xx_hal_can.c ****             (++) Then get the message using HAL_CAN_GetRxMessage().
  73:Drivers/STM32F3xx_HAL_Driver/Src/stm32f3xx_hal_can.c **** 
  74:Drivers/STM32F3xx_HAL_Driver/Src/stm32f3xx_hal_can.c ****       (#) Transmission:
  75:Drivers/STM32F3xx_HAL_Driver/Src/stm32f3xx_hal_can.c ****             (++) Monitor the Tx mailboxes availability until at least one Tx
  76:Drivers/STM32F3xx_HAL_Driver/Src/stm32f3xx_hal_can.c ****                  mailbox is free, using HAL_CAN_GetTxMailboxesFreeLevel().
  77:Drivers/STM32F3xx_HAL_Driver/Src/stm32f3xx_hal_can.c ****             (++) Then request transmission of a message using
  78:Drivers/STM32F3xx_HAL_Driver/Src/stm32f3xx_hal_can.c ****                  HAL_CAN_AddTxMessage().
  79:Drivers/STM32F3xx_HAL_Driver/Src/stm32f3xx_hal_can.c **** 
  80:Drivers/STM32F3xx_HAL_Driver/Src/stm32f3xx_hal_can.c **** 
  81:Drivers/STM32F3xx_HAL_Driver/Src/stm32f3xx_hal_can.c ****       *** Interrupt mode operation ***
  82:Drivers/STM32F3xx_HAL_Driver/Src/stm32f3xx_hal_can.c ****       ================================
  83:Drivers/STM32F3xx_HAL_Driver/Src/stm32f3xx_hal_can.c ****     [..]
  84:Drivers/STM32F3xx_HAL_Driver/Src/stm32f3xx_hal_can.c ****       (#) Notifications are activated using HAL_CAN_ActivateNotification()
  85:Drivers/STM32F3xx_HAL_Driver/Src/stm32f3xx_hal_can.c ****           function. Then, the process can be controlled through the
  86:Drivers/STM32F3xx_HAL_Driver/Src/stm32f3xx_hal_can.c ****           available user callbacks: HAL_CAN_xxxCallback(), using same APIs
ARM GAS  /tmp/ccTH4Y0M.s 			page 3


  87:Drivers/STM32F3xx_HAL_Driver/Src/stm32f3xx_hal_can.c ****           HAL_CAN_GetRxMessage() and HAL_CAN_AddTxMessage().
  88:Drivers/STM32F3xx_HAL_Driver/Src/stm32f3xx_hal_can.c **** 
  89:Drivers/STM32F3xx_HAL_Driver/Src/stm32f3xx_hal_can.c ****       (#) Notifications can be deactivated using
  90:Drivers/STM32F3xx_HAL_Driver/Src/stm32f3xx_hal_can.c ****           HAL_CAN_DeactivateNotification() function.
  91:Drivers/STM32F3xx_HAL_Driver/Src/stm32f3xx_hal_can.c **** 
  92:Drivers/STM32F3xx_HAL_Driver/Src/stm32f3xx_hal_can.c ****       (#) Special care should be taken for CAN_IT_RX_FIFO0_MSG_PENDING and
  93:Drivers/STM32F3xx_HAL_Driver/Src/stm32f3xx_hal_can.c ****           CAN_IT_RX_FIFO1_MSG_PENDING notifications. These notifications trig
  94:Drivers/STM32F3xx_HAL_Driver/Src/stm32f3xx_hal_can.c ****           the callbacks HAL_CAN_RxFIFO0MsgPendingCallback() and
  95:Drivers/STM32F3xx_HAL_Driver/Src/stm32f3xx_hal_can.c ****           HAL_CAN_RxFIFO1MsgPendingCallback(). User has two possible options
  96:Drivers/STM32F3xx_HAL_Driver/Src/stm32f3xx_hal_can.c ****           here.
  97:Drivers/STM32F3xx_HAL_Driver/Src/stm32f3xx_hal_can.c ****             (++) Directly get the Rx message in the callback, using
  98:Drivers/STM32F3xx_HAL_Driver/Src/stm32f3xx_hal_can.c ****                  HAL_CAN_GetRxMessage().
  99:Drivers/STM32F3xx_HAL_Driver/Src/stm32f3xx_hal_can.c ****             (++) Or deactivate the notification in the callback without
 100:Drivers/STM32F3xx_HAL_Driver/Src/stm32f3xx_hal_can.c ****                  getting the Rx message. The Rx message can then be got later
 101:Drivers/STM32F3xx_HAL_Driver/Src/stm32f3xx_hal_can.c ****                  using HAL_CAN_GetRxMessage(). Once the Rx message have been
 102:Drivers/STM32F3xx_HAL_Driver/Src/stm32f3xx_hal_can.c ****                  read, the notification can be activated again.
 103:Drivers/STM32F3xx_HAL_Driver/Src/stm32f3xx_hal_can.c **** 
 104:Drivers/STM32F3xx_HAL_Driver/Src/stm32f3xx_hal_can.c **** 
 105:Drivers/STM32F3xx_HAL_Driver/Src/stm32f3xx_hal_can.c ****       *** Sleep mode ***
 106:Drivers/STM32F3xx_HAL_Driver/Src/stm32f3xx_hal_can.c ****       ==================
 107:Drivers/STM32F3xx_HAL_Driver/Src/stm32f3xx_hal_can.c ****     [..]
 108:Drivers/STM32F3xx_HAL_Driver/Src/stm32f3xx_hal_can.c ****       (#) The CAN peripheral can be put in sleep mode (low power), using
 109:Drivers/STM32F3xx_HAL_Driver/Src/stm32f3xx_hal_can.c ****           HAL_CAN_RequestSleep(). The sleep mode will be entered as soon as the
 110:Drivers/STM32F3xx_HAL_Driver/Src/stm32f3xx_hal_can.c ****           current CAN activity (transmission or reception of a CAN frame) will
 111:Drivers/STM32F3xx_HAL_Driver/Src/stm32f3xx_hal_can.c ****           be completed.
 112:Drivers/STM32F3xx_HAL_Driver/Src/stm32f3xx_hal_can.c **** 
 113:Drivers/STM32F3xx_HAL_Driver/Src/stm32f3xx_hal_can.c ****       (#) A notification can be activated to be informed when the sleep mode
 114:Drivers/STM32F3xx_HAL_Driver/Src/stm32f3xx_hal_can.c ****           will be entered.
 115:Drivers/STM32F3xx_HAL_Driver/Src/stm32f3xx_hal_can.c **** 
 116:Drivers/STM32F3xx_HAL_Driver/Src/stm32f3xx_hal_can.c ****       (#) It can be checked if the sleep mode is entered using
 117:Drivers/STM32F3xx_HAL_Driver/Src/stm32f3xx_hal_can.c ****           HAL_CAN_IsSleepActive().
 118:Drivers/STM32F3xx_HAL_Driver/Src/stm32f3xx_hal_can.c ****           Note that the CAN state (accessible from the API HAL_CAN_GetState())
 119:Drivers/STM32F3xx_HAL_Driver/Src/stm32f3xx_hal_can.c ****           is HAL_CAN_STATE_SLEEP_PENDING as soon as the sleep mode request is
 120:Drivers/STM32F3xx_HAL_Driver/Src/stm32f3xx_hal_can.c ****           submitted (the sleep mode is not yet entered), and become
 121:Drivers/STM32F3xx_HAL_Driver/Src/stm32f3xx_hal_can.c ****           HAL_CAN_STATE_SLEEP_ACTIVE when the sleep mode is effective.
 122:Drivers/STM32F3xx_HAL_Driver/Src/stm32f3xx_hal_can.c **** 
 123:Drivers/STM32F3xx_HAL_Driver/Src/stm32f3xx_hal_can.c ****       (#) The wake-up from sleep mode can be trigged by two ways:
 124:Drivers/STM32F3xx_HAL_Driver/Src/stm32f3xx_hal_can.c ****             (++) Using HAL_CAN_WakeUp(). When returning from this function,
 125:Drivers/STM32F3xx_HAL_Driver/Src/stm32f3xx_hal_can.c ****                  the sleep mode is exited (if return status is HAL_OK).
 126:Drivers/STM32F3xx_HAL_Driver/Src/stm32f3xx_hal_can.c ****             (++) When a start of Rx CAN frame is detected by the CAN peripheral,
 127:Drivers/STM32F3xx_HAL_Driver/Src/stm32f3xx_hal_can.c ****                  if automatic wake up mode is enabled.
 128:Drivers/STM32F3xx_HAL_Driver/Src/stm32f3xx_hal_can.c **** 
 129:Drivers/STM32F3xx_HAL_Driver/Src/stm32f3xx_hal_can.c ****   @endverbatim
 130:Drivers/STM32F3xx_HAL_Driver/Src/stm32f3xx_hal_can.c ****   ******************************************************************************
 131:Drivers/STM32F3xx_HAL_Driver/Src/stm32f3xx_hal_can.c ****   * @attention
 132:Drivers/STM32F3xx_HAL_Driver/Src/stm32f3xx_hal_can.c ****   *
 133:Drivers/STM32F3xx_HAL_Driver/Src/stm32f3xx_hal_can.c ****   * <h2><center>&copy; COPYRIGHT(c) 2016 STMicroelectronics</center></h2>
 134:Drivers/STM32F3xx_HAL_Driver/Src/stm32f3xx_hal_can.c ****   *
 135:Drivers/STM32F3xx_HAL_Driver/Src/stm32f3xx_hal_can.c ****   * Redistribution and use in source and binary forms, with or without modification,
 136:Drivers/STM32F3xx_HAL_Driver/Src/stm32f3xx_hal_can.c ****   * are permitted provided that the following conditions are met:
 137:Drivers/STM32F3xx_HAL_Driver/Src/stm32f3xx_hal_can.c ****   *   1. Redistributions of source code must retain the above copyright notice,
 138:Drivers/STM32F3xx_HAL_Driver/Src/stm32f3xx_hal_can.c ****   *      this list of conditions and the following disclaimer.
 139:Drivers/STM32F3xx_HAL_Driver/Src/stm32f3xx_hal_can.c ****   *   2. Redistributions in binary form must reproduce the above copyright notice,
 140:Drivers/STM32F3xx_HAL_Driver/Src/stm32f3xx_hal_can.c ****   *      this list of conditions and the following disclaimer in the documentation
 141:Drivers/STM32F3xx_HAL_Driver/Src/stm32f3xx_hal_can.c ****   *      and/or other materials provided with the distribution.
 142:Drivers/STM32F3xx_HAL_Driver/Src/stm32f3xx_hal_can.c ****   *   3. Neither the name of STMicroelectronics nor the names of its contributors
 143:Drivers/STM32F3xx_HAL_Driver/Src/stm32f3xx_hal_can.c ****   *      may be used to endorse or promote products derived from this software
ARM GAS  /tmp/ccTH4Y0M.s 			page 4


 144:Drivers/STM32F3xx_HAL_Driver/Src/stm32f3xx_hal_can.c ****   *      without specific prior written permission.
 145:Drivers/STM32F3xx_HAL_Driver/Src/stm32f3xx_hal_can.c ****   *
 146:Drivers/STM32F3xx_HAL_Driver/Src/stm32f3xx_hal_can.c ****   * THIS SOFTWARE IS PROVIDED BY THE COPYRIGHT HOLDERS AND CONTRIBUTORS "AS IS"
 147:Drivers/STM32F3xx_HAL_Driver/Src/stm32f3xx_hal_can.c ****   * AND ANY EXPRESS OR IMPLIED WARRANTIES, INCLUDING, BUT NOT LIMITED TO, THE
 148:Drivers/STM32F3xx_HAL_Driver/Src/stm32f3xx_hal_can.c ****   * IMPLIED WARRANTIES OF MERCHANTABILITY AND FITNESS FOR A PARTICULAR PURPOSE ARE
 149:Drivers/STM32F3xx_HAL_Driver/Src/stm32f3xx_hal_can.c ****   * DISCLAIMED. IN NO EVENT SHALL THE COPYRIGHT HOLDER OR CONTRIBUTORS BE LIABLE
 150:Drivers/STM32F3xx_HAL_Driver/Src/stm32f3xx_hal_can.c ****   * FOR ANY DIRECT, INDIRECT, INCIDENTAL, SPECIAL, EXEMPLARY, OR CONSEQUENTIAL
 151:Drivers/STM32F3xx_HAL_Driver/Src/stm32f3xx_hal_can.c ****   * DAMAGES (INCLUDING, BUT NOT LIMITED TO, PROCUREMENT OF SUBSTITUTE GOODS OR
 152:Drivers/STM32F3xx_HAL_Driver/Src/stm32f3xx_hal_can.c ****   * SERVICES; LOSS OF USE, DATA, OR PROFITS; OR BUSINESS INTERRUPTION) HOWEVER
 153:Drivers/STM32F3xx_HAL_Driver/Src/stm32f3xx_hal_can.c ****   * CAUSED AND ON ANY THEORY OF LIABILITY, WHETHER IN CONTRACT, STRICT LIABILITY,
 154:Drivers/STM32F3xx_HAL_Driver/Src/stm32f3xx_hal_can.c ****   * OR TORT (INCLUDING NEGLIGENCE OR OTHERWISE) ARISING IN ANY WAY OUT OF THE USE
 155:Drivers/STM32F3xx_HAL_Driver/Src/stm32f3xx_hal_can.c ****   * OF THIS SOFTWARE, EVEN IF ADVISED OF THE POSSIBILITY OF SUCH DAMAGE.
 156:Drivers/STM32F3xx_HAL_Driver/Src/stm32f3xx_hal_can.c ****   *
 157:Drivers/STM32F3xx_HAL_Driver/Src/stm32f3xx_hal_can.c ****   ******************************************************************************
 158:Drivers/STM32F3xx_HAL_Driver/Src/stm32f3xx_hal_can.c ****   */
 159:Drivers/STM32F3xx_HAL_Driver/Src/stm32f3xx_hal_can.c **** 
 160:Drivers/STM32F3xx_HAL_Driver/Src/stm32f3xx_hal_can.c **** /* Includes ------------------------------------------------------------------*/
 161:Drivers/STM32F3xx_HAL_Driver/Src/stm32f3xx_hal_can.c **** #include "stm32f3xx_hal.h"
 162:Drivers/STM32F3xx_HAL_Driver/Src/stm32f3xx_hal_can.c **** 
 163:Drivers/STM32F3xx_HAL_Driver/Src/stm32f3xx_hal_can.c **** /** @addtogroup STM32F3xx_HAL_Driver
 164:Drivers/STM32F3xx_HAL_Driver/Src/stm32f3xx_hal_can.c ****   * @{
 165:Drivers/STM32F3xx_HAL_Driver/Src/stm32f3xx_hal_can.c ****   */
 166:Drivers/STM32F3xx_HAL_Driver/Src/stm32f3xx_hal_can.c **** 
 167:Drivers/STM32F3xx_HAL_Driver/Src/stm32f3xx_hal_can.c **** #if defined(CAN)
 168:Drivers/STM32F3xx_HAL_Driver/Src/stm32f3xx_hal_can.c **** 
 169:Drivers/STM32F3xx_HAL_Driver/Src/stm32f3xx_hal_can.c **** /** @defgroup CAN CAN
 170:Drivers/STM32F3xx_HAL_Driver/Src/stm32f3xx_hal_can.c ****   * @brief CAN driver modules
 171:Drivers/STM32F3xx_HAL_Driver/Src/stm32f3xx_hal_can.c ****   * @{
 172:Drivers/STM32F3xx_HAL_Driver/Src/stm32f3xx_hal_can.c ****   */
 173:Drivers/STM32F3xx_HAL_Driver/Src/stm32f3xx_hal_can.c **** 
 174:Drivers/STM32F3xx_HAL_Driver/Src/stm32f3xx_hal_can.c **** #ifdef HAL_CAN_MODULE_ENABLED
 175:Drivers/STM32F3xx_HAL_Driver/Src/stm32f3xx_hal_can.c **** 
 176:Drivers/STM32F3xx_HAL_Driver/Src/stm32f3xx_hal_can.c **** #ifdef HAL_CAN_LEGACY_MODULE_ENABLED
 177:Drivers/STM32F3xx_HAL_Driver/Src/stm32f3xx_hal_can.c ****   #error "The CAN driver cannot be used with its legacy, Please enable only one CAN module at once"
 178:Drivers/STM32F3xx_HAL_Driver/Src/stm32f3xx_hal_can.c **** #endif
 179:Drivers/STM32F3xx_HAL_Driver/Src/stm32f3xx_hal_can.c **** 
 180:Drivers/STM32F3xx_HAL_Driver/Src/stm32f3xx_hal_can.c **** /* Private typedef -----------------------------------------------------------*/
 181:Drivers/STM32F3xx_HAL_Driver/Src/stm32f3xx_hal_can.c **** /* Private define ------------------------------------------------------------*/
 182:Drivers/STM32F3xx_HAL_Driver/Src/stm32f3xx_hal_can.c **** /** @defgroup CAN_Private_Constants CAN Private Constants
 183:Drivers/STM32F3xx_HAL_Driver/Src/stm32f3xx_hal_can.c ****   * @{
 184:Drivers/STM32F3xx_HAL_Driver/Src/stm32f3xx_hal_can.c ****   */
 185:Drivers/STM32F3xx_HAL_Driver/Src/stm32f3xx_hal_can.c **** #define CAN_TIMEOUT_VALUE 10U
 186:Drivers/STM32F3xx_HAL_Driver/Src/stm32f3xx_hal_can.c **** /**
 187:Drivers/STM32F3xx_HAL_Driver/Src/stm32f3xx_hal_can.c ****   * @}
 188:Drivers/STM32F3xx_HAL_Driver/Src/stm32f3xx_hal_can.c ****   */
 189:Drivers/STM32F3xx_HAL_Driver/Src/stm32f3xx_hal_can.c **** /* Private macro -------------------------------------------------------------*/
 190:Drivers/STM32F3xx_HAL_Driver/Src/stm32f3xx_hal_can.c **** /* Private variables ---------------------------------------------------------*/
 191:Drivers/STM32F3xx_HAL_Driver/Src/stm32f3xx_hal_can.c **** /* Private function prototypes -----------------------------------------------*/
 192:Drivers/STM32F3xx_HAL_Driver/Src/stm32f3xx_hal_can.c **** /* Exported functions --------------------------------------------------------*/
 193:Drivers/STM32F3xx_HAL_Driver/Src/stm32f3xx_hal_can.c **** 
 194:Drivers/STM32F3xx_HAL_Driver/Src/stm32f3xx_hal_can.c **** /** @defgroup CAN_Exported_Functions CAN Exported Functions
 195:Drivers/STM32F3xx_HAL_Driver/Src/stm32f3xx_hal_can.c ****   * @{
 196:Drivers/STM32F3xx_HAL_Driver/Src/stm32f3xx_hal_can.c ****   */
 197:Drivers/STM32F3xx_HAL_Driver/Src/stm32f3xx_hal_can.c **** 
 198:Drivers/STM32F3xx_HAL_Driver/Src/stm32f3xx_hal_can.c **** /** @defgroup CAN_Exported_Functions_Group1 Initialization and de-initialization functions
 199:Drivers/STM32F3xx_HAL_Driver/Src/stm32f3xx_hal_can.c ****  *  @brief    Initialization and Configuration functions
 200:Drivers/STM32F3xx_HAL_Driver/Src/stm32f3xx_hal_can.c ****  *
ARM GAS  /tmp/ccTH4Y0M.s 			page 5


 201:Drivers/STM32F3xx_HAL_Driver/Src/stm32f3xx_hal_can.c **** @verbatim
 202:Drivers/STM32F3xx_HAL_Driver/Src/stm32f3xx_hal_can.c ****   ==============================================================================
 203:Drivers/STM32F3xx_HAL_Driver/Src/stm32f3xx_hal_can.c ****               ##### Initialization and de-initialization functions #####
 204:Drivers/STM32F3xx_HAL_Driver/Src/stm32f3xx_hal_can.c ****   ==============================================================================
 205:Drivers/STM32F3xx_HAL_Driver/Src/stm32f3xx_hal_can.c ****     [..]  This section provides functions allowing to:
 206:Drivers/STM32F3xx_HAL_Driver/Src/stm32f3xx_hal_can.c ****       (+) HAL_CAN_Init                       : Initialize and configure the CAN.
 207:Drivers/STM32F3xx_HAL_Driver/Src/stm32f3xx_hal_can.c ****       (+) HAL_CAN_DeInit                     : De-initialize the CAN.
 208:Drivers/STM32F3xx_HAL_Driver/Src/stm32f3xx_hal_can.c ****       (+) HAL_CAN_MspInit                    : Initialize the CAN MSP.
 209:Drivers/STM32F3xx_HAL_Driver/Src/stm32f3xx_hal_can.c ****       (+) HAL_CAN_MspDeInit                  : DeInitialize the CAN MSP.
 210:Drivers/STM32F3xx_HAL_Driver/Src/stm32f3xx_hal_can.c **** 
 211:Drivers/STM32F3xx_HAL_Driver/Src/stm32f3xx_hal_can.c **** @endverbatim
 212:Drivers/STM32F3xx_HAL_Driver/Src/stm32f3xx_hal_can.c ****   * @{
 213:Drivers/STM32F3xx_HAL_Driver/Src/stm32f3xx_hal_can.c ****   */
 214:Drivers/STM32F3xx_HAL_Driver/Src/stm32f3xx_hal_can.c **** 
 215:Drivers/STM32F3xx_HAL_Driver/Src/stm32f3xx_hal_can.c **** /**
 216:Drivers/STM32F3xx_HAL_Driver/Src/stm32f3xx_hal_can.c ****   * @brief  Initializes the CAN peripheral according to the specified
 217:Drivers/STM32F3xx_HAL_Driver/Src/stm32f3xx_hal_can.c ****   *         parameters in the CAN_InitStruct.
 218:Drivers/STM32F3xx_HAL_Driver/Src/stm32f3xx_hal_can.c ****   * @param  hcan pointer to a CAN_HandleTypeDef structure that contains
 219:Drivers/STM32F3xx_HAL_Driver/Src/stm32f3xx_hal_can.c ****   *         the configuration information for the specified CAN.
 220:Drivers/STM32F3xx_HAL_Driver/Src/stm32f3xx_hal_can.c ****   * @retval HAL status
 221:Drivers/STM32F3xx_HAL_Driver/Src/stm32f3xx_hal_can.c ****   */
 222:Drivers/STM32F3xx_HAL_Driver/Src/stm32f3xx_hal_can.c **** HAL_StatusTypeDef HAL_CAN_Init(CAN_HandleTypeDef *hcan)
 223:Drivers/STM32F3xx_HAL_Driver/Src/stm32f3xx_hal_can.c **** {
 224:Drivers/STM32F3xx_HAL_Driver/Src/stm32f3xx_hal_can.c ****   uint32_t tickstart;
 225:Drivers/STM32F3xx_HAL_Driver/Src/stm32f3xx_hal_can.c **** 
 226:Drivers/STM32F3xx_HAL_Driver/Src/stm32f3xx_hal_can.c ****   /* Check CAN handle */
 227:Drivers/STM32F3xx_HAL_Driver/Src/stm32f3xx_hal_can.c ****   if (hcan == NULL)
 228:Drivers/STM32F3xx_HAL_Driver/Src/stm32f3xx_hal_can.c ****   {
 229:Drivers/STM32F3xx_HAL_Driver/Src/stm32f3xx_hal_can.c ****     return HAL_ERROR;
 230:Drivers/STM32F3xx_HAL_Driver/Src/stm32f3xx_hal_can.c ****   }
 231:Drivers/STM32F3xx_HAL_Driver/Src/stm32f3xx_hal_can.c **** 
 232:Drivers/STM32F3xx_HAL_Driver/Src/stm32f3xx_hal_can.c ****   /* Check the parameters */
 233:Drivers/STM32F3xx_HAL_Driver/Src/stm32f3xx_hal_can.c ****   assert_param(IS_CAN_ALL_INSTANCE(hcan->Instance));
 234:Drivers/STM32F3xx_HAL_Driver/Src/stm32f3xx_hal_can.c ****   assert_param(IS_FUNCTIONAL_STATE(hcan->Init.TimeTriggeredMode));
 235:Drivers/STM32F3xx_HAL_Driver/Src/stm32f3xx_hal_can.c ****   assert_param(IS_FUNCTIONAL_STATE(hcan->Init.AutoBusOff));
 236:Drivers/STM32F3xx_HAL_Driver/Src/stm32f3xx_hal_can.c ****   assert_param(IS_FUNCTIONAL_STATE(hcan->Init.AutoWakeUp));
 237:Drivers/STM32F3xx_HAL_Driver/Src/stm32f3xx_hal_can.c ****   assert_param(IS_FUNCTIONAL_STATE(hcan->Init.AutoRetransmission));
 238:Drivers/STM32F3xx_HAL_Driver/Src/stm32f3xx_hal_can.c ****   assert_param(IS_FUNCTIONAL_STATE(hcan->Init.ReceiveFifoLocked));
 239:Drivers/STM32F3xx_HAL_Driver/Src/stm32f3xx_hal_can.c ****   assert_param(IS_FUNCTIONAL_STATE(hcan->Init.TransmitFifoPriority));
 240:Drivers/STM32F3xx_HAL_Driver/Src/stm32f3xx_hal_can.c ****   assert_param(IS_CAN_MODE(hcan->Init.Mode));
 241:Drivers/STM32F3xx_HAL_Driver/Src/stm32f3xx_hal_can.c ****   assert_param(IS_CAN_SJW(hcan->Init.SyncJumpWidth));
 242:Drivers/STM32F3xx_HAL_Driver/Src/stm32f3xx_hal_can.c ****   assert_param(IS_CAN_BS1(hcan->Init.TimeSeg1));
 243:Drivers/STM32F3xx_HAL_Driver/Src/stm32f3xx_hal_can.c ****   assert_param(IS_CAN_BS2(hcan->Init.TimeSeg2));
 244:Drivers/STM32F3xx_HAL_Driver/Src/stm32f3xx_hal_can.c ****   assert_param(IS_CAN_PRESCALER(hcan->Init.Prescaler));
 245:Drivers/STM32F3xx_HAL_Driver/Src/stm32f3xx_hal_can.c **** 
 246:Drivers/STM32F3xx_HAL_Driver/Src/stm32f3xx_hal_can.c ****   if (hcan->State == HAL_CAN_STATE_RESET)
 247:Drivers/STM32F3xx_HAL_Driver/Src/stm32f3xx_hal_can.c ****   {
 248:Drivers/STM32F3xx_HAL_Driver/Src/stm32f3xx_hal_can.c ****     /* Init the low level hardware: CLOCK, NVIC */
 249:Drivers/STM32F3xx_HAL_Driver/Src/stm32f3xx_hal_can.c ****     HAL_CAN_MspInit(hcan);
 250:Drivers/STM32F3xx_HAL_Driver/Src/stm32f3xx_hal_can.c ****   }
 251:Drivers/STM32F3xx_HAL_Driver/Src/stm32f3xx_hal_can.c **** 
 252:Drivers/STM32F3xx_HAL_Driver/Src/stm32f3xx_hal_can.c ****   /* Exit from sleep mode */
 253:Drivers/STM32F3xx_HAL_Driver/Src/stm32f3xx_hal_can.c ****   CLEAR_BIT(hcan->Instance->MCR, CAN_MCR_SLEEP);
 254:Drivers/STM32F3xx_HAL_Driver/Src/stm32f3xx_hal_can.c **** 
 255:Drivers/STM32F3xx_HAL_Driver/Src/stm32f3xx_hal_can.c ****   /* Get tick */
 256:Drivers/STM32F3xx_HAL_Driver/Src/stm32f3xx_hal_can.c ****   tickstart = HAL_GetTick();
 257:Drivers/STM32F3xx_HAL_Driver/Src/stm32f3xx_hal_can.c **** 
ARM GAS  /tmp/ccTH4Y0M.s 			page 6


 258:Drivers/STM32F3xx_HAL_Driver/Src/stm32f3xx_hal_can.c ****   /* Check Sleep mode leave acknowledge */
 259:Drivers/STM32F3xx_HAL_Driver/Src/stm32f3xx_hal_can.c ****   while ((hcan->Instance->MSR & CAN_MSR_SLAK) != 0U)
 260:Drivers/STM32F3xx_HAL_Driver/Src/stm32f3xx_hal_can.c ****   {
 261:Drivers/STM32F3xx_HAL_Driver/Src/stm32f3xx_hal_can.c ****     if ((HAL_GetTick() - tickstart) > CAN_TIMEOUT_VALUE)
 262:Drivers/STM32F3xx_HAL_Driver/Src/stm32f3xx_hal_can.c ****     {
 263:Drivers/STM32F3xx_HAL_Driver/Src/stm32f3xx_hal_can.c ****       /* Update error code */
 264:Drivers/STM32F3xx_HAL_Driver/Src/stm32f3xx_hal_can.c ****       hcan->ErrorCode |= HAL_CAN_ERROR_TIMEOUT;
 265:Drivers/STM32F3xx_HAL_Driver/Src/stm32f3xx_hal_can.c **** 
 266:Drivers/STM32F3xx_HAL_Driver/Src/stm32f3xx_hal_can.c ****       /* Change CAN state */
 267:Drivers/STM32F3xx_HAL_Driver/Src/stm32f3xx_hal_can.c ****       hcan->State = HAL_CAN_STATE_ERROR;
 268:Drivers/STM32F3xx_HAL_Driver/Src/stm32f3xx_hal_can.c **** 
 269:Drivers/STM32F3xx_HAL_Driver/Src/stm32f3xx_hal_can.c ****       return HAL_ERROR;
 270:Drivers/STM32F3xx_HAL_Driver/Src/stm32f3xx_hal_can.c ****     }
 271:Drivers/STM32F3xx_HAL_Driver/Src/stm32f3xx_hal_can.c ****   }
 272:Drivers/STM32F3xx_HAL_Driver/Src/stm32f3xx_hal_can.c **** 
 273:Drivers/STM32F3xx_HAL_Driver/Src/stm32f3xx_hal_can.c ****   /* Request initialisation */
 274:Drivers/STM32F3xx_HAL_Driver/Src/stm32f3xx_hal_can.c ****   SET_BIT(hcan->Instance->MCR, CAN_MCR_INRQ);
 275:Drivers/STM32F3xx_HAL_Driver/Src/stm32f3xx_hal_can.c **** 
 276:Drivers/STM32F3xx_HAL_Driver/Src/stm32f3xx_hal_can.c ****   /* Get tick */
 277:Drivers/STM32F3xx_HAL_Driver/Src/stm32f3xx_hal_can.c ****   tickstart = HAL_GetTick();
 278:Drivers/STM32F3xx_HAL_Driver/Src/stm32f3xx_hal_can.c **** 
 279:Drivers/STM32F3xx_HAL_Driver/Src/stm32f3xx_hal_can.c ****   /* Wait initialisation acknowledge */
 280:Drivers/STM32F3xx_HAL_Driver/Src/stm32f3xx_hal_can.c ****   while ((hcan->Instance->MSR & CAN_MSR_INAK) == 0U)
 281:Drivers/STM32F3xx_HAL_Driver/Src/stm32f3xx_hal_can.c ****   {
 282:Drivers/STM32F3xx_HAL_Driver/Src/stm32f3xx_hal_can.c ****     if ((HAL_GetTick() - tickstart) > CAN_TIMEOUT_VALUE)
 283:Drivers/STM32F3xx_HAL_Driver/Src/stm32f3xx_hal_can.c ****     {
 284:Drivers/STM32F3xx_HAL_Driver/Src/stm32f3xx_hal_can.c ****       /* Update error code */
 285:Drivers/STM32F3xx_HAL_Driver/Src/stm32f3xx_hal_can.c ****       hcan->ErrorCode |= HAL_CAN_ERROR_TIMEOUT;
 286:Drivers/STM32F3xx_HAL_Driver/Src/stm32f3xx_hal_can.c **** 
 287:Drivers/STM32F3xx_HAL_Driver/Src/stm32f3xx_hal_can.c ****       /* Change CAN state */
 288:Drivers/STM32F3xx_HAL_Driver/Src/stm32f3xx_hal_can.c ****       hcan->State = HAL_CAN_STATE_ERROR;
 289:Drivers/STM32F3xx_HAL_Driver/Src/stm32f3xx_hal_can.c **** 
 290:Drivers/STM32F3xx_HAL_Driver/Src/stm32f3xx_hal_can.c ****       return HAL_ERROR;
 291:Drivers/STM32F3xx_HAL_Driver/Src/stm32f3xx_hal_can.c ****     }
 292:Drivers/STM32F3xx_HAL_Driver/Src/stm32f3xx_hal_can.c ****   }
 293:Drivers/STM32F3xx_HAL_Driver/Src/stm32f3xx_hal_can.c **** 
 294:Drivers/STM32F3xx_HAL_Driver/Src/stm32f3xx_hal_can.c ****   /* Set the time triggered communication mode */
 295:Drivers/STM32F3xx_HAL_Driver/Src/stm32f3xx_hal_can.c ****   if (hcan->Init.TimeTriggeredMode == ENABLE)
 296:Drivers/STM32F3xx_HAL_Driver/Src/stm32f3xx_hal_can.c ****   {
 297:Drivers/STM32F3xx_HAL_Driver/Src/stm32f3xx_hal_can.c ****     SET_BIT(hcan->Instance->MCR, CAN_MCR_TTCM);
 298:Drivers/STM32F3xx_HAL_Driver/Src/stm32f3xx_hal_can.c ****   }
 299:Drivers/STM32F3xx_HAL_Driver/Src/stm32f3xx_hal_can.c ****   else
 300:Drivers/STM32F3xx_HAL_Driver/Src/stm32f3xx_hal_can.c ****   {
 301:Drivers/STM32F3xx_HAL_Driver/Src/stm32f3xx_hal_can.c ****     CLEAR_BIT(hcan->Instance->MCR, CAN_MCR_TTCM);
 302:Drivers/STM32F3xx_HAL_Driver/Src/stm32f3xx_hal_can.c ****   }
 303:Drivers/STM32F3xx_HAL_Driver/Src/stm32f3xx_hal_can.c **** 
 304:Drivers/STM32F3xx_HAL_Driver/Src/stm32f3xx_hal_can.c ****   /* Set the automatic bus-off management */
 305:Drivers/STM32F3xx_HAL_Driver/Src/stm32f3xx_hal_can.c ****   if (hcan->Init.AutoBusOff == ENABLE)
 306:Drivers/STM32F3xx_HAL_Driver/Src/stm32f3xx_hal_can.c ****   {
 307:Drivers/STM32F3xx_HAL_Driver/Src/stm32f3xx_hal_can.c ****     SET_BIT(hcan->Instance->MCR, CAN_MCR_ABOM);
 308:Drivers/STM32F3xx_HAL_Driver/Src/stm32f3xx_hal_can.c ****   }
 309:Drivers/STM32F3xx_HAL_Driver/Src/stm32f3xx_hal_can.c ****   else
 310:Drivers/STM32F3xx_HAL_Driver/Src/stm32f3xx_hal_can.c ****   {
 311:Drivers/STM32F3xx_HAL_Driver/Src/stm32f3xx_hal_can.c ****     CLEAR_BIT(hcan->Instance->MCR, CAN_MCR_ABOM);
 312:Drivers/STM32F3xx_HAL_Driver/Src/stm32f3xx_hal_can.c ****   }
 313:Drivers/STM32F3xx_HAL_Driver/Src/stm32f3xx_hal_can.c **** 
 314:Drivers/STM32F3xx_HAL_Driver/Src/stm32f3xx_hal_can.c ****   /* Set the automatic wake-up mode */
ARM GAS  /tmp/ccTH4Y0M.s 			page 7


 315:Drivers/STM32F3xx_HAL_Driver/Src/stm32f3xx_hal_can.c ****   if (hcan->Init.AutoWakeUp == ENABLE)
 316:Drivers/STM32F3xx_HAL_Driver/Src/stm32f3xx_hal_can.c ****   {
 317:Drivers/STM32F3xx_HAL_Driver/Src/stm32f3xx_hal_can.c ****     SET_BIT(hcan->Instance->MCR, CAN_MCR_AWUM);
 318:Drivers/STM32F3xx_HAL_Driver/Src/stm32f3xx_hal_can.c ****   }
 319:Drivers/STM32F3xx_HAL_Driver/Src/stm32f3xx_hal_can.c ****   else
 320:Drivers/STM32F3xx_HAL_Driver/Src/stm32f3xx_hal_can.c ****   {
 321:Drivers/STM32F3xx_HAL_Driver/Src/stm32f3xx_hal_can.c ****     CLEAR_BIT(hcan->Instance->MCR, CAN_MCR_AWUM);
 322:Drivers/STM32F3xx_HAL_Driver/Src/stm32f3xx_hal_can.c ****   }
 323:Drivers/STM32F3xx_HAL_Driver/Src/stm32f3xx_hal_can.c **** 
 324:Drivers/STM32F3xx_HAL_Driver/Src/stm32f3xx_hal_can.c ****   /* Set the automatic retransmission */
 325:Drivers/STM32F3xx_HAL_Driver/Src/stm32f3xx_hal_can.c ****   if (hcan->Init.AutoRetransmission == ENABLE)
 326:Drivers/STM32F3xx_HAL_Driver/Src/stm32f3xx_hal_can.c ****   {
 327:Drivers/STM32F3xx_HAL_Driver/Src/stm32f3xx_hal_can.c ****     CLEAR_BIT(hcan->Instance->MCR, CAN_MCR_NART);
 328:Drivers/STM32F3xx_HAL_Driver/Src/stm32f3xx_hal_can.c ****   }
 329:Drivers/STM32F3xx_HAL_Driver/Src/stm32f3xx_hal_can.c ****   else
 330:Drivers/STM32F3xx_HAL_Driver/Src/stm32f3xx_hal_can.c ****   {
 331:Drivers/STM32F3xx_HAL_Driver/Src/stm32f3xx_hal_can.c ****     SET_BIT(hcan->Instance->MCR, CAN_MCR_NART);
 332:Drivers/STM32F3xx_HAL_Driver/Src/stm32f3xx_hal_can.c ****   }
 333:Drivers/STM32F3xx_HAL_Driver/Src/stm32f3xx_hal_can.c **** 
 334:Drivers/STM32F3xx_HAL_Driver/Src/stm32f3xx_hal_can.c ****   /* Set the receive FIFO locked mode */
 335:Drivers/STM32F3xx_HAL_Driver/Src/stm32f3xx_hal_can.c ****   if (hcan->Init.ReceiveFifoLocked == ENABLE)
 336:Drivers/STM32F3xx_HAL_Driver/Src/stm32f3xx_hal_can.c ****   {
 337:Drivers/STM32F3xx_HAL_Driver/Src/stm32f3xx_hal_can.c ****     SET_BIT(hcan->Instance->MCR, CAN_MCR_RFLM);
 338:Drivers/STM32F3xx_HAL_Driver/Src/stm32f3xx_hal_can.c ****   }
 339:Drivers/STM32F3xx_HAL_Driver/Src/stm32f3xx_hal_can.c ****   else
 340:Drivers/STM32F3xx_HAL_Driver/Src/stm32f3xx_hal_can.c ****   {
 341:Drivers/STM32F3xx_HAL_Driver/Src/stm32f3xx_hal_can.c ****     CLEAR_BIT(hcan->Instance->MCR, CAN_MCR_RFLM);
 342:Drivers/STM32F3xx_HAL_Driver/Src/stm32f3xx_hal_can.c ****   }
 343:Drivers/STM32F3xx_HAL_Driver/Src/stm32f3xx_hal_can.c **** 
 344:Drivers/STM32F3xx_HAL_Driver/Src/stm32f3xx_hal_can.c ****   /* Set the transmit FIFO priority */
 345:Drivers/STM32F3xx_HAL_Driver/Src/stm32f3xx_hal_can.c ****   if (hcan->Init.TransmitFifoPriority == ENABLE)
 346:Drivers/STM32F3xx_HAL_Driver/Src/stm32f3xx_hal_can.c ****   {
 347:Drivers/STM32F3xx_HAL_Driver/Src/stm32f3xx_hal_can.c ****     SET_BIT(hcan->Instance->MCR, CAN_MCR_TXFP);
 348:Drivers/STM32F3xx_HAL_Driver/Src/stm32f3xx_hal_can.c ****   }
 349:Drivers/STM32F3xx_HAL_Driver/Src/stm32f3xx_hal_can.c ****   else
 350:Drivers/STM32F3xx_HAL_Driver/Src/stm32f3xx_hal_can.c ****   {
 351:Drivers/STM32F3xx_HAL_Driver/Src/stm32f3xx_hal_can.c ****     CLEAR_BIT(hcan->Instance->MCR, CAN_MCR_TXFP);
 352:Drivers/STM32F3xx_HAL_Driver/Src/stm32f3xx_hal_can.c ****   }
 353:Drivers/STM32F3xx_HAL_Driver/Src/stm32f3xx_hal_can.c **** 
 354:Drivers/STM32F3xx_HAL_Driver/Src/stm32f3xx_hal_can.c ****   /* Set the bit timing register */
 355:Drivers/STM32F3xx_HAL_Driver/Src/stm32f3xx_hal_can.c ****   WRITE_REG(hcan->Instance->BTR, (uint32_t)(hcan->Init.Mode           |
 356:Drivers/STM32F3xx_HAL_Driver/Src/stm32f3xx_hal_can.c ****                                             hcan->Init.SyncJumpWidth  |
 357:Drivers/STM32F3xx_HAL_Driver/Src/stm32f3xx_hal_can.c ****                                             hcan->Init.TimeSeg1       |
 358:Drivers/STM32F3xx_HAL_Driver/Src/stm32f3xx_hal_can.c ****                                             hcan->Init.TimeSeg2       |
 359:Drivers/STM32F3xx_HAL_Driver/Src/stm32f3xx_hal_can.c ****                                             (hcan->Init.Prescaler - 1U)));
 360:Drivers/STM32F3xx_HAL_Driver/Src/stm32f3xx_hal_can.c **** 
 361:Drivers/STM32F3xx_HAL_Driver/Src/stm32f3xx_hal_can.c ****   /* Initialize the error code */
 362:Drivers/STM32F3xx_HAL_Driver/Src/stm32f3xx_hal_can.c ****   hcan->ErrorCode = HAL_CAN_ERROR_NONE;
 363:Drivers/STM32F3xx_HAL_Driver/Src/stm32f3xx_hal_can.c **** 
 364:Drivers/STM32F3xx_HAL_Driver/Src/stm32f3xx_hal_can.c ****   /* Initialize the CAN state */
 365:Drivers/STM32F3xx_HAL_Driver/Src/stm32f3xx_hal_can.c ****   hcan->State = HAL_CAN_STATE_READY;
 366:Drivers/STM32F3xx_HAL_Driver/Src/stm32f3xx_hal_can.c **** 
 367:Drivers/STM32F3xx_HAL_Driver/Src/stm32f3xx_hal_can.c ****   /* Return function status */
 368:Drivers/STM32F3xx_HAL_Driver/Src/stm32f3xx_hal_can.c ****   return HAL_OK;
 369:Drivers/STM32F3xx_HAL_Driver/Src/stm32f3xx_hal_can.c **** }
 370:Drivers/STM32F3xx_HAL_Driver/Src/stm32f3xx_hal_can.c **** 
 371:Drivers/STM32F3xx_HAL_Driver/Src/stm32f3xx_hal_can.c **** /**
ARM GAS  /tmp/ccTH4Y0M.s 			page 8


 372:Drivers/STM32F3xx_HAL_Driver/Src/stm32f3xx_hal_can.c ****   * @brief  Deinitializes the CAN peripheral registers to their default
 373:Drivers/STM32F3xx_HAL_Driver/Src/stm32f3xx_hal_can.c ****   *         reset values.
 374:Drivers/STM32F3xx_HAL_Driver/Src/stm32f3xx_hal_can.c ****   * @param  hcan pointer to a CAN_HandleTypeDef structure that contains
 375:Drivers/STM32F3xx_HAL_Driver/Src/stm32f3xx_hal_can.c ****   *         the configuration information for the specified CAN.
 376:Drivers/STM32F3xx_HAL_Driver/Src/stm32f3xx_hal_can.c ****   * @retval HAL status
 377:Drivers/STM32F3xx_HAL_Driver/Src/stm32f3xx_hal_can.c ****   */
 378:Drivers/STM32F3xx_HAL_Driver/Src/stm32f3xx_hal_can.c **** HAL_StatusTypeDef HAL_CAN_DeInit(CAN_HandleTypeDef *hcan)
 379:Drivers/STM32F3xx_HAL_Driver/Src/stm32f3xx_hal_can.c **** {
 380:Drivers/STM32F3xx_HAL_Driver/Src/stm32f3xx_hal_can.c ****   /* Check CAN handle */
 381:Drivers/STM32F3xx_HAL_Driver/Src/stm32f3xx_hal_can.c ****   if (hcan == NULL)
 382:Drivers/STM32F3xx_HAL_Driver/Src/stm32f3xx_hal_can.c ****   {
 383:Drivers/STM32F3xx_HAL_Driver/Src/stm32f3xx_hal_can.c ****     return HAL_ERROR;
 384:Drivers/STM32F3xx_HAL_Driver/Src/stm32f3xx_hal_can.c ****   }
 385:Drivers/STM32F3xx_HAL_Driver/Src/stm32f3xx_hal_can.c **** 
 386:Drivers/STM32F3xx_HAL_Driver/Src/stm32f3xx_hal_can.c ****   /* Check the parameters */
 387:Drivers/STM32F3xx_HAL_Driver/Src/stm32f3xx_hal_can.c ****   assert_param(IS_CAN_ALL_INSTANCE(hcan->Instance));
 388:Drivers/STM32F3xx_HAL_Driver/Src/stm32f3xx_hal_can.c **** 
 389:Drivers/STM32F3xx_HAL_Driver/Src/stm32f3xx_hal_can.c ****   /* Stop the CAN module */
 390:Drivers/STM32F3xx_HAL_Driver/Src/stm32f3xx_hal_can.c ****   (void)HAL_CAN_Stop(hcan);
 391:Drivers/STM32F3xx_HAL_Driver/Src/stm32f3xx_hal_can.c **** 
 392:Drivers/STM32F3xx_HAL_Driver/Src/stm32f3xx_hal_can.c ****   /* DeInit the low level hardware: CLOCK, NVIC */
 393:Drivers/STM32F3xx_HAL_Driver/Src/stm32f3xx_hal_can.c ****   HAL_CAN_MspDeInit(hcan);
 394:Drivers/STM32F3xx_HAL_Driver/Src/stm32f3xx_hal_can.c **** 
 395:Drivers/STM32F3xx_HAL_Driver/Src/stm32f3xx_hal_can.c ****   /* Reset the CAN peripheral */
 396:Drivers/STM32F3xx_HAL_Driver/Src/stm32f3xx_hal_can.c ****   SET_BIT(hcan->Instance->MCR, CAN_MCR_RESET);
 397:Drivers/STM32F3xx_HAL_Driver/Src/stm32f3xx_hal_can.c **** 
 398:Drivers/STM32F3xx_HAL_Driver/Src/stm32f3xx_hal_can.c ****   /* Reset the CAN ErrorCode */
 399:Drivers/STM32F3xx_HAL_Driver/Src/stm32f3xx_hal_can.c ****   hcan->ErrorCode = HAL_CAN_ERROR_NONE;
 400:Drivers/STM32F3xx_HAL_Driver/Src/stm32f3xx_hal_can.c **** 
 401:Drivers/STM32F3xx_HAL_Driver/Src/stm32f3xx_hal_can.c ****   /* Change CAN state */
 402:Drivers/STM32F3xx_HAL_Driver/Src/stm32f3xx_hal_can.c ****   hcan->State = HAL_CAN_STATE_RESET;
 403:Drivers/STM32F3xx_HAL_Driver/Src/stm32f3xx_hal_can.c **** 
 404:Drivers/STM32F3xx_HAL_Driver/Src/stm32f3xx_hal_can.c ****   /* Return function status */
 405:Drivers/STM32F3xx_HAL_Driver/Src/stm32f3xx_hal_can.c ****   return HAL_OK;
 406:Drivers/STM32F3xx_HAL_Driver/Src/stm32f3xx_hal_can.c **** }
 407:Drivers/STM32F3xx_HAL_Driver/Src/stm32f3xx_hal_can.c **** 
 408:Drivers/STM32F3xx_HAL_Driver/Src/stm32f3xx_hal_can.c **** /**
 409:Drivers/STM32F3xx_HAL_Driver/Src/stm32f3xx_hal_can.c ****   * @brief  Initializes the CAN MSP.
 410:Drivers/STM32F3xx_HAL_Driver/Src/stm32f3xx_hal_can.c ****   * @param  hcan pointer to a CAN_HandleTypeDef structure that contains
 411:Drivers/STM32F3xx_HAL_Driver/Src/stm32f3xx_hal_can.c ****   *         the configuration information for the specified CAN.
 412:Drivers/STM32F3xx_HAL_Driver/Src/stm32f3xx_hal_can.c ****   * @retval None
 413:Drivers/STM32F3xx_HAL_Driver/Src/stm32f3xx_hal_can.c ****   */
 414:Drivers/STM32F3xx_HAL_Driver/Src/stm32f3xx_hal_can.c **** __weak void HAL_CAN_MspInit(CAN_HandleTypeDef *hcan)
 415:Drivers/STM32F3xx_HAL_Driver/Src/stm32f3xx_hal_can.c **** {
  30              		.loc 1 415 1 view -0
  31              		.cfi_startproc
  32              		@ args = 0, pretend = 0, frame = 0
  33              		@ frame_needed = 0, uses_anonymous_args = 0
  34              		@ link register save eliminated.
 416:Drivers/STM32F3xx_HAL_Driver/Src/stm32f3xx_hal_can.c ****   /* Prevent unused argument(s) compilation warning */
 417:Drivers/STM32F3xx_HAL_Driver/Src/stm32f3xx_hal_can.c ****   UNUSED(hcan);
  35              		.loc 1 417 3 view .LVU1
 418:Drivers/STM32F3xx_HAL_Driver/Src/stm32f3xx_hal_can.c **** 
 419:Drivers/STM32F3xx_HAL_Driver/Src/stm32f3xx_hal_can.c ****   /* NOTE : This function Should not be modified, when the callback is needed,
 420:Drivers/STM32F3xx_HAL_Driver/Src/stm32f3xx_hal_can.c ****             the HAL_CAN_MspInit could be implemented in the user file
 421:Drivers/STM32F3xx_HAL_Driver/Src/stm32f3xx_hal_can.c ****    */
 422:Drivers/STM32F3xx_HAL_Driver/Src/stm32f3xx_hal_can.c **** }
ARM GAS  /tmp/ccTH4Y0M.s 			page 9


  36              		.loc 1 422 1 is_stmt 0 view .LVU2
  37 0000 7047     		bx	lr
  38              		.cfi_endproc
  39              	.LFE128:
  41              		.section	.text.HAL_CAN_Init,"ax",%progbits
  42              		.align	1
  43              		.global	HAL_CAN_Init
  44              		.syntax unified
  45              		.thumb
  46              		.thumb_func
  47              		.fpu fpv4-sp-d16
  49              	HAL_CAN_Init:
  50              	.LVL1:
  51              	.LFB126:
 223:Drivers/STM32F3xx_HAL_Driver/Src/stm32f3xx_hal_can.c ****   uint32_t tickstart;
  52              		.loc 1 223 1 is_stmt 1 view -0
  53              		.cfi_startproc
  54              		@ args = 0, pretend = 0, frame = 0
  55              		@ frame_needed = 0, uses_anonymous_args = 0
 224:Drivers/STM32F3xx_HAL_Driver/Src/stm32f3xx_hal_can.c **** 
  56              		.loc 1 224 3 view .LVU4
 227:Drivers/STM32F3xx_HAL_Driver/Src/stm32f3xx_hal_can.c ****   {
  57              		.loc 1 227 3 view .LVU5
 227:Drivers/STM32F3xx_HAL_Driver/Src/stm32f3xx_hal_can.c ****   {
  58              		.loc 1 227 6 is_stmt 0 view .LVU6
  59 0000 0028     		cmp	r0, #0
  60 0002 00F0A180 		beq	.L21
 223:Drivers/STM32F3xx_HAL_Driver/Src/stm32f3xx_hal_can.c ****   uint32_t tickstart;
  61              		.loc 1 223 1 view .LVU7
  62 0006 38B5     		push	{r3, r4, r5, lr}
  63              	.LCFI0:
  64              		.cfi_def_cfa_offset 16
  65              		.cfi_offset 3, -16
  66              		.cfi_offset 4, -12
  67              		.cfi_offset 5, -8
  68              		.cfi_offset 14, -4
  69 0008 0446     		mov	r4, r0
 233:Drivers/STM32F3xx_HAL_Driver/Src/stm32f3xx_hal_can.c ****   assert_param(IS_FUNCTIONAL_STATE(hcan->Init.TimeTriggeredMode));
  70              		.loc 1 233 3 is_stmt 1 view .LVU8
 234:Drivers/STM32F3xx_HAL_Driver/Src/stm32f3xx_hal_can.c ****   assert_param(IS_FUNCTIONAL_STATE(hcan->Init.AutoBusOff));
  71              		.loc 1 234 3 view .LVU9
 235:Drivers/STM32F3xx_HAL_Driver/Src/stm32f3xx_hal_can.c ****   assert_param(IS_FUNCTIONAL_STATE(hcan->Init.AutoWakeUp));
  72              		.loc 1 235 3 view .LVU10
 236:Drivers/STM32F3xx_HAL_Driver/Src/stm32f3xx_hal_can.c ****   assert_param(IS_FUNCTIONAL_STATE(hcan->Init.AutoRetransmission));
  73              		.loc 1 236 3 view .LVU11
 237:Drivers/STM32F3xx_HAL_Driver/Src/stm32f3xx_hal_can.c ****   assert_param(IS_FUNCTIONAL_STATE(hcan->Init.ReceiveFifoLocked));
  74              		.loc 1 237 3 view .LVU12
 238:Drivers/STM32F3xx_HAL_Driver/Src/stm32f3xx_hal_can.c ****   assert_param(IS_FUNCTIONAL_STATE(hcan->Init.TransmitFifoPriority));
  75              		.loc 1 238 3 view .LVU13
 239:Drivers/STM32F3xx_HAL_Driver/Src/stm32f3xx_hal_can.c ****   assert_param(IS_CAN_MODE(hcan->Init.Mode));
  76              		.loc 1 239 3 view .LVU14
 240:Drivers/STM32F3xx_HAL_Driver/Src/stm32f3xx_hal_can.c ****   assert_param(IS_CAN_SJW(hcan->Init.SyncJumpWidth));
  77              		.loc 1 240 3 view .LVU15
 241:Drivers/STM32F3xx_HAL_Driver/Src/stm32f3xx_hal_can.c ****   assert_param(IS_CAN_BS1(hcan->Init.TimeSeg1));
  78              		.loc 1 241 3 view .LVU16
 242:Drivers/STM32F3xx_HAL_Driver/Src/stm32f3xx_hal_can.c ****   assert_param(IS_CAN_BS2(hcan->Init.TimeSeg2));
  79              		.loc 1 242 3 view .LVU17
ARM GAS  /tmp/ccTH4Y0M.s 			page 10


 243:Drivers/STM32F3xx_HAL_Driver/Src/stm32f3xx_hal_can.c ****   assert_param(IS_CAN_PRESCALER(hcan->Init.Prescaler));
  80              		.loc 1 243 3 view .LVU18
 244:Drivers/STM32F3xx_HAL_Driver/Src/stm32f3xx_hal_can.c **** 
  81              		.loc 1 244 3 view .LVU19
 246:Drivers/STM32F3xx_HAL_Driver/Src/stm32f3xx_hal_can.c ****   {
  82              		.loc 1 246 3 view .LVU20
 246:Drivers/STM32F3xx_HAL_Driver/Src/stm32f3xx_hal_can.c ****   {
  83              		.loc 1 246 11 is_stmt 0 view .LVU21
  84 000a 90F82030 		ldrb	r3, [r0, #32]	@ zero_extendqisi2
 246:Drivers/STM32F3xx_HAL_Driver/Src/stm32f3xx_hal_can.c ****   {
  85              		.loc 1 246 6 view .LVU22
  86 000e D3B1     		cbz	r3, .L26
  87              	.LVL2:
  88              	.L4:
 253:Drivers/STM32F3xx_HAL_Driver/Src/stm32f3xx_hal_can.c **** 
  89              		.loc 1 253 3 is_stmt 1 view .LVU23
  90 0010 2268     		ldr	r2, [r4]
  91 0012 1368     		ldr	r3, [r2]
  92 0014 23F00203 		bic	r3, r3, #2
  93 0018 1360     		str	r3, [r2]
 256:Drivers/STM32F3xx_HAL_Driver/Src/stm32f3xx_hal_can.c **** 
  94              		.loc 1 256 3 view .LVU24
 256:Drivers/STM32F3xx_HAL_Driver/Src/stm32f3xx_hal_can.c **** 
  95              		.loc 1 256 15 is_stmt 0 view .LVU25
  96 001a FFF7FEFF 		bl	HAL_GetTick
  97              	.LVL3:
  98 001e 0546     		mov	r5, r0
  99              	.LVL4:
 259:Drivers/STM32F3xx_HAL_Driver/Src/stm32f3xx_hal_can.c ****   {
 100              		.loc 1 259 3 is_stmt 1 view .LVU26
 101              	.L5:
 259:Drivers/STM32F3xx_HAL_Driver/Src/stm32f3xx_hal_can.c ****   {
 102              		.loc 1 259 15 is_stmt 0 view .LVU27
 103 0020 2368     		ldr	r3, [r4]
 259:Drivers/STM32F3xx_HAL_Driver/Src/stm32f3xx_hal_can.c ****   {
 104              		.loc 1 259 25 view .LVU28
 105 0022 5A68     		ldr	r2, [r3, #4]
 259:Drivers/STM32F3xx_HAL_Driver/Src/stm32f3xx_hal_can.c ****   {
 106              		.loc 1 259 9 view .LVU29
 107 0024 12F0020F 		tst	r2, #2
 108 0028 10D0     		beq	.L27
 261:Drivers/STM32F3xx_HAL_Driver/Src/stm32f3xx_hal_can.c ****     {
 109              		.loc 1 261 5 is_stmt 1 view .LVU30
 261:Drivers/STM32F3xx_HAL_Driver/Src/stm32f3xx_hal_can.c ****     {
 110              		.loc 1 261 10 is_stmt 0 view .LVU31
 111 002a FFF7FEFF 		bl	HAL_GetTick
 112              	.LVL5:
 261:Drivers/STM32F3xx_HAL_Driver/Src/stm32f3xx_hal_can.c ****     {
 113              		.loc 1 261 24 view .LVU32
 114 002e 401B     		subs	r0, r0, r5
 261:Drivers/STM32F3xx_HAL_Driver/Src/stm32f3xx_hal_can.c ****     {
 115              		.loc 1 261 8 view .LVU33
 116 0030 0A28     		cmp	r0, #10
 117 0032 F5D9     		bls	.L5
 264:Drivers/STM32F3xx_HAL_Driver/Src/stm32f3xx_hal_can.c **** 
 118              		.loc 1 264 7 is_stmt 1 view .LVU34
 264:Drivers/STM32F3xx_HAL_Driver/Src/stm32f3xx_hal_can.c **** 
ARM GAS  /tmp/ccTH4Y0M.s 			page 11


 119              		.loc 1 264 23 is_stmt 0 view .LVU35
 120 0034 636A     		ldr	r3, [r4, #36]
 121 0036 43F40033 		orr	r3, r3, #131072
 122 003a 6362     		str	r3, [r4, #36]
 267:Drivers/STM32F3xx_HAL_Driver/Src/stm32f3xx_hal_can.c **** 
 123              		.loc 1 267 7 is_stmt 1 view .LVU36
 267:Drivers/STM32F3xx_HAL_Driver/Src/stm32f3xx_hal_can.c **** 
 124              		.loc 1 267 19 is_stmt 0 view .LVU37
 125 003c 0523     		movs	r3, #5
 126 003e 84F82030 		strb	r3, [r4, #32]
 269:Drivers/STM32F3xx_HAL_Driver/Src/stm32f3xx_hal_can.c ****     }
 127              		.loc 1 269 7 is_stmt 1 view .LVU38
 269:Drivers/STM32F3xx_HAL_Driver/Src/stm32f3xx_hal_can.c ****     }
 128              		.loc 1 269 14 is_stmt 0 view .LVU39
 129 0042 0120     		movs	r0, #1
 130              	.L3:
 369:Drivers/STM32F3xx_HAL_Driver/Src/stm32f3xx_hal_can.c **** 
 131              		.loc 1 369 1 view .LVU40
 132 0044 38BD     		pop	{r3, r4, r5, pc}
 133              	.LVL6:
 134              	.L26:
 249:Drivers/STM32F3xx_HAL_Driver/Src/stm32f3xx_hal_can.c ****   }
 135              		.loc 1 249 5 is_stmt 1 view .LVU41
 136 0046 FFF7FEFF 		bl	HAL_CAN_MspInit
 137              	.LVL7:
 249:Drivers/STM32F3xx_HAL_Driver/Src/stm32f3xx_hal_can.c ****   }
 138              		.loc 1 249 5 is_stmt 0 view .LVU42
 139 004a E1E7     		b	.L4
 140              	.LVL8:
 141              	.L27:
 274:Drivers/STM32F3xx_HAL_Driver/Src/stm32f3xx_hal_can.c **** 
 142              		.loc 1 274 3 is_stmt 1 view .LVU43
 143 004c 1A68     		ldr	r2, [r3]
 144 004e 42F00102 		orr	r2, r2, #1
 145 0052 1A60     		str	r2, [r3]
 277:Drivers/STM32F3xx_HAL_Driver/Src/stm32f3xx_hal_can.c **** 
 146              		.loc 1 277 3 view .LVU44
 277:Drivers/STM32F3xx_HAL_Driver/Src/stm32f3xx_hal_can.c **** 
 147              		.loc 1 277 15 is_stmt 0 view .LVU45
 148 0054 FFF7FEFF 		bl	HAL_GetTick
 149              	.LVL9:
 150 0058 0546     		mov	r5, r0
 151              	.LVL10:
 280:Drivers/STM32F3xx_HAL_Driver/Src/stm32f3xx_hal_can.c ****   {
 152              		.loc 1 280 3 is_stmt 1 view .LVU46
 153              	.L7:
 280:Drivers/STM32F3xx_HAL_Driver/Src/stm32f3xx_hal_can.c ****   {
 154              		.loc 1 280 15 is_stmt 0 view .LVU47
 155 005a 2368     		ldr	r3, [r4]
 280:Drivers/STM32F3xx_HAL_Driver/Src/stm32f3xx_hal_can.c ****   {
 156              		.loc 1 280 25 view .LVU48
 157 005c 5A68     		ldr	r2, [r3, #4]
 280:Drivers/STM32F3xx_HAL_Driver/Src/stm32f3xx_hal_can.c ****   {
 158              		.loc 1 280 9 view .LVU49
 159 005e 12F0010F 		tst	r2, #1
 160 0062 0DD1     		bne	.L28
 282:Drivers/STM32F3xx_HAL_Driver/Src/stm32f3xx_hal_can.c ****     {
ARM GAS  /tmp/ccTH4Y0M.s 			page 12


 161              		.loc 1 282 5 is_stmt 1 view .LVU50
 282:Drivers/STM32F3xx_HAL_Driver/Src/stm32f3xx_hal_can.c ****     {
 162              		.loc 1 282 10 is_stmt 0 view .LVU51
 163 0064 FFF7FEFF 		bl	HAL_GetTick
 164              	.LVL11:
 282:Drivers/STM32F3xx_HAL_Driver/Src/stm32f3xx_hal_can.c ****     {
 165              		.loc 1 282 24 view .LVU52
 166 0068 401B     		subs	r0, r0, r5
 282:Drivers/STM32F3xx_HAL_Driver/Src/stm32f3xx_hal_can.c ****     {
 167              		.loc 1 282 8 view .LVU53
 168 006a 0A28     		cmp	r0, #10
 169 006c F5D9     		bls	.L7
 285:Drivers/STM32F3xx_HAL_Driver/Src/stm32f3xx_hal_can.c **** 
 170              		.loc 1 285 7 is_stmt 1 view .LVU54
 285:Drivers/STM32F3xx_HAL_Driver/Src/stm32f3xx_hal_can.c **** 
 171              		.loc 1 285 23 is_stmt 0 view .LVU55
 172 006e 636A     		ldr	r3, [r4, #36]
 173 0070 43F40033 		orr	r3, r3, #131072
 174 0074 6362     		str	r3, [r4, #36]
 288:Drivers/STM32F3xx_HAL_Driver/Src/stm32f3xx_hal_can.c **** 
 175              		.loc 1 288 7 is_stmt 1 view .LVU56
 288:Drivers/STM32F3xx_HAL_Driver/Src/stm32f3xx_hal_can.c **** 
 176              		.loc 1 288 19 is_stmt 0 view .LVU57
 177 0076 0523     		movs	r3, #5
 178 0078 84F82030 		strb	r3, [r4, #32]
 290:Drivers/STM32F3xx_HAL_Driver/Src/stm32f3xx_hal_can.c ****     }
 179              		.loc 1 290 7 is_stmt 1 view .LVU58
 290:Drivers/STM32F3xx_HAL_Driver/Src/stm32f3xx_hal_can.c ****     }
 180              		.loc 1 290 14 is_stmt 0 view .LVU59
 181 007c 0120     		movs	r0, #1
 182 007e E1E7     		b	.L3
 183              	.L28:
 295:Drivers/STM32F3xx_HAL_Driver/Src/stm32f3xx_hal_can.c ****   {
 184              		.loc 1 295 3 is_stmt 1 view .LVU60
 295:Drivers/STM32F3xx_HAL_Driver/Src/stm32f3xx_hal_can.c ****   {
 185              		.loc 1 295 17 is_stmt 0 view .LVU61
 186 0080 227E     		ldrb	r2, [r4, #24]	@ zero_extendqisi2
 295:Drivers/STM32F3xx_HAL_Driver/Src/stm32f3xx_hal_can.c ****   {
 187              		.loc 1 295 6 view .LVU62
 188 0082 012A     		cmp	r2, #1
 189 0084 3DD0     		beq	.L29
 301:Drivers/STM32F3xx_HAL_Driver/Src/stm32f3xx_hal_can.c ****   }
 190              		.loc 1 301 5 is_stmt 1 view .LVU63
 191 0086 1A68     		ldr	r2, [r3]
 192 0088 22F08002 		bic	r2, r2, #128
 193 008c 1A60     		str	r2, [r3]
 194              	.L10:
 305:Drivers/STM32F3xx_HAL_Driver/Src/stm32f3xx_hal_can.c ****   {
 195              		.loc 1 305 3 view .LVU64
 305:Drivers/STM32F3xx_HAL_Driver/Src/stm32f3xx_hal_can.c ****   {
 196              		.loc 1 305 17 is_stmt 0 view .LVU65
 197 008e 637E     		ldrb	r3, [r4, #25]	@ zero_extendqisi2
 305:Drivers/STM32F3xx_HAL_Driver/Src/stm32f3xx_hal_can.c ****   {
 198              		.loc 1 305 6 view .LVU66
 199 0090 012B     		cmp	r3, #1
 200 0092 3BD0     		beq	.L30
 311:Drivers/STM32F3xx_HAL_Driver/Src/stm32f3xx_hal_can.c ****   }
ARM GAS  /tmp/ccTH4Y0M.s 			page 13


 201              		.loc 1 311 5 is_stmt 1 view .LVU67
 202 0094 2268     		ldr	r2, [r4]
 203 0096 1368     		ldr	r3, [r2]
 204 0098 23F04003 		bic	r3, r3, #64
 205 009c 1360     		str	r3, [r2]
 206              	.L12:
 315:Drivers/STM32F3xx_HAL_Driver/Src/stm32f3xx_hal_can.c ****   {
 207              		.loc 1 315 3 view .LVU68
 315:Drivers/STM32F3xx_HAL_Driver/Src/stm32f3xx_hal_can.c ****   {
 208              		.loc 1 315 17 is_stmt 0 view .LVU69
 209 009e A37E     		ldrb	r3, [r4, #26]	@ zero_extendqisi2
 315:Drivers/STM32F3xx_HAL_Driver/Src/stm32f3xx_hal_can.c ****   {
 210              		.loc 1 315 6 view .LVU70
 211 00a0 012B     		cmp	r3, #1
 212 00a2 39D0     		beq	.L31
 321:Drivers/STM32F3xx_HAL_Driver/Src/stm32f3xx_hal_can.c ****   }
 213              		.loc 1 321 5 is_stmt 1 view .LVU71
 214 00a4 2268     		ldr	r2, [r4]
 215 00a6 1368     		ldr	r3, [r2]
 216 00a8 23F02003 		bic	r3, r3, #32
 217 00ac 1360     		str	r3, [r2]
 218              	.L14:
 325:Drivers/STM32F3xx_HAL_Driver/Src/stm32f3xx_hal_can.c ****   {
 219              		.loc 1 325 3 view .LVU72
 325:Drivers/STM32F3xx_HAL_Driver/Src/stm32f3xx_hal_can.c ****   {
 220              		.loc 1 325 17 is_stmt 0 view .LVU73
 221 00ae E37E     		ldrb	r3, [r4, #27]	@ zero_extendqisi2
 325:Drivers/STM32F3xx_HAL_Driver/Src/stm32f3xx_hal_can.c ****   {
 222              		.loc 1 325 6 view .LVU74
 223 00b0 012B     		cmp	r3, #1
 224 00b2 37D0     		beq	.L32
 331:Drivers/STM32F3xx_HAL_Driver/Src/stm32f3xx_hal_can.c ****   }
 225              		.loc 1 331 5 is_stmt 1 view .LVU75
 226 00b4 2268     		ldr	r2, [r4]
 227 00b6 1368     		ldr	r3, [r2]
 228 00b8 43F01003 		orr	r3, r3, #16
 229 00bc 1360     		str	r3, [r2]
 230              	.L16:
 335:Drivers/STM32F3xx_HAL_Driver/Src/stm32f3xx_hal_can.c ****   {
 231              		.loc 1 335 3 view .LVU76
 335:Drivers/STM32F3xx_HAL_Driver/Src/stm32f3xx_hal_can.c ****   {
 232              		.loc 1 335 17 is_stmt 0 view .LVU77
 233 00be 237F     		ldrb	r3, [r4, #28]	@ zero_extendqisi2
 335:Drivers/STM32F3xx_HAL_Driver/Src/stm32f3xx_hal_can.c ****   {
 234              		.loc 1 335 6 view .LVU78
 235 00c0 012B     		cmp	r3, #1
 236 00c2 35D0     		beq	.L33
 341:Drivers/STM32F3xx_HAL_Driver/Src/stm32f3xx_hal_can.c ****   }
 237              		.loc 1 341 5 is_stmt 1 view .LVU79
 238 00c4 2268     		ldr	r2, [r4]
 239 00c6 1368     		ldr	r3, [r2]
 240 00c8 23F00803 		bic	r3, r3, #8
 241 00cc 1360     		str	r3, [r2]
 242              	.L18:
 345:Drivers/STM32F3xx_HAL_Driver/Src/stm32f3xx_hal_can.c ****   {
 243              		.loc 1 345 3 view .LVU80
 345:Drivers/STM32F3xx_HAL_Driver/Src/stm32f3xx_hal_can.c ****   {
ARM GAS  /tmp/ccTH4Y0M.s 			page 14


 244              		.loc 1 345 17 is_stmt 0 view .LVU81
 245 00ce 637F     		ldrb	r3, [r4, #29]	@ zero_extendqisi2
 345:Drivers/STM32F3xx_HAL_Driver/Src/stm32f3xx_hal_can.c ****   {
 246              		.loc 1 345 6 view .LVU82
 247 00d0 012B     		cmp	r3, #1
 248 00d2 33D0     		beq	.L34
 351:Drivers/STM32F3xx_HAL_Driver/Src/stm32f3xx_hal_can.c ****   }
 249              		.loc 1 351 5 is_stmt 1 view .LVU83
 250 00d4 2268     		ldr	r2, [r4]
 251 00d6 1368     		ldr	r3, [r2]
 252 00d8 23F00403 		bic	r3, r3, #4
 253 00dc 1360     		str	r3, [r2]
 254              	.L20:
 355:Drivers/STM32F3xx_HAL_Driver/Src/stm32f3xx_hal_can.c ****                                             hcan->Init.SyncJumpWidth  |
 255              		.loc 1 355 3 view .LVU84
 256 00de A368     		ldr	r3, [r4, #8]
 257 00e0 E268     		ldr	r2, [r4, #12]
 258 00e2 1343     		orrs	r3, r3, r2
 259 00e4 2269     		ldr	r2, [r4, #16]
 260 00e6 1343     		orrs	r3, r3, r2
 261 00e8 6269     		ldr	r2, [r4, #20]
 262 00ea 1343     		orrs	r3, r3, r2
 263 00ec 6268     		ldr	r2, [r4, #4]
 264 00ee 013A     		subs	r2, r2, #1
 265 00f0 2168     		ldr	r1, [r4]
 266 00f2 1343     		orrs	r3, r3, r2
 267 00f4 CB61     		str	r3, [r1, #28]
 362:Drivers/STM32F3xx_HAL_Driver/Src/stm32f3xx_hal_can.c **** 
 268              		.loc 1 362 3 view .LVU85
 362:Drivers/STM32F3xx_HAL_Driver/Src/stm32f3xx_hal_can.c **** 
 269              		.loc 1 362 19 is_stmt 0 view .LVU86
 270 00f6 0020     		movs	r0, #0
 271 00f8 6062     		str	r0, [r4, #36]
 365:Drivers/STM32F3xx_HAL_Driver/Src/stm32f3xx_hal_can.c **** 
 272              		.loc 1 365 3 is_stmt 1 view .LVU87
 365:Drivers/STM32F3xx_HAL_Driver/Src/stm32f3xx_hal_can.c **** 
 273              		.loc 1 365 15 is_stmt 0 view .LVU88
 274 00fa 0123     		movs	r3, #1
 275 00fc 84F82030 		strb	r3, [r4, #32]
 368:Drivers/STM32F3xx_HAL_Driver/Src/stm32f3xx_hal_can.c **** }
 276              		.loc 1 368 3 is_stmt 1 view .LVU89
 368:Drivers/STM32F3xx_HAL_Driver/Src/stm32f3xx_hal_can.c **** }
 277              		.loc 1 368 10 is_stmt 0 view .LVU90
 278 0100 A0E7     		b	.L3
 279              	.L29:
 297:Drivers/STM32F3xx_HAL_Driver/Src/stm32f3xx_hal_can.c ****   }
 280              		.loc 1 297 5 is_stmt 1 view .LVU91
 281 0102 1A68     		ldr	r2, [r3]
 282 0104 42F08002 		orr	r2, r2, #128
 283 0108 1A60     		str	r2, [r3]
 284 010a C0E7     		b	.L10
 285              	.L30:
 307:Drivers/STM32F3xx_HAL_Driver/Src/stm32f3xx_hal_can.c ****   }
 286              		.loc 1 307 5 view .LVU92
 287 010c 2268     		ldr	r2, [r4]
 288 010e 1368     		ldr	r3, [r2]
 289 0110 43F04003 		orr	r3, r3, #64
ARM GAS  /tmp/ccTH4Y0M.s 			page 15


 290 0114 1360     		str	r3, [r2]
 291 0116 C2E7     		b	.L12
 292              	.L31:
 317:Drivers/STM32F3xx_HAL_Driver/Src/stm32f3xx_hal_can.c ****   }
 293              		.loc 1 317 5 view .LVU93
 294 0118 2268     		ldr	r2, [r4]
 295 011a 1368     		ldr	r3, [r2]
 296 011c 43F02003 		orr	r3, r3, #32
 297 0120 1360     		str	r3, [r2]
 298 0122 C4E7     		b	.L14
 299              	.L32:
 327:Drivers/STM32F3xx_HAL_Driver/Src/stm32f3xx_hal_can.c ****   }
 300              		.loc 1 327 5 view .LVU94
 301 0124 2268     		ldr	r2, [r4]
 302 0126 1368     		ldr	r3, [r2]
 303 0128 23F01003 		bic	r3, r3, #16
 304 012c 1360     		str	r3, [r2]
 305 012e C6E7     		b	.L16
 306              	.L33:
 337:Drivers/STM32F3xx_HAL_Driver/Src/stm32f3xx_hal_can.c ****   }
 307              		.loc 1 337 5 view .LVU95
 308 0130 2268     		ldr	r2, [r4]
 309 0132 1368     		ldr	r3, [r2]
 310 0134 43F00803 		orr	r3, r3, #8
 311 0138 1360     		str	r3, [r2]
 312 013a C8E7     		b	.L18
 313              	.L34:
 347:Drivers/STM32F3xx_HAL_Driver/Src/stm32f3xx_hal_can.c ****   }
 314              		.loc 1 347 5 view .LVU96
 315 013c 2268     		ldr	r2, [r4]
 316 013e 1368     		ldr	r3, [r2]
 317 0140 43F00403 		orr	r3, r3, #4
 318 0144 1360     		str	r3, [r2]
 319 0146 CAE7     		b	.L20
 320              	.LVL12:
 321              	.L21:
 322              	.LCFI1:
 323              		.cfi_def_cfa_offset 0
 324              		.cfi_restore 3
 325              		.cfi_restore 4
 326              		.cfi_restore 5
 327              		.cfi_restore 14
 229:Drivers/STM32F3xx_HAL_Driver/Src/stm32f3xx_hal_can.c ****   }
 328              		.loc 1 229 12 is_stmt 0 view .LVU97
 329 0148 0120     		movs	r0, #1
 330              	.LVL13:
 369:Drivers/STM32F3xx_HAL_Driver/Src/stm32f3xx_hal_can.c **** 
 331              		.loc 1 369 1 view .LVU98
 332 014a 7047     		bx	lr
 333              		.cfi_endproc
 334              	.LFE126:
 336              		.section	.text.HAL_CAN_MspDeInit,"ax",%progbits
 337              		.align	1
 338              		.weak	HAL_CAN_MspDeInit
 339              		.syntax unified
 340              		.thumb
 341              		.thumb_func
ARM GAS  /tmp/ccTH4Y0M.s 			page 16


 342              		.fpu fpv4-sp-d16
 344              	HAL_CAN_MspDeInit:
 345              	.LVL14:
 346              	.LFB129:
 423:Drivers/STM32F3xx_HAL_Driver/Src/stm32f3xx_hal_can.c **** 
 424:Drivers/STM32F3xx_HAL_Driver/Src/stm32f3xx_hal_can.c **** /**
 425:Drivers/STM32F3xx_HAL_Driver/Src/stm32f3xx_hal_can.c ****   * @brief  DeInitializes the CAN MSP.
 426:Drivers/STM32F3xx_HAL_Driver/Src/stm32f3xx_hal_can.c ****   * @param  hcan pointer to a CAN_HandleTypeDef structure that contains
 427:Drivers/STM32F3xx_HAL_Driver/Src/stm32f3xx_hal_can.c ****   *         the configuration information for the specified CAN.
 428:Drivers/STM32F3xx_HAL_Driver/Src/stm32f3xx_hal_can.c ****   * @retval None
 429:Drivers/STM32F3xx_HAL_Driver/Src/stm32f3xx_hal_can.c ****   */
 430:Drivers/STM32F3xx_HAL_Driver/Src/stm32f3xx_hal_can.c **** __weak void HAL_CAN_MspDeInit(CAN_HandleTypeDef *hcan)
 431:Drivers/STM32F3xx_HAL_Driver/Src/stm32f3xx_hal_can.c **** {
 347              		.loc 1 431 1 is_stmt 1 view -0
 348              		.cfi_startproc
 349              		@ args = 0, pretend = 0, frame = 0
 350              		@ frame_needed = 0, uses_anonymous_args = 0
 351              		@ link register save eliminated.
 432:Drivers/STM32F3xx_HAL_Driver/Src/stm32f3xx_hal_can.c ****   /* Prevent unused argument(s) compilation warning */
 433:Drivers/STM32F3xx_HAL_Driver/Src/stm32f3xx_hal_can.c ****   UNUSED(hcan);
 352              		.loc 1 433 3 view .LVU100
 434:Drivers/STM32F3xx_HAL_Driver/Src/stm32f3xx_hal_can.c **** 
 435:Drivers/STM32F3xx_HAL_Driver/Src/stm32f3xx_hal_can.c ****   /* NOTE : This function Should not be modified, when the callback is needed,
 436:Drivers/STM32F3xx_HAL_Driver/Src/stm32f3xx_hal_can.c ****             the HAL_CAN_MspDeInit could be implemented in the user file
 437:Drivers/STM32F3xx_HAL_Driver/Src/stm32f3xx_hal_can.c ****    */
 438:Drivers/STM32F3xx_HAL_Driver/Src/stm32f3xx_hal_can.c **** }
 353              		.loc 1 438 1 is_stmt 0 view .LVU101
 354 0000 7047     		bx	lr
 355              		.cfi_endproc
 356              	.LFE129:
 358              		.section	.text.HAL_CAN_ConfigFilter,"ax",%progbits
 359              		.align	1
 360              		.global	HAL_CAN_ConfigFilter
 361              		.syntax unified
 362              		.thumb
 363              		.thumb_func
 364              		.fpu fpv4-sp-d16
 366              	HAL_CAN_ConfigFilter:
 367              	.LVL15:
 368              	.LFB130:
 439:Drivers/STM32F3xx_HAL_Driver/Src/stm32f3xx_hal_can.c **** 
 440:Drivers/STM32F3xx_HAL_Driver/Src/stm32f3xx_hal_can.c **** 
 441:Drivers/STM32F3xx_HAL_Driver/Src/stm32f3xx_hal_can.c **** /**
 442:Drivers/STM32F3xx_HAL_Driver/Src/stm32f3xx_hal_can.c ****   * @}
 443:Drivers/STM32F3xx_HAL_Driver/Src/stm32f3xx_hal_can.c ****   */
 444:Drivers/STM32F3xx_HAL_Driver/Src/stm32f3xx_hal_can.c **** 
 445:Drivers/STM32F3xx_HAL_Driver/Src/stm32f3xx_hal_can.c **** /** @defgroup CAN_Exported_Functions_Group2 Configuration functions
 446:Drivers/STM32F3xx_HAL_Driver/Src/stm32f3xx_hal_can.c ****  *  @brief    Configuration functions.
 447:Drivers/STM32F3xx_HAL_Driver/Src/stm32f3xx_hal_can.c ****  *
 448:Drivers/STM32F3xx_HAL_Driver/Src/stm32f3xx_hal_can.c **** @verbatim
 449:Drivers/STM32F3xx_HAL_Driver/Src/stm32f3xx_hal_can.c ****   ==============================================================================
 450:Drivers/STM32F3xx_HAL_Driver/Src/stm32f3xx_hal_can.c ****               ##### Configuration functions #####
 451:Drivers/STM32F3xx_HAL_Driver/Src/stm32f3xx_hal_can.c ****   ==============================================================================
 452:Drivers/STM32F3xx_HAL_Driver/Src/stm32f3xx_hal_can.c ****     [..]  This section provides functions allowing to:
 453:Drivers/STM32F3xx_HAL_Driver/Src/stm32f3xx_hal_can.c ****       (+) HAL_CAN_ConfigFilter            : Configure the CAN reception filters
 454:Drivers/STM32F3xx_HAL_Driver/Src/stm32f3xx_hal_can.c **** 
 455:Drivers/STM32F3xx_HAL_Driver/Src/stm32f3xx_hal_can.c **** @endverbatim
ARM GAS  /tmp/ccTH4Y0M.s 			page 17


 456:Drivers/STM32F3xx_HAL_Driver/Src/stm32f3xx_hal_can.c ****   * @{
 457:Drivers/STM32F3xx_HAL_Driver/Src/stm32f3xx_hal_can.c ****   */
 458:Drivers/STM32F3xx_HAL_Driver/Src/stm32f3xx_hal_can.c **** 
 459:Drivers/STM32F3xx_HAL_Driver/Src/stm32f3xx_hal_can.c **** /**
 460:Drivers/STM32F3xx_HAL_Driver/Src/stm32f3xx_hal_can.c ****   * @brief  Configures the CAN reception filter according to the specified
 461:Drivers/STM32F3xx_HAL_Driver/Src/stm32f3xx_hal_can.c ****   *         parameters in the CAN_FilterInitStruct.
 462:Drivers/STM32F3xx_HAL_Driver/Src/stm32f3xx_hal_can.c ****   * @param  hcan pointer to a CAN_HandleTypeDef structure that contains
 463:Drivers/STM32F3xx_HAL_Driver/Src/stm32f3xx_hal_can.c ****   *         the configuration information for the specified CAN.
 464:Drivers/STM32F3xx_HAL_Driver/Src/stm32f3xx_hal_can.c ****   * @param  sFilterConfig pointer to a CAN_FilterTypeDef structure that
 465:Drivers/STM32F3xx_HAL_Driver/Src/stm32f3xx_hal_can.c ****   *         contains the filter configuration information.
 466:Drivers/STM32F3xx_HAL_Driver/Src/stm32f3xx_hal_can.c ****   * @retval None
 467:Drivers/STM32F3xx_HAL_Driver/Src/stm32f3xx_hal_can.c ****   */
 468:Drivers/STM32F3xx_HAL_Driver/Src/stm32f3xx_hal_can.c **** HAL_StatusTypeDef HAL_CAN_ConfigFilter(CAN_HandleTypeDef *hcan, CAN_FilterTypeDef *sFilterConfig)
 469:Drivers/STM32F3xx_HAL_Driver/Src/stm32f3xx_hal_can.c **** {
 369              		.loc 1 469 1 is_stmt 1 view -0
 370              		.cfi_startproc
 371              		@ args = 0, pretend = 0, frame = 0
 372              		@ frame_needed = 0, uses_anonymous_args = 0
 373              		@ link register save eliminated.
 470:Drivers/STM32F3xx_HAL_Driver/Src/stm32f3xx_hal_can.c ****   uint32_t filternbrbitpos;
 374              		.loc 1 470 3 view .LVU103
 471:Drivers/STM32F3xx_HAL_Driver/Src/stm32f3xx_hal_can.c ****   CAN_TypeDef *can_ip = hcan->Instance;
 375              		.loc 1 471 3 view .LVU104
 376              		.loc 1 471 16 is_stmt 0 view .LVU105
 377 0000 0368     		ldr	r3, [r0]
 378              	.LVL16:
 472:Drivers/STM32F3xx_HAL_Driver/Src/stm32f3xx_hal_can.c ****   HAL_CAN_StateTypeDef state = hcan->State;
 379              		.loc 1 472 3 is_stmt 1 view .LVU106
 380              		.loc 1 472 24 is_stmt 0 view .LVU107
 381 0002 90F82020 		ldrb	r2, [r0, #32]	@ zero_extendqisi2
 382              	.LVL17:
 473:Drivers/STM32F3xx_HAL_Driver/Src/stm32f3xx_hal_can.c **** 
 474:Drivers/STM32F3xx_HAL_Driver/Src/stm32f3xx_hal_can.c ****   if ((state == HAL_CAN_STATE_READY) ||
 383              		.loc 1 474 3 is_stmt 1 view .LVU108
 384              		.loc 1 474 38 is_stmt 0 view .LVU109
 385 0006 013A     		subs	r2, r2, #1
 386              	.LVL18:
 387              		.loc 1 474 38 view .LVU110
 388 0008 D2B2     		uxtb	r2, r2
 389              		.loc 1 474 6 view .LVU111
 390 000a 012A     		cmp	r2, #1
 391 000c 05D9     		bls	.L50
 475:Drivers/STM32F3xx_HAL_Driver/Src/stm32f3xx_hal_can.c ****       (state == HAL_CAN_STATE_LISTENING))
 476:Drivers/STM32F3xx_HAL_Driver/Src/stm32f3xx_hal_can.c ****   {
 477:Drivers/STM32F3xx_HAL_Driver/Src/stm32f3xx_hal_can.c ****     /* Check the parameters */
 478:Drivers/STM32F3xx_HAL_Driver/Src/stm32f3xx_hal_can.c ****     assert_param(IS_CAN_FILTER_ID_HALFWORD(sFilterConfig->FilterIdHigh));
 479:Drivers/STM32F3xx_HAL_Driver/Src/stm32f3xx_hal_can.c ****     assert_param(IS_CAN_FILTER_ID_HALFWORD(sFilterConfig->FilterIdLow));
 480:Drivers/STM32F3xx_HAL_Driver/Src/stm32f3xx_hal_can.c ****     assert_param(IS_CAN_FILTER_ID_HALFWORD(sFilterConfig->FilterMaskIdHigh));
 481:Drivers/STM32F3xx_HAL_Driver/Src/stm32f3xx_hal_can.c ****     assert_param(IS_CAN_FILTER_ID_HALFWORD(sFilterConfig->FilterMaskIdLow));
 482:Drivers/STM32F3xx_HAL_Driver/Src/stm32f3xx_hal_can.c ****     assert_param(IS_CAN_FILTER_MODE(sFilterConfig->FilterMode));
 483:Drivers/STM32F3xx_HAL_Driver/Src/stm32f3xx_hal_can.c ****     assert_param(IS_CAN_FILTER_SCALE(sFilterConfig->FilterScale));
 484:Drivers/STM32F3xx_HAL_Driver/Src/stm32f3xx_hal_can.c ****     assert_param(IS_CAN_FILTER_FIFO(sFilterConfig->FilterFIFOAssignment));
 485:Drivers/STM32F3xx_HAL_Driver/Src/stm32f3xx_hal_can.c ****     assert_param(IS_CAN_FILTER_ACTIVATION(sFilterConfig->FilterActivation));
 486:Drivers/STM32F3xx_HAL_Driver/Src/stm32f3xx_hal_can.c **** 
 487:Drivers/STM32F3xx_HAL_Driver/Src/stm32f3xx_hal_can.c ****     /* CAN is single instance with 14 dedicated filters banks */
 488:Drivers/STM32F3xx_HAL_Driver/Src/stm32f3xx_hal_can.c **** 
 489:Drivers/STM32F3xx_HAL_Driver/Src/stm32f3xx_hal_can.c ****     /* Check the parameters */
ARM GAS  /tmp/ccTH4Y0M.s 			page 18


 490:Drivers/STM32F3xx_HAL_Driver/Src/stm32f3xx_hal_can.c ****     assert_param(IS_CAN_FILTER_BANK_SINGLE(sFilterConfig->FilterBank));
 491:Drivers/STM32F3xx_HAL_Driver/Src/stm32f3xx_hal_can.c **** 
 492:Drivers/STM32F3xx_HAL_Driver/Src/stm32f3xx_hal_can.c ****     /* Initialisation mode for the filter */
 493:Drivers/STM32F3xx_HAL_Driver/Src/stm32f3xx_hal_can.c ****     SET_BIT(can_ip->FMR, CAN_FMR_FINIT);
 494:Drivers/STM32F3xx_HAL_Driver/Src/stm32f3xx_hal_can.c **** 
 495:Drivers/STM32F3xx_HAL_Driver/Src/stm32f3xx_hal_can.c ****     /* Convert filter number into bit position */
 496:Drivers/STM32F3xx_HAL_Driver/Src/stm32f3xx_hal_can.c ****     filternbrbitpos = (uint32_t)1 << (sFilterConfig->FilterBank & 0x1FU);
 497:Drivers/STM32F3xx_HAL_Driver/Src/stm32f3xx_hal_can.c **** 
 498:Drivers/STM32F3xx_HAL_Driver/Src/stm32f3xx_hal_can.c ****     /* Filter Deactivation */
 499:Drivers/STM32F3xx_HAL_Driver/Src/stm32f3xx_hal_can.c ****     CLEAR_BIT(can_ip->FA1R, filternbrbitpos);
 500:Drivers/STM32F3xx_HAL_Driver/Src/stm32f3xx_hal_can.c **** 
 501:Drivers/STM32F3xx_HAL_Driver/Src/stm32f3xx_hal_can.c ****     /* Filter Scale */
 502:Drivers/STM32F3xx_HAL_Driver/Src/stm32f3xx_hal_can.c ****     if (sFilterConfig->FilterScale == CAN_FILTERSCALE_16BIT)
 503:Drivers/STM32F3xx_HAL_Driver/Src/stm32f3xx_hal_can.c ****     {
 504:Drivers/STM32F3xx_HAL_Driver/Src/stm32f3xx_hal_can.c ****       /* 16-bit scale for the filter */
 505:Drivers/STM32F3xx_HAL_Driver/Src/stm32f3xx_hal_can.c ****       CLEAR_BIT(can_ip->FS1R, filternbrbitpos);
 506:Drivers/STM32F3xx_HAL_Driver/Src/stm32f3xx_hal_can.c **** 
 507:Drivers/STM32F3xx_HAL_Driver/Src/stm32f3xx_hal_can.c ****       /* First 16-bit identifier and First 16-bit mask */
 508:Drivers/STM32F3xx_HAL_Driver/Src/stm32f3xx_hal_can.c ****       /* Or First 16-bit identifier and Second 16-bit identifier */
 509:Drivers/STM32F3xx_HAL_Driver/Src/stm32f3xx_hal_can.c ****       can_ip->sFilterRegister[sFilterConfig->FilterBank].FR1 =
 510:Drivers/STM32F3xx_HAL_Driver/Src/stm32f3xx_hal_can.c ****         ((0x0000FFFFU & (uint32_t)sFilterConfig->FilterMaskIdLow) << 16U) |
 511:Drivers/STM32F3xx_HAL_Driver/Src/stm32f3xx_hal_can.c ****         (0x0000FFFFU & (uint32_t)sFilterConfig->FilterIdLow);
 512:Drivers/STM32F3xx_HAL_Driver/Src/stm32f3xx_hal_can.c **** 
 513:Drivers/STM32F3xx_HAL_Driver/Src/stm32f3xx_hal_can.c ****       /* Second 16-bit identifier and Second 16-bit mask */
 514:Drivers/STM32F3xx_HAL_Driver/Src/stm32f3xx_hal_can.c ****       /* Or Third 16-bit identifier and Fourth 16-bit identifier */
 515:Drivers/STM32F3xx_HAL_Driver/Src/stm32f3xx_hal_can.c ****       can_ip->sFilterRegister[sFilterConfig->FilterBank].FR2 =
 516:Drivers/STM32F3xx_HAL_Driver/Src/stm32f3xx_hal_can.c ****         ((0x0000FFFFU & (uint32_t)sFilterConfig->FilterMaskIdHigh) << 16U) |
 517:Drivers/STM32F3xx_HAL_Driver/Src/stm32f3xx_hal_can.c ****         (0x0000FFFFU & (uint32_t)sFilterConfig->FilterIdHigh);
 518:Drivers/STM32F3xx_HAL_Driver/Src/stm32f3xx_hal_can.c ****     }
 519:Drivers/STM32F3xx_HAL_Driver/Src/stm32f3xx_hal_can.c **** 
 520:Drivers/STM32F3xx_HAL_Driver/Src/stm32f3xx_hal_can.c ****     if (sFilterConfig->FilterScale == CAN_FILTERSCALE_32BIT)
 521:Drivers/STM32F3xx_HAL_Driver/Src/stm32f3xx_hal_can.c ****     {
 522:Drivers/STM32F3xx_HAL_Driver/Src/stm32f3xx_hal_can.c ****       /* 32-bit scale for the filter */
 523:Drivers/STM32F3xx_HAL_Driver/Src/stm32f3xx_hal_can.c ****       SET_BIT(can_ip->FS1R, filternbrbitpos);
 524:Drivers/STM32F3xx_HAL_Driver/Src/stm32f3xx_hal_can.c **** 
 525:Drivers/STM32F3xx_HAL_Driver/Src/stm32f3xx_hal_can.c ****       /* 32-bit identifier or First 32-bit identifier */
 526:Drivers/STM32F3xx_HAL_Driver/Src/stm32f3xx_hal_can.c ****       can_ip->sFilterRegister[sFilterConfig->FilterBank].FR1 =
 527:Drivers/STM32F3xx_HAL_Driver/Src/stm32f3xx_hal_can.c ****         ((0x0000FFFFU & (uint32_t)sFilterConfig->FilterIdHigh) << 16U) |
 528:Drivers/STM32F3xx_HAL_Driver/Src/stm32f3xx_hal_can.c ****         (0x0000FFFFU & (uint32_t)sFilterConfig->FilterIdLow);
 529:Drivers/STM32F3xx_HAL_Driver/Src/stm32f3xx_hal_can.c **** 
 530:Drivers/STM32F3xx_HAL_Driver/Src/stm32f3xx_hal_can.c ****       /* 32-bit mask or Second 32-bit identifier */
 531:Drivers/STM32F3xx_HAL_Driver/Src/stm32f3xx_hal_can.c ****       can_ip->sFilterRegister[sFilterConfig->FilterBank].FR2 =
 532:Drivers/STM32F3xx_HAL_Driver/Src/stm32f3xx_hal_can.c ****         ((0x0000FFFFU & (uint32_t)sFilterConfig->FilterMaskIdHigh) << 16U) |
 533:Drivers/STM32F3xx_HAL_Driver/Src/stm32f3xx_hal_can.c ****         (0x0000FFFFU & (uint32_t)sFilterConfig->FilterMaskIdLow);
 534:Drivers/STM32F3xx_HAL_Driver/Src/stm32f3xx_hal_can.c ****     }
 535:Drivers/STM32F3xx_HAL_Driver/Src/stm32f3xx_hal_can.c **** 
 536:Drivers/STM32F3xx_HAL_Driver/Src/stm32f3xx_hal_can.c ****     /* Filter Mode */
 537:Drivers/STM32F3xx_HAL_Driver/Src/stm32f3xx_hal_can.c ****     if (sFilterConfig->FilterMode == CAN_FILTERMODE_IDMASK)
 538:Drivers/STM32F3xx_HAL_Driver/Src/stm32f3xx_hal_can.c ****     {
 539:Drivers/STM32F3xx_HAL_Driver/Src/stm32f3xx_hal_can.c ****       /* Id/Mask mode for the filter*/
 540:Drivers/STM32F3xx_HAL_Driver/Src/stm32f3xx_hal_can.c ****       CLEAR_BIT(can_ip->FM1R, filternbrbitpos);
 541:Drivers/STM32F3xx_HAL_Driver/Src/stm32f3xx_hal_can.c ****     }
 542:Drivers/STM32F3xx_HAL_Driver/Src/stm32f3xx_hal_can.c ****     else /* CAN_FilterInitStruct->CAN_FilterMode == CAN_FilterMode_IdList */
 543:Drivers/STM32F3xx_HAL_Driver/Src/stm32f3xx_hal_can.c ****     {
 544:Drivers/STM32F3xx_HAL_Driver/Src/stm32f3xx_hal_can.c ****       /* Identifier list mode for the filter*/
 545:Drivers/STM32F3xx_HAL_Driver/Src/stm32f3xx_hal_can.c ****       SET_BIT(can_ip->FM1R, filternbrbitpos);
 546:Drivers/STM32F3xx_HAL_Driver/Src/stm32f3xx_hal_can.c ****     }
ARM GAS  /tmp/ccTH4Y0M.s 			page 19


 547:Drivers/STM32F3xx_HAL_Driver/Src/stm32f3xx_hal_can.c **** 
 548:Drivers/STM32F3xx_HAL_Driver/Src/stm32f3xx_hal_can.c ****     /* Filter FIFO assignment */
 549:Drivers/STM32F3xx_HAL_Driver/Src/stm32f3xx_hal_can.c ****     if (sFilterConfig->FilterFIFOAssignment == CAN_FILTER_FIFO0)
 550:Drivers/STM32F3xx_HAL_Driver/Src/stm32f3xx_hal_can.c ****     {
 551:Drivers/STM32F3xx_HAL_Driver/Src/stm32f3xx_hal_can.c ****       /* FIFO 0 assignation for the filter */
 552:Drivers/STM32F3xx_HAL_Driver/Src/stm32f3xx_hal_can.c ****       CLEAR_BIT(can_ip->FFA1R, filternbrbitpos);
 553:Drivers/STM32F3xx_HAL_Driver/Src/stm32f3xx_hal_can.c ****     }
 554:Drivers/STM32F3xx_HAL_Driver/Src/stm32f3xx_hal_can.c ****     else
 555:Drivers/STM32F3xx_HAL_Driver/Src/stm32f3xx_hal_can.c ****     {
 556:Drivers/STM32F3xx_HAL_Driver/Src/stm32f3xx_hal_can.c ****       /* FIFO 1 assignation for the filter */
 557:Drivers/STM32F3xx_HAL_Driver/Src/stm32f3xx_hal_can.c ****       SET_BIT(can_ip->FFA1R, filternbrbitpos);
 558:Drivers/STM32F3xx_HAL_Driver/Src/stm32f3xx_hal_can.c ****     }
 559:Drivers/STM32F3xx_HAL_Driver/Src/stm32f3xx_hal_can.c **** 
 560:Drivers/STM32F3xx_HAL_Driver/Src/stm32f3xx_hal_can.c ****     /* Filter activation */
 561:Drivers/STM32F3xx_HAL_Driver/Src/stm32f3xx_hal_can.c ****     if (sFilterConfig->FilterActivation == CAN_FILTER_ENABLE)
 562:Drivers/STM32F3xx_HAL_Driver/Src/stm32f3xx_hal_can.c ****     {
 563:Drivers/STM32F3xx_HAL_Driver/Src/stm32f3xx_hal_can.c ****       SET_BIT(can_ip->FA1R, filternbrbitpos);
 564:Drivers/STM32F3xx_HAL_Driver/Src/stm32f3xx_hal_can.c ****     }
 565:Drivers/STM32F3xx_HAL_Driver/Src/stm32f3xx_hal_can.c **** 
 566:Drivers/STM32F3xx_HAL_Driver/Src/stm32f3xx_hal_can.c ****     /* Leave the initialisation mode for the filter */
 567:Drivers/STM32F3xx_HAL_Driver/Src/stm32f3xx_hal_can.c ****     CLEAR_BIT(can_ip->FMR, CAN_FMR_FINIT);
 568:Drivers/STM32F3xx_HAL_Driver/Src/stm32f3xx_hal_can.c **** 
 569:Drivers/STM32F3xx_HAL_Driver/Src/stm32f3xx_hal_can.c ****     /* Return function status */
 570:Drivers/STM32F3xx_HAL_Driver/Src/stm32f3xx_hal_can.c ****     return HAL_OK;
 571:Drivers/STM32F3xx_HAL_Driver/Src/stm32f3xx_hal_can.c ****   }
 572:Drivers/STM32F3xx_HAL_Driver/Src/stm32f3xx_hal_can.c ****   else
 573:Drivers/STM32F3xx_HAL_Driver/Src/stm32f3xx_hal_can.c ****   {
 574:Drivers/STM32F3xx_HAL_Driver/Src/stm32f3xx_hal_can.c ****     /* Update error code */
 575:Drivers/STM32F3xx_HAL_Driver/Src/stm32f3xx_hal_can.c ****     hcan->ErrorCode |= HAL_CAN_ERROR_NOT_INITIALIZED;
 392              		.loc 1 575 5 is_stmt 1 view .LVU112
 393              		.loc 1 575 21 is_stmt 0 view .LVU113
 394 000e 436A     		ldr	r3, [r0, #36]
 395              	.LVL19:
 396              		.loc 1 575 21 view .LVU114
 397 0010 43F48023 		orr	r3, r3, #262144
 398 0014 4362     		str	r3, [r0, #36]
 576:Drivers/STM32F3xx_HAL_Driver/Src/stm32f3xx_hal_can.c **** 
 577:Drivers/STM32F3xx_HAL_Driver/Src/stm32f3xx_hal_can.c ****     return HAL_ERROR;
 399              		.loc 1 577 5 is_stmt 1 view .LVU115
 400              		.loc 1 577 12 is_stmt 0 view .LVU116
 401 0016 0120     		movs	r0, #1
 402              	.LVL20:
 578:Drivers/STM32F3xx_HAL_Driver/Src/stm32f3xx_hal_can.c ****   }
 579:Drivers/STM32F3xx_HAL_Driver/Src/stm32f3xx_hal_can.c **** }
 403              		.loc 1 579 1 view .LVU117
 404 0018 7047     		bx	lr
 405              	.LVL21:
 406              	.L50:
 469:Drivers/STM32F3xx_HAL_Driver/Src/stm32f3xx_hal_can.c ****   uint32_t filternbrbitpos;
 407              		.loc 1 469 1 view .LVU118
 408 001a 70B4     		push	{r4, r5, r6}
 409              	.LCFI2:
 410              		.cfi_def_cfa_offset 12
 411              		.cfi_offset 4, -12
 412              		.cfi_offset 5, -8
 413              		.cfi_offset 6, -4
 478:Drivers/STM32F3xx_HAL_Driver/Src/stm32f3xx_hal_can.c ****     assert_param(IS_CAN_FILTER_ID_HALFWORD(sFilterConfig->FilterIdLow));
ARM GAS  /tmp/ccTH4Y0M.s 			page 20


 414              		.loc 1 478 5 is_stmt 1 view .LVU119
 479:Drivers/STM32F3xx_HAL_Driver/Src/stm32f3xx_hal_can.c ****     assert_param(IS_CAN_FILTER_ID_HALFWORD(sFilterConfig->FilterMaskIdHigh));
 415              		.loc 1 479 5 view .LVU120
 480:Drivers/STM32F3xx_HAL_Driver/Src/stm32f3xx_hal_can.c ****     assert_param(IS_CAN_FILTER_ID_HALFWORD(sFilterConfig->FilterMaskIdLow));
 416              		.loc 1 480 5 view .LVU121
 481:Drivers/STM32F3xx_HAL_Driver/Src/stm32f3xx_hal_can.c ****     assert_param(IS_CAN_FILTER_MODE(sFilterConfig->FilterMode));
 417              		.loc 1 481 5 view .LVU122
 482:Drivers/STM32F3xx_HAL_Driver/Src/stm32f3xx_hal_can.c ****     assert_param(IS_CAN_FILTER_SCALE(sFilterConfig->FilterScale));
 418              		.loc 1 482 5 view .LVU123
 483:Drivers/STM32F3xx_HAL_Driver/Src/stm32f3xx_hal_can.c ****     assert_param(IS_CAN_FILTER_FIFO(sFilterConfig->FilterFIFOAssignment));
 419              		.loc 1 483 5 view .LVU124
 484:Drivers/STM32F3xx_HAL_Driver/Src/stm32f3xx_hal_can.c ****     assert_param(IS_CAN_FILTER_ACTIVATION(sFilterConfig->FilterActivation));
 420              		.loc 1 484 5 view .LVU125
 485:Drivers/STM32F3xx_HAL_Driver/Src/stm32f3xx_hal_can.c **** 
 421              		.loc 1 485 5 view .LVU126
 490:Drivers/STM32F3xx_HAL_Driver/Src/stm32f3xx_hal_can.c **** 
 422              		.loc 1 490 5 view .LVU127
 493:Drivers/STM32F3xx_HAL_Driver/Src/stm32f3xx_hal_can.c **** 
 423              		.loc 1 493 5 view .LVU128
 424 001c D3F80022 		ldr	r2, [r3, #512]
 425 0020 42F00102 		orr	r2, r2, #1
 426 0024 C3F80022 		str	r2, [r3, #512]
 496:Drivers/STM32F3xx_HAL_Driver/Src/stm32f3xx_hal_can.c **** 
 427              		.loc 1 496 5 view .LVU129
 496:Drivers/STM32F3xx_HAL_Driver/Src/stm32f3xx_hal_can.c **** 
 428              		.loc 1 496 52 is_stmt 0 view .LVU130
 429 0028 4A69     		ldr	r2, [r1, #20]
 496:Drivers/STM32F3xx_HAL_Driver/Src/stm32f3xx_hal_can.c **** 
 430              		.loc 1 496 65 view .LVU131
 431 002a 02F01F02 		and	r2, r2, #31
 496:Drivers/STM32F3xx_HAL_Driver/Src/stm32f3xx_hal_can.c **** 
 432              		.loc 1 496 21 view .LVU132
 433 002e 0120     		movs	r0, #1
 434              	.LVL22:
 496:Drivers/STM32F3xx_HAL_Driver/Src/stm32f3xx_hal_can.c **** 
 435              		.loc 1 496 21 view .LVU133
 436 0030 00FA02F2 		lsl	r2, r0, r2
 437              	.LVL23:
 499:Drivers/STM32F3xx_HAL_Driver/Src/stm32f3xx_hal_can.c **** 
 438              		.loc 1 499 5 is_stmt 1 view .LVU134
 439 0034 D3F81C42 		ldr	r4, [r3, #540]
 440 0038 D043     		mvns	r0, r2
 441 003a 0440     		ands	r4, r4, r0
 442 003c C3F81C42 		str	r4, [r3, #540]
 502:Drivers/STM32F3xx_HAL_Driver/Src/stm32f3xx_hal_can.c ****     {
 443              		.loc 1 502 5 view .LVU135
 502:Drivers/STM32F3xx_HAL_Driver/Src/stm32f3xx_hal_can.c ****     {
 444              		.loc 1 502 22 is_stmt 0 view .LVU136
 445 0040 CC69     		ldr	r4, [r1, #28]
 502:Drivers/STM32F3xx_HAL_Driver/Src/stm32f3xx_hal_can.c ****     {
 446              		.loc 1 502 8 view .LVU137
 447 0042 ACB9     		cbnz	r4, .L38
 505:Drivers/STM32F3xx_HAL_Driver/Src/stm32f3xx_hal_can.c **** 
 448              		.loc 1 505 7 is_stmt 1 view .LVU138
 449 0044 D3F80C42 		ldr	r4, [r3, #524]
 450 0048 0440     		ands	r4, r4, r0
 451 004a C3F80C42 		str	r4, [r3, #524]
ARM GAS  /tmp/ccTH4Y0M.s 			page 21


 509:Drivers/STM32F3xx_HAL_Driver/Src/stm32f3xx_hal_can.c ****         ((0x0000FFFFU & (uint32_t)sFilterConfig->FilterMaskIdLow) << 16U) |
 452              		.loc 1 509 7 view .LVU139
 510:Drivers/STM32F3xx_HAL_Driver/Src/stm32f3xx_hal_can.c ****         (0x0000FFFFU & (uint32_t)sFilterConfig->FilterIdLow);
 453              		.loc 1 510 48 is_stmt 0 view .LVU140
 454 004e CE68     		ldr	r6, [r1, #12]
 511:Drivers/STM32F3xx_HAL_Driver/Src/stm32f3xx_hal_can.c **** 
 455              		.loc 1 511 22 view .LVU141
 456 0050 8D88     		ldrh	r5, [r1, #4]
 509:Drivers/STM32F3xx_HAL_Driver/Src/stm32f3xx_hal_can.c ****         ((0x0000FFFFU & (uint32_t)sFilterConfig->FilterMaskIdLow) << 16U) |
 457              		.loc 1 509 44 view .LVU142
 458 0052 4C69     		ldr	r4, [r1, #20]
 510:Drivers/STM32F3xx_HAL_Driver/Src/stm32f3xx_hal_can.c ****         (0x0000FFFFU & (uint32_t)sFilterConfig->FilterIdLow);
 459              		.loc 1 510 75 view .LVU143
 460 0054 45EA0645 		orr	r5, r5, r6, lsl #16
 509:Drivers/STM32F3xx_HAL_Driver/Src/stm32f3xx_hal_can.c ****         ((0x0000FFFFU & (uint32_t)sFilterConfig->FilterMaskIdLow) << 16U) |
 461              		.loc 1 509 62 view .LVU144
 462 0058 4834     		adds	r4, r4, #72
 463 005a 43F83450 		str	r5, [r3, r4, lsl #3]
 515:Drivers/STM32F3xx_HAL_Driver/Src/stm32f3xx_hal_can.c ****         ((0x0000FFFFU & (uint32_t)sFilterConfig->FilterMaskIdHigh) << 16U) |
 464              		.loc 1 515 7 is_stmt 1 view .LVU145
 516:Drivers/STM32F3xx_HAL_Driver/Src/stm32f3xx_hal_can.c ****         (0x0000FFFFU & (uint32_t)sFilterConfig->FilterIdHigh);
 465              		.loc 1 516 48 is_stmt 0 view .LVU146
 466 005e 8E68     		ldr	r6, [r1, #8]
 517:Drivers/STM32F3xx_HAL_Driver/Src/stm32f3xx_hal_can.c ****     }
 467              		.loc 1 517 22 view .LVU147
 468 0060 0D88     		ldrh	r5, [r1]
 515:Drivers/STM32F3xx_HAL_Driver/Src/stm32f3xx_hal_can.c ****         ((0x0000FFFFU & (uint32_t)sFilterConfig->FilterMaskIdHigh) << 16U) |
 469              		.loc 1 515 44 view .LVU148
 470 0062 4C69     		ldr	r4, [r1, #20]
 516:Drivers/STM32F3xx_HAL_Driver/Src/stm32f3xx_hal_can.c ****         (0x0000FFFFU & (uint32_t)sFilterConfig->FilterIdHigh);
 471              		.loc 1 516 76 view .LVU149
 472 0064 45EA0645 		orr	r5, r5, r6, lsl #16
 515:Drivers/STM32F3xx_HAL_Driver/Src/stm32f3xx_hal_can.c ****         ((0x0000FFFFU & (uint32_t)sFilterConfig->FilterMaskIdHigh) << 16U) |
 473              		.loc 1 515 62 view .LVU150
 474 0068 4834     		adds	r4, r4, #72
 475 006a 03EBC404 		add	r4, r3, r4, lsl #3
 476 006e 6560     		str	r5, [r4, #4]
 477              	.L38:
 520:Drivers/STM32F3xx_HAL_Driver/Src/stm32f3xx_hal_can.c ****     {
 478              		.loc 1 520 5 is_stmt 1 view .LVU151
 520:Drivers/STM32F3xx_HAL_Driver/Src/stm32f3xx_hal_can.c ****     {
 479              		.loc 1 520 22 is_stmt 0 view .LVU152
 480 0070 CC69     		ldr	r4, [r1, #28]
 520:Drivers/STM32F3xx_HAL_Driver/Src/stm32f3xx_hal_can.c ****     {
 481              		.loc 1 520 8 view .LVU153
 482 0072 012C     		cmp	r4, #1
 483 0074 19D0     		beq	.L51
 484              	.L39:
 537:Drivers/STM32F3xx_HAL_Driver/Src/stm32f3xx_hal_can.c ****     {
 485              		.loc 1 537 5 is_stmt 1 view .LVU154
 537:Drivers/STM32F3xx_HAL_Driver/Src/stm32f3xx_hal_can.c ****     {
 486              		.loc 1 537 22 is_stmt 0 view .LVU155
 487 0076 8C69     		ldr	r4, [r1, #24]
 537:Drivers/STM32F3xx_HAL_Driver/Src/stm32f3xx_hal_can.c ****     {
 488              		.loc 1 537 8 view .LVU156
 489 0078 74BB     		cbnz	r4, .L40
 540:Drivers/STM32F3xx_HAL_Driver/Src/stm32f3xx_hal_can.c ****     }
ARM GAS  /tmp/ccTH4Y0M.s 			page 22


 490              		.loc 1 540 7 is_stmt 1 view .LVU157
 491 007a D3F80442 		ldr	r4, [r3, #516]
 492 007e 0440     		ands	r4, r4, r0
 493 0080 C3F80442 		str	r4, [r3, #516]
 494              	.L41:
 549:Drivers/STM32F3xx_HAL_Driver/Src/stm32f3xx_hal_can.c ****     {
 495              		.loc 1 549 5 view .LVU158
 549:Drivers/STM32F3xx_HAL_Driver/Src/stm32f3xx_hal_can.c ****     {
 496              		.loc 1 549 22 is_stmt 0 view .LVU159
 497 0084 0C69     		ldr	r4, [r1, #16]
 549:Drivers/STM32F3xx_HAL_Driver/Src/stm32f3xx_hal_can.c ****     {
 498              		.loc 1 549 8 view .LVU160
 499 0086 6CBB     		cbnz	r4, .L42
 552:Drivers/STM32F3xx_HAL_Driver/Src/stm32f3xx_hal_can.c ****     }
 500              		.loc 1 552 7 is_stmt 1 view .LVU161
 501 0088 D3F81442 		ldr	r4, [r3, #532]
 502 008c 2040     		ands	r0, r0, r4
 503 008e C3F81402 		str	r0, [r3, #532]
 504              	.L43:
 561:Drivers/STM32F3xx_HAL_Driver/Src/stm32f3xx_hal_can.c ****     {
 505              		.loc 1 561 5 view .LVU162
 561:Drivers/STM32F3xx_HAL_Driver/Src/stm32f3xx_hal_can.c ****     {
 506              		.loc 1 561 22 is_stmt 0 view .LVU163
 507 0092 096A     		ldr	r1, [r1, #32]
 508              	.LVL24:
 561:Drivers/STM32F3xx_HAL_Driver/Src/stm32f3xx_hal_can.c ****     {
 509              		.loc 1 561 8 view .LVU164
 510 0094 0129     		cmp	r1, #1
 511 0096 2BD0     		beq	.L52
 512              	.LVL25:
 513              	.L44:
 567:Drivers/STM32F3xx_HAL_Driver/Src/stm32f3xx_hal_can.c **** 
 514              		.loc 1 567 5 is_stmt 1 view .LVU165
 515 0098 D3F80022 		ldr	r2, [r3, #512]
 516 009c 22F00102 		bic	r2, r2, #1
 517 00a0 C3F80022 		str	r2, [r3, #512]
 570:Drivers/STM32F3xx_HAL_Driver/Src/stm32f3xx_hal_can.c ****   }
 518              		.loc 1 570 5 view .LVU166
 570:Drivers/STM32F3xx_HAL_Driver/Src/stm32f3xx_hal_can.c ****   }
 519              		.loc 1 570 12 is_stmt 0 view .LVU167
 520 00a4 0020     		movs	r0, #0
 521              		.loc 1 579 1 view .LVU168
 522 00a6 70BC     		pop	{r4, r5, r6}
 523              	.LCFI3:
 524              		.cfi_remember_state
 525              		.cfi_restore 6
 526              		.cfi_restore 5
 527              		.cfi_restore 4
 528              		.cfi_def_cfa_offset 0
 529 00a8 7047     		bx	lr
 530              	.LVL26:
 531              	.L51:
 532              	.LCFI4:
 533              		.cfi_restore_state
 523:Drivers/STM32F3xx_HAL_Driver/Src/stm32f3xx_hal_can.c **** 
 534              		.loc 1 523 7 is_stmt 1 view .LVU169
 535 00aa D3F80C42 		ldr	r4, [r3, #524]
ARM GAS  /tmp/ccTH4Y0M.s 			page 23


 536 00ae 1443     		orrs	r4, r4, r2
 537 00b0 C3F80C42 		str	r4, [r3, #524]
 526:Drivers/STM32F3xx_HAL_Driver/Src/stm32f3xx_hal_can.c ****         ((0x0000FFFFU & (uint32_t)sFilterConfig->FilterIdHigh) << 16U) |
 538              		.loc 1 526 7 view .LVU170
 527:Drivers/STM32F3xx_HAL_Driver/Src/stm32f3xx_hal_can.c ****         (0x0000FFFFU & (uint32_t)sFilterConfig->FilterIdLow);
 539              		.loc 1 527 48 is_stmt 0 view .LVU171
 540 00b4 0E68     		ldr	r6, [r1]
 528:Drivers/STM32F3xx_HAL_Driver/Src/stm32f3xx_hal_can.c **** 
 541              		.loc 1 528 22 view .LVU172
 542 00b6 8D88     		ldrh	r5, [r1, #4]
 526:Drivers/STM32F3xx_HAL_Driver/Src/stm32f3xx_hal_can.c ****         ((0x0000FFFFU & (uint32_t)sFilterConfig->FilterIdHigh) << 16U) |
 543              		.loc 1 526 44 view .LVU173
 544 00b8 4C69     		ldr	r4, [r1, #20]
 527:Drivers/STM32F3xx_HAL_Driver/Src/stm32f3xx_hal_can.c ****         (0x0000FFFFU & (uint32_t)sFilterConfig->FilterIdLow);
 545              		.loc 1 527 72 view .LVU174
 546 00ba 45EA0645 		orr	r5, r5, r6, lsl #16
 526:Drivers/STM32F3xx_HAL_Driver/Src/stm32f3xx_hal_can.c ****         ((0x0000FFFFU & (uint32_t)sFilterConfig->FilterIdHigh) << 16U) |
 547              		.loc 1 526 62 view .LVU175
 548 00be 4834     		adds	r4, r4, #72
 549 00c0 43F83450 		str	r5, [r3, r4, lsl #3]
 531:Drivers/STM32F3xx_HAL_Driver/Src/stm32f3xx_hal_can.c ****         ((0x0000FFFFU & (uint32_t)sFilterConfig->FilterMaskIdHigh) << 16U) |
 550              		.loc 1 531 7 is_stmt 1 view .LVU176
 532:Drivers/STM32F3xx_HAL_Driver/Src/stm32f3xx_hal_can.c ****         (0x0000FFFFU & (uint32_t)sFilterConfig->FilterMaskIdLow);
 551              		.loc 1 532 48 is_stmt 0 view .LVU177
 552 00c4 8E68     		ldr	r6, [r1, #8]
 533:Drivers/STM32F3xx_HAL_Driver/Src/stm32f3xx_hal_can.c ****     }
 553              		.loc 1 533 22 view .LVU178
 554 00c6 8D89     		ldrh	r5, [r1, #12]
 531:Drivers/STM32F3xx_HAL_Driver/Src/stm32f3xx_hal_can.c ****         ((0x0000FFFFU & (uint32_t)sFilterConfig->FilterMaskIdHigh) << 16U) |
 555              		.loc 1 531 44 view .LVU179
 556 00c8 4C69     		ldr	r4, [r1, #20]
 532:Drivers/STM32F3xx_HAL_Driver/Src/stm32f3xx_hal_can.c ****         (0x0000FFFFU & (uint32_t)sFilterConfig->FilterMaskIdLow);
 557              		.loc 1 532 76 view .LVU180
 558 00ca 45EA0645 		orr	r5, r5, r6, lsl #16
 531:Drivers/STM32F3xx_HAL_Driver/Src/stm32f3xx_hal_can.c ****         ((0x0000FFFFU & (uint32_t)sFilterConfig->FilterMaskIdHigh) << 16U) |
 559              		.loc 1 531 62 view .LVU181
 560 00ce 4834     		adds	r4, r4, #72
 561 00d0 03EBC404 		add	r4, r3, r4, lsl #3
 562 00d4 6560     		str	r5, [r4, #4]
 563 00d6 CEE7     		b	.L39
 564              	.L40:
 545:Drivers/STM32F3xx_HAL_Driver/Src/stm32f3xx_hal_can.c ****     }
 565              		.loc 1 545 7 is_stmt 1 view .LVU182
 566 00d8 D3F80442 		ldr	r4, [r3, #516]
 567 00dc 1443     		orrs	r4, r4, r2
 568 00de C3F80442 		str	r4, [r3, #516]
 569 00e2 CFE7     		b	.L41
 570              	.L42:
 557:Drivers/STM32F3xx_HAL_Driver/Src/stm32f3xx_hal_can.c ****     }
 571              		.loc 1 557 7 view .LVU183
 572 00e4 D3F81402 		ldr	r0, [r3, #532]
 573 00e8 1043     		orrs	r0, r0, r2
 574 00ea C3F81402 		str	r0, [r3, #532]
 575 00ee D0E7     		b	.L43
 576              	.LVL27:
 577              	.L52:
 563:Drivers/STM32F3xx_HAL_Driver/Src/stm32f3xx_hal_can.c ****     }
ARM GAS  /tmp/ccTH4Y0M.s 			page 24


 578              		.loc 1 563 7 view .LVU184
 579 00f0 D3F81C12 		ldr	r1, [r3, #540]
 580 00f4 0A43     		orrs	r2, r2, r1
 581              	.LVL28:
 563:Drivers/STM32F3xx_HAL_Driver/Src/stm32f3xx_hal_can.c ****     }
 582              		.loc 1 563 7 is_stmt 0 view .LVU185
 583 00f6 C3F81C22 		str	r2, [r3, #540]
 584 00fa CDE7     		b	.L44
 585              		.cfi_endproc
 586              	.LFE130:
 588              		.section	.text.HAL_CAN_Start,"ax",%progbits
 589              		.align	1
 590              		.global	HAL_CAN_Start
 591              		.syntax unified
 592              		.thumb
 593              		.thumb_func
 594              		.fpu fpv4-sp-d16
 596              	HAL_CAN_Start:
 597              	.LVL29:
 598              	.LFB131:
 580:Drivers/STM32F3xx_HAL_Driver/Src/stm32f3xx_hal_can.c **** 
 581:Drivers/STM32F3xx_HAL_Driver/Src/stm32f3xx_hal_can.c **** /**
 582:Drivers/STM32F3xx_HAL_Driver/Src/stm32f3xx_hal_can.c ****   * @}
 583:Drivers/STM32F3xx_HAL_Driver/Src/stm32f3xx_hal_can.c ****   */
 584:Drivers/STM32F3xx_HAL_Driver/Src/stm32f3xx_hal_can.c **** 
 585:Drivers/STM32F3xx_HAL_Driver/Src/stm32f3xx_hal_can.c **** /** @defgroup CAN_Exported_Functions_Group3 Control functions
 586:Drivers/STM32F3xx_HAL_Driver/Src/stm32f3xx_hal_can.c ****  *  @brief    Control functions
 587:Drivers/STM32F3xx_HAL_Driver/Src/stm32f3xx_hal_can.c ****  *
 588:Drivers/STM32F3xx_HAL_Driver/Src/stm32f3xx_hal_can.c **** @verbatim
 589:Drivers/STM32F3xx_HAL_Driver/Src/stm32f3xx_hal_can.c ****   ==============================================================================
 590:Drivers/STM32F3xx_HAL_Driver/Src/stm32f3xx_hal_can.c ****                       ##### Control functions #####
 591:Drivers/STM32F3xx_HAL_Driver/Src/stm32f3xx_hal_can.c ****   ==============================================================================
 592:Drivers/STM32F3xx_HAL_Driver/Src/stm32f3xx_hal_can.c ****     [..]  This section provides functions allowing to:
 593:Drivers/STM32F3xx_HAL_Driver/Src/stm32f3xx_hal_can.c ****       (+) HAL_CAN_Start                    : Start the CAN module
 594:Drivers/STM32F3xx_HAL_Driver/Src/stm32f3xx_hal_can.c ****       (+) HAL_CAN_Stop                     : Stop the CAN module
 595:Drivers/STM32F3xx_HAL_Driver/Src/stm32f3xx_hal_can.c ****       (+) HAL_CAN_RequestSleep             : Request sleep mode entry.
 596:Drivers/STM32F3xx_HAL_Driver/Src/stm32f3xx_hal_can.c ****       (+) HAL_CAN_WakeUp                   : Wake up from sleep mode.
 597:Drivers/STM32F3xx_HAL_Driver/Src/stm32f3xx_hal_can.c ****       (+) HAL_CAN_IsSleepActive            : Check is sleep mode is active.
 598:Drivers/STM32F3xx_HAL_Driver/Src/stm32f3xx_hal_can.c ****       (+) HAL_CAN_AddTxMessage             : Add a message to the Tx mailboxes
 599:Drivers/STM32F3xx_HAL_Driver/Src/stm32f3xx_hal_can.c ****                                              and activate the corresponding
 600:Drivers/STM32F3xx_HAL_Driver/Src/stm32f3xx_hal_can.c ****                                              transmission request
 601:Drivers/STM32F3xx_HAL_Driver/Src/stm32f3xx_hal_can.c ****       (+) HAL_CAN_AbortTxRequest           : Abort transmission request
 602:Drivers/STM32F3xx_HAL_Driver/Src/stm32f3xx_hal_can.c ****       (+) HAL_CAN_GetTxMailboxesFreeLevel  : Return Tx mailboxes free level
 603:Drivers/STM32F3xx_HAL_Driver/Src/stm32f3xx_hal_can.c ****       (+) HAL_CAN_IsTxMessagePending       : Check if a transmission request is
 604:Drivers/STM32F3xx_HAL_Driver/Src/stm32f3xx_hal_can.c ****                                              pending on the selected Tx mailbox
 605:Drivers/STM32F3xx_HAL_Driver/Src/stm32f3xx_hal_can.c ****       (+) HAL_CAN_GetRxMessage             : Get a CAN frame from the Rx FIFO
 606:Drivers/STM32F3xx_HAL_Driver/Src/stm32f3xx_hal_can.c ****       (+) HAL_CAN_GetRxFifoFillLevel       : Return Rx FIFO fill level
 607:Drivers/STM32F3xx_HAL_Driver/Src/stm32f3xx_hal_can.c **** 
 608:Drivers/STM32F3xx_HAL_Driver/Src/stm32f3xx_hal_can.c **** @endverbatim
 609:Drivers/STM32F3xx_HAL_Driver/Src/stm32f3xx_hal_can.c ****   * @{
 610:Drivers/STM32F3xx_HAL_Driver/Src/stm32f3xx_hal_can.c ****   */
 611:Drivers/STM32F3xx_HAL_Driver/Src/stm32f3xx_hal_can.c **** 
 612:Drivers/STM32F3xx_HAL_Driver/Src/stm32f3xx_hal_can.c **** /**
 613:Drivers/STM32F3xx_HAL_Driver/Src/stm32f3xx_hal_can.c ****   * @brief  Start the CAN module.
 614:Drivers/STM32F3xx_HAL_Driver/Src/stm32f3xx_hal_can.c ****   * @param  hcan pointer to an CAN_HandleTypeDef structure that contains
 615:Drivers/STM32F3xx_HAL_Driver/Src/stm32f3xx_hal_can.c ****   *         the configuration information for the specified CAN.
 616:Drivers/STM32F3xx_HAL_Driver/Src/stm32f3xx_hal_can.c ****   * @retval HAL status
ARM GAS  /tmp/ccTH4Y0M.s 			page 25


 617:Drivers/STM32F3xx_HAL_Driver/Src/stm32f3xx_hal_can.c ****   */
 618:Drivers/STM32F3xx_HAL_Driver/Src/stm32f3xx_hal_can.c **** HAL_StatusTypeDef HAL_CAN_Start(CAN_HandleTypeDef *hcan)
 619:Drivers/STM32F3xx_HAL_Driver/Src/stm32f3xx_hal_can.c **** {
 599              		.loc 1 619 1 is_stmt 1 view -0
 600              		.cfi_startproc
 601              		@ args = 0, pretend = 0, frame = 0
 602              		@ frame_needed = 0, uses_anonymous_args = 0
 603              		.loc 1 619 1 is_stmt 0 view .LVU187
 604 0000 38B5     		push	{r3, r4, r5, lr}
 605              	.LCFI5:
 606              		.cfi_def_cfa_offset 16
 607              		.cfi_offset 3, -16
 608              		.cfi_offset 4, -12
 609              		.cfi_offset 5, -8
 610              		.cfi_offset 14, -4
 620:Drivers/STM32F3xx_HAL_Driver/Src/stm32f3xx_hal_can.c ****   uint32_t tickstart;
 611              		.loc 1 620 3 is_stmt 1 view .LVU188
 621:Drivers/STM32F3xx_HAL_Driver/Src/stm32f3xx_hal_can.c **** 
 622:Drivers/STM32F3xx_HAL_Driver/Src/stm32f3xx_hal_can.c ****   if (hcan->State == HAL_CAN_STATE_READY)
 612              		.loc 1 622 3 view .LVU189
 613              		.loc 1 622 11 is_stmt 0 view .LVU190
 614 0002 90F82030 		ldrb	r3, [r0, #32]	@ zero_extendqisi2
 615 0006 DBB2     		uxtb	r3, r3
 616              		.loc 1 622 6 view .LVU191
 617 0008 012B     		cmp	r3, #1
 618 000a 05D0     		beq	.L59
 623:Drivers/STM32F3xx_HAL_Driver/Src/stm32f3xx_hal_can.c ****   {
 624:Drivers/STM32F3xx_HAL_Driver/Src/stm32f3xx_hal_can.c ****     /* Change CAN peripheral state */
 625:Drivers/STM32F3xx_HAL_Driver/Src/stm32f3xx_hal_can.c ****     hcan->State = HAL_CAN_STATE_LISTENING;
 626:Drivers/STM32F3xx_HAL_Driver/Src/stm32f3xx_hal_can.c **** 
 627:Drivers/STM32F3xx_HAL_Driver/Src/stm32f3xx_hal_can.c ****     /* Request leave initialisation */
 628:Drivers/STM32F3xx_HAL_Driver/Src/stm32f3xx_hal_can.c ****     CLEAR_BIT(hcan->Instance->MCR, CAN_MCR_INRQ);
 629:Drivers/STM32F3xx_HAL_Driver/Src/stm32f3xx_hal_can.c **** 
 630:Drivers/STM32F3xx_HAL_Driver/Src/stm32f3xx_hal_can.c ****     /* Get tick */
 631:Drivers/STM32F3xx_HAL_Driver/Src/stm32f3xx_hal_can.c ****     tickstart = HAL_GetTick();
 632:Drivers/STM32F3xx_HAL_Driver/Src/stm32f3xx_hal_can.c **** 
 633:Drivers/STM32F3xx_HAL_Driver/Src/stm32f3xx_hal_can.c ****     /* Wait the acknowledge */
 634:Drivers/STM32F3xx_HAL_Driver/Src/stm32f3xx_hal_can.c ****     while ((hcan->Instance->MSR & CAN_MSR_INAK) != 0U)
 635:Drivers/STM32F3xx_HAL_Driver/Src/stm32f3xx_hal_can.c ****     {
 636:Drivers/STM32F3xx_HAL_Driver/Src/stm32f3xx_hal_can.c ****       /* Check for the Timeout */
 637:Drivers/STM32F3xx_HAL_Driver/Src/stm32f3xx_hal_can.c ****       if ((HAL_GetTick() - tickstart) > CAN_TIMEOUT_VALUE)
 638:Drivers/STM32F3xx_HAL_Driver/Src/stm32f3xx_hal_can.c ****       {
 639:Drivers/STM32F3xx_HAL_Driver/Src/stm32f3xx_hal_can.c ****         /* Update error code */
 640:Drivers/STM32F3xx_HAL_Driver/Src/stm32f3xx_hal_can.c ****         hcan->ErrorCode |= HAL_CAN_ERROR_TIMEOUT;
 641:Drivers/STM32F3xx_HAL_Driver/Src/stm32f3xx_hal_can.c **** 
 642:Drivers/STM32F3xx_HAL_Driver/Src/stm32f3xx_hal_can.c ****         /* Change CAN state */
 643:Drivers/STM32F3xx_HAL_Driver/Src/stm32f3xx_hal_can.c ****         hcan->State = HAL_CAN_STATE_ERROR;
 644:Drivers/STM32F3xx_HAL_Driver/Src/stm32f3xx_hal_can.c **** 
 645:Drivers/STM32F3xx_HAL_Driver/Src/stm32f3xx_hal_can.c ****         return HAL_ERROR;
 646:Drivers/STM32F3xx_HAL_Driver/Src/stm32f3xx_hal_can.c ****       }
 647:Drivers/STM32F3xx_HAL_Driver/Src/stm32f3xx_hal_can.c ****     }
 648:Drivers/STM32F3xx_HAL_Driver/Src/stm32f3xx_hal_can.c **** 
 649:Drivers/STM32F3xx_HAL_Driver/Src/stm32f3xx_hal_can.c ****     /* Reset the CAN ErrorCode */
 650:Drivers/STM32F3xx_HAL_Driver/Src/stm32f3xx_hal_can.c ****     hcan->ErrorCode = HAL_CAN_ERROR_NONE;
 651:Drivers/STM32F3xx_HAL_Driver/Src/stm32f3xx_hal_can.c **** 
 652:Drivers/STM32F3xx_HAL_Driver/Src/stm32f3xx_hal_can.c ****     /* Return function status */
 653:Drivers/STM32F3xx_HAL_Driver/Src/stm32f3xx_hal_can.c ****     return HAL_OK;
ARM GAS  /tmp/ccTH4Y0M.s 			page 26


 654:Drivers/STM32F3xx_HAL_Driver/Src/stm32f3xx_hal_can.c ****   }
 655:Drivers/STM32F3xx_HAL_Driver/Src/stm32f3xx_hal_can.c ****   else
 656:Drivers/STM32F3xx_HAL_Driver/Src/stm32f3xx_hal_can.c ****   {
 657:Drivers/STM32F3xx_HAL_Driver/Src/stm32f3xx_hal_can.c ****     /* Update error code */
 658:Drivers/STM32F3xx_HAL_Driver/Src/stm32f3xx_hal_can.c ****     hcan->ErrorCode |= HAL_CAN_ERROR_NOT_READY;
 619              		.loc 1 658 5 is_stmt 1 view .LVU192
 620              		.loc 1 658 21 is_stmt 0 view .LVU193
 621 000c 436A     		ldr	r3, [r0, #36]
 622 000e 43F40023 		orr	r3, r3, #524288
 623 0012 4362     		str	r3, [r0, #36]
 659:Drivers/STM32F3xx_HAL_Driver/Src/stm32f3xx_hal_can.c **** 
 660:Drivers/STM32F3xx_HAL_Driver/Src/stm32f3xx_hal_can.c ****     return HAL_ERROR;
 624              		.loc 1 660 5 is_stmt 1 view .LVU194
 625              		.loc 1 660 12 is_stmt 0 view .LVU195
 626 0014 0120     		movs	r0, #1
 627              	.LVL30:
 628              	.L56:
 661:Drivers/STM32F3xx_HAL_Driver/Src/stm32f3xx_hal_can.c ****   }
 662:Drivers/STM32F3xx_HAL_Driver/Src/stm32f3xx_hal_can.c **** }
 629              		.loc 1 662 1 view .LVU196
 630 0016 38BD     		pop	{r3, r4, r5, pc}
 631              	.LVL31:
 632              	.L59:
 633              		.loc 1 662 1 view .LVU197
 634 0018 0446     		mov	r4, r0
 625:Drivers/STM32F3xx_HAL_Driver/Src/stm32f3xx_hal_can.c **** 
 635              		.loc 1 625 5 is_stmt 1 view .LVU198
 625:Drivers/STM32F3xx_HAL_Driver/Src/stm32f3xx_hal_can.c **** 
 636              		.loc 1 625 17 is_stmt 0 view .LVU199
 637 001a 0223     		movs	r3, #2
 638 001c 80F82030 		strb	r3, [r0, #32]
 628:Drivers/STM32F3xx_HAL_Driver/Src/stm32f3xx_hal_can.c **** 
 639              		.loc 1 628 5 is_stmt 1 view .LVU200
 640 0020 0268     		ldr	r2, [r0]
 641 0022 1368     		ldr	r3, [r2]
 642 0024 23F00103 		bic	r3, r3, #1
 643 0028 1360     		str	r3, [r2]
 631:Drivers/STM32F3xx_HAL_Driver/Src/stm32f3xx_hal_can.c **** 
 644              		.loc 1 631 5 view .LVU201
 631:Drivers/STM32F3xx_HAL_Driver/Src/stm32f3xx_hal_can.c **** 
 645              		.loc 1 631 17 is_stmt 0 view .LVU202
 646 002a FFF7FEFF 		bl	HAL_GetTick
 647              	.LVL32:
 631:Drivers/STM32F3xx_HAL_Driver/Src/stm32f3xx_hal_can.c **** 
 648              		.loc 1 631 17 view .LVU203
 649 002e 0546     		mov	r5, r0
 650              	.LVL33:
 634:Drivers/STM32F3xx_HAL_Driver/Src/stm32f3xx_hal_can.c ****     {
 651              		.loc 1 634 5 is_stmt 1 view .LVU204
 652              	.L55:
 634:Drivers/STM32F3xx_HAL_Driver/Src/stm32f3xx_hal_can.c ****     {
 653              		.loc 1 634 17 is_stmt 0 view .LVU205
 654 0030 2368     		ldr	r3, [r4]
 634:Drivers/STM32F3xx_HAL_Driver/Src/stm32f3xx_hal_can.c ****     {
 655              		.loc 1 634 27 view .LVU206
 656 0032 5B68     		ldr	r3, [r3, #4]
 634:Drivers/STM32F3xx_HAL_Driver/Src/stm32f3xx_hal_can.c ****     {
ARM GAS  /tmp/ccTH4Y0M.s 			page 27


 657              		.loc 1 634 11 view .LVU207
 658 0034 13F0010F 		tst	r3, #1
 659 0038 0DD0     		beq	.L60
 637:Drivers/STM32F3xx_HAL_Driver/Src/stm32f3xx_hal_can.c ****       {
 660              		.loc 1 637 7 is_stmt 1 view .LVU208
 637:Drivers/STM32F3xx_HAL_Driver/Src/stm32f3xx_hal_can.c ****       {
 661              		.loc 1 637 12 is_stmt 0 view .LVU209
 662 003a FFF7FEFF 		bl	HAL_GetTick
 663              	.LVL34:
 637:Drivers/STM32F3xx_HAL_Driver/Src/stm32f3xx_hal_can.c ****       {
 664              		.loc 1 637 26 view .LVU210
 665 003e 401B     		subs	r0, r0, r5
 637:Drivers/STM32F3xx_HAL_Driver/Src/stm32f3xx_hal_can.c ****       {
 666              		.loc 1 637 10 view .LVU211
 667 0040 0A28     		cmp	r0, #10
 668 0042 F5D9     		bls	.L55
 640:Drivers/STM32F3xx_HAL_Driver/Src/stm32f3xx_hal_can.c **** 
 669              		.loc 1 640 9 is_stmt 1 view .LVU212
 640:Drivers/STM32F3xx_HAL_Driver/Src/stm32f3xx_hal_can.c **** 
 670              		.loc 1 640 25 is_stmt 0 view .LVU213
 671 0044 636A     		ldr	r3, [r4, #36]
 672 0046 43F40033 		orr	r3, r3, #131072
 673 004a 6362     		str	r3, [r4, #36]
 643:Drivers/STM32F3xx_HAL_Driver/Src/stm32f3xx_hal_can.c **** 
 674              		.loc 1 643 9 is_stmt 1 view .LVU214
 643:Drivers/STM32F3xx_HAL_Driver/Src/stm32f3xx_hal_can.c **** 
 675              		.loc 1 643 21 is_stmt 0 view .LVU215
 676 004c 0523     		movs	r3, #5
 677 004e 84F82030 		strb	r3, [r4, #32]
 645:Drivers/STM32F3xx_HAL_Driver/Src/stm32f3xx_hal_can.c ****       }
 678              		.loc 1 645 9 is_stmt 1 view .LVU216
 645:Drivers/STM32F3xx_HAL_Driver/Src/stm32f3xx_hal_can.c ****       }
 679              		.loc 1 645 16 is_stmt 0 view .LVU217
 680 0052 0120     		movs	r0, #1
 681 0054 DFE7     		b	.L56
 682              	.L60:
 650:Drivers/STM32F3xx_HAL_Driver/Src/stm32f3xx_hal_can.c **** 
 683              		.loc 1 650 5 is_stmt 1 view .LVU218
 650:Drivers/STM32F3xx_HAL_Driver/Src/stm32f3xx_hal_can.c **** 
 684              		.loc 1 650 21 is_stmt 0 view .LVU219
 685 0056 0020     		movs	r0, #0
 686 0058 6062     		str	r0, [r4, #36]
 653:Drivers/STM32F3xx_HAL_Driver/Src/stm32f3xx_hal_can.c ****   }
 687              		.loc 1 653 5 is_stmt 1 view .LVU220
 653:Drivers/STM32F3xx_HAL_Driver/Src/stm32f3xx_hal_can.c ****   }
 688              		.loc 1 653 12 is_stmt 0 view .LVU221
 689 005a DCE7     		b	.L56
 690              		.cfi_endproc
 691              	.LFE131:
 693              		.section	.text.HAL_CAN_Stop,"ax",%progbits
 694              		.align	1
 695              		.global	HAL_CAN_Stop
 696              		.syntax unified
 697              		.thumb
 698              		.thumb_func
 699              		.fpu fpv4-sp-d16
 701              	HAL_CAN_Stop:
ARM GAS  /tmp/ccTH4Y0M.s 			page 28


 702              	.LVL35:
 703              	.LFB132:
 663:Drivers/STM32F3xx_HAL_Driver/Src/stm32f3xx_hal_can.c **** 
 664:Drivers/STM32F3xx_HAL_Driver/Src/stm32f3xx_hal_can.c **** /**
 665:Drivers/STM32F3xx_HAL_Driver/Src/stm32f3xx_hal_can.c ****   * @brief  Stop the CAN module and enable access to configuration registers.
 666:Drivers/STM32F3xx_HAL_Driver/Src/stm32f3xx_hal_can.c ****   * @param  hcan pointer to an CAN_HandleTypeDef structure that contains
 667:Drivers/STM32F3xx_HAL_Driver/Src/stm32f3xx_hal_can.c ****   *         the configuration information for the specified CAN.
 668:Drivers/STM32F3xx_HAL_Driver/Src/stm32f3xx_hal_can.c ****   * @retval HAL status
 669:Drivers/STM32F3xx_HAL_Driver/Src/stm32f3xx_hal_can.c ****   */
 670:Drivers/STM32F3xx_HAL_Driver/Src/stm32f3xx_hal_can.c **** HAL_StatusTypeDef HAL_CAN_Stop(CAN_HandleTypeDef *hcan)
 671:Drivers/STM32F3xx_HAL_Driver/Src/stm32f3xx_hal_can.c **** {
 704              		.loc 1 671 1 is_stmt 1 view -0
 705              		.cfi_startproc
 706              		@ args = 0, pretend = 0, frame = 0
 707              		@ frame_needed = 0, uses_anonymous_args = 0
 708              		.loc 1 671 1 is_stmt 0 view .LVU223
 709 0000 38B5     		push	{r3, r4, r5, lr}
 710              	.LCFI6:
 711              		.cfi_def_cfa_offset 16
 712              		.cfi_offset 3, -16
 713              		.cfi_offset 4, -12
 714              		.cfi_offset 5, -8
 715              		.cfi_offset 14, -4
 672:Drivers/STM32F3xx_HAL_Driver/Src/stm32f3xx_hal_can.c ****   uint32_t tickstart;
 716              		.loc 1 672 3 is_stmt 1 view .LVU224
 673:Drivers/STM32F3xx_HAL_Driver/Src/stm32f3xx_hal_can.c **** 
 674:Drivers/STM32F3xx_HAL_Driver/Src/stm32f3xx_hal_can.c ****   if (hcan->State == HAL_CAN_STATE_LISTENING)
 717              		.loc 1 674 3 view .LVU225
 718              		.loc 1 674 11 is_stmt 0 view .LVU226
 719 0002 90F82030 		ldrb	r3, [r0, #32]	@ zero_extendqisi2
 720 0006 DBB2     		uxtb	r3, r3
 721              		.loc 1 674 6 view .LVU227
 722 0008 022B     		cmp	r3, #2
 723 000a 05D0     		beq	.L67
 675:Drivers/STM32F3xx_HAL_Driver/Src/stm32f3xx_hal_can.c ****   {
 676:Drivers/STM32F3xx_HAL_Driver/Src/stm32f3xx_hal_can.c ****     /* Request initialisation */
 677:Drivers/STM32F3xx_HAL_Driver/Src/stm32f3xx_hal_can.c ****     SET_BIT(hcan->Instance->MCR, CAN_MCR_INRQ);
 678:Drivers/STM32F3xx_HAL_Driver/Src/stm32f3xx_hal_can.c **** 
 679:Drivers/STM32F3xx_HAL_Driver/Src/stm32f3xx_hal_can.c ****     /* Get tick */
 680:Drivers/STM32F3xx_HAL_Driver/Src/stm32f3xx_hal_can.c ****     tickstart = HAL_GetTick();
 681:Drivers/STM32F3xx_HAL_Driver/Src/stm32f3xx_hal_can.c **** 
 682:Drivers/STM32F3xx_HAL_Driver/Src/stm32f3xx_hal_can.c ****     /* Wait the acknowledge */
 683:Drivers/STM32F3xx_HAL_Driver/Src/stm32f3xx_hal_can.c ****     while ((hcan->Instance->MSR & CAN_MSR_INAK) == 0U)
 684:Drivers/STM32F3xx_HAL_Driver/Src/stm32f3xx_hal_can.c ****     {
 685:Drivers/STM32F3xx_HAL_Driver/Src/stm32f3xx_hal_can.c ****       /* Check for the Timeout */
 686:Drivers/STM32F3xx_HAL_Driver/Src/stm32f3xx_hal_can.c ****       if ((HAL_GetTick() - tickstart) > CAN_TIMEOUT_VALUE)
 687:Drivers/STM32F3xx_HAL_Driver/Src/stm32f3xx_hal_can.c ****       {
 688:Drivers/STM32F3xx_HAL_Driver/Src/stm32f3xx_hal_can.c ****         /* Update error code */
 689:Drivers/STM32F3xx_HAL_Driver/Src/stm32f3xx_hal_can.c ****         hcan->ErrorCode |= HAL_CAN_ERROR_TIMEOUT;
 690:Drivers/STM32F3xx_HAL_Driver/Src/stm32f3xx_hal_can.c **** 
 691:Drivers/STM32F3xx_HAL_Driver/Src/stm32f3xx_hal_can.c ****         /* Change CAN state */
 692:Drivers/STM32F3xx_HAL_Driver/Src/stm32f3xx_hal_can.c ****         hcan->State = HAL_CAN_STATE_ERROR;
 693:Drivers/STM32F3xx_HAL_Driver/Src/stm32f3xx_hal_can.c **** 
 694:Drivers/STM32F3xx_HAL_Driver/Src/stm32f3xx_hal_can.c ****         return HAL_ERROR;
 695:Drivers/STM32F3xx_HAL_Driver/Src/stm32f3xx_hal_can.c ****       }
 696:Drivers/STM32F3xx_HAL_Driver/Src/stm32f3xx_hal_can.c ****     }
 697:Drivers/STM32F3xx_HAL_Driver/Src/stm32f3xx_hal_can.c **** 
ARM GAS  /tmp/ccTH4Y0M.s 			page 29


 698:Drivers/STM32F3xx_HAL_Driver/Src/stm32f3xx_hal_can.c ****     /* Exit from sleep mode */
 699:Drivers/STM32F3xx_HAL_Driver/Src/stm32f3xx_hal_can.c ****     CLEAR_BIT(hcan->Instance->MCR, CAN_MCR_SLEEP);
 700:Drivers/STM32F3xx_HAL_Driver/Src/stm32f3xx_hal_can.c **** 
 701:Drivers/STM32F3xx_HAL_Driver/Src/stm32f3xx_hal_can.c ****     /* Change CAN peripheral state */
 702:Drivers/STM32F3xx_HAL_Driver/Src/stm32f3xx_hal_can.c ****     hcan->State = HAL_CAN_STATE_READY;
 703:Drivers/STM32F3xx_HAL_Driver/Src/stm32f3xx_hal_can.c **** 
 704:Drivers/STM32F3xx_HAL_Driver/Src/stm32f3xx_hal_can.c ****     /* Return function status */
 705:Drivers/STM32F3xx_HAL_Driver/Src/stm32f3xx_hal_can.c ****     return HAL_OK;
 706:Drivers/STM32F3xx_HAL_Driver/Src/stm32f3xx_hal_can.c ****   }
 707:Drivers/STM32F3xx_HAL_Driver/Src/stm32f3xx_hal_can.c ****   else
 708:Drivers/STM32F3xx_HAL_Driver/Src/stm32f3xx_hal_can.c ****   {
 709:Drivers/STM32F3xx_HAL_Driver/Src/stm32f3xx_hal_can.c ****     /* Update error code */
 710:Drivers/STM32F3xx_HAL_Driver/Src/stm32f3xx_hal_can.c ****     hcan->ErrorCode |= HAL_CAN_ERROR_NOT_STARTED;
 724              		.loc 1 710 5 is_stmt 1 view .LVU228
 725              		.loc 1 710 21 is_stmt 0 view .LVU229
 726 000c 436A     		ldr	r3, [r0, #36]
 727 000e 43F48013 		orr	r3, r3, #1048576
 728 0012 4362     		str	r3, [r0, #36]
 711:Drivers/STM32F3xx_HAL_Driver/Src/stm32f3xx_hal_can.c **** 
 712:Drivers/STM32F3xx_HAL_Driver/Src/stm32f3xx_hal_can.c ****     return HAL_ERROR;
 729              		.loc 1 712 5 is_stmt 1 view .LVU230
 730              		.loc 1 712 12 is_stmt 0 view .LVU231
 731 0014 0120     		movs	r0, #1
 732              	.LVL36:
 733              	.L64:
 713:Drivers/STM32F3xx_HAL_Driver/Src/stm32f3xx_hal_can.c ****   }
 714:Drivers/STM32F3xx_HAL_Driver/Src/stm32f3xx_hal_can.c **** }
 734              		.loc 1 714 1 view .LVU232
 735 0016 38BD     		pop	{r3, r4, r5, pc}
 736              	.LVL37:
 737              	.L67:
 738              		.loc 1 714 1 view .LVU233
 739 0018 0446     		mov	r4, r0
 677:Drivers/STM32F3xx_HAL_Driver/Src/stm32f3xx_hal_can.c **** 
 740              		.loc 1 677 5 is_stmt 1 view .LVU234
 741 001a 0268     		ldr	r2, [r0]
 742 001c 1368     		ldr	r3, [r2]
 743 001e 43F00103 		orr	r3, r3, #1
 744 0022 1360     		str	r3, [r2]
 680:Drivers/STM32F3xx_HAL_Driver/Src/stm32f3xx_hal_can.c **** 
 745              		.loc 1 680 5 view .LVU235
 680:Drivers/STM32F3xx_HAL_Driver/Src/stm32f3xx_hal_can.c **** 
 746              		.loc 1 680 17 is_stmt 0 view .LVU236
 747 0024 FFF7FEFF 		bl	HAL_GetTick
 748              	.LVL38:
 680:Drivers/STM32F3xx_HAL_Driver/Src/stm32f3xx_hal_can.c **** 
 749              		.loc 1 680 17 view .LVU237
 750 0028 0546     		mov	r5, r0
 751              	.LVL39:
 683:Drivers/STM32F3xx_HAL_Driver/Src/stm32f3xx_hal_can.c ****     {
 752              		.loc 1 683 5 is_stmt 1 view .LVU238
 753              	.L63:
 683:Drivers/STM32F3xx_HAL_Driver/Src/stm32f3xx_hal_can.c ****     {
 754              		.loc 1 683 17 is_stmt 0 view .LVU239
 755 002a 2368     		ldr	r3, [r4]
 683:Drivers/STM32F3xx_HAL_Driver/Src/stm32f3xx_hal_can.c ****     {
 756              		.loc 1 683 27 view .LVU240
ARM GAS  /tmp/ccTH4Y0M.s 			page 30


 757 002c 5A68     		ldr	r2, [r3, #4]
 683:Drivers/STM32F3xx_HAL_Driver/Src/stm32f3xx_hal_can.c ****     {
 758              		.loc 1 683 11 view .LVU241
 759 002e 12F0010F 		tst	r2, #1
 760 0032 0DD1     		bne	.L68
 686:Drivers/STM32F3xx_HAL_Driver/Src/stm32f3xx_hal_can.c ****       {
 761              		.loc 1 686 7 is_stmt 1 view .LVU242
 686:Drivers/STM32F3xx_HAL_Driver/Src/stm32f3xx_hal_can.c ****       {
 762              		.loc 1 686 12 is_stmt 0 view .LVU243
 763 0034 FFF7FEFF 		bl	HAL_GetTick
 764              	.LVL40:
 686:Drivers/STM32F3xx_HAL_Driver/Src/stm32f3xx_hal_can.c ****       {
 765              		.loc 1 686 26 view .LVU244
 766 0038 401B     		subs	r0, r0, r5
 686:Drivers/STM32F3xx_HAL_Driver/Src/stm32f3xx_hal_can.c ****       {
 767              		.loc 1 686 10 view .LVU245
 768 003a 0A28     		cmp	r0, #10
 769 003c F5D9     		bls	.L63
 689:Drivers/STM32F3xx_HAL_Driver/Src/stm32f3xx_hal_can.c **** 
 770              		.loc 1 689 9 is_stmt 1 view .LVU246
 689:Drivers/STM32F3xx_HAL_Driver/Src/stm32f3xx_hal_can.c **** 
 771              		.loc 1 689 25 is_stmt 0 view .LVU247
 772 003e 636A     		ldr	r3, [r4, #36]
 773 0040 43F40033 		orr	r3, r3, #131072
 774 0044 6362     		str	r3, [r4, #36]
 692:Drivers/STM32F3xx_HAL_Driver/Src/stm32f3xx_hal_can.c **** 
 775              		.loc 1 692 9 is_stmt 1 view .LVU248
 692:Drivers/STM32F3xx_HAL_Driver/Src/stm32f3xx_hal_can.c **** 
 776              		.loc 1 692 21 is_stmt 0 view .LVU249
 777 0046 0523     		movs	r3, #5
 778 0048 84F82030 		strb	r3, [r4, #32]
 694:Drivers/STM32F3xx_HAL_Driver/Src/stm32f3xx_hal_can.c ****       }
 779              		.loc 1 694 9 is_stmt 1 view .LVU250
 694:Drivers/STM32F3xx_HAL_Driver/Src/stm32f3xx_hal_can.c ****       }
 780              		.loc 1 694 16 is_stmt 0 view .LVU251
 781 004c 0120     		movs	r0, #1
 782 004e E2E7     		b	.L64
 783              	.L68:
 699:Drivers/STM32F3xx_HAL_Driver/Src/stm32f3xx_hal_can.c **** 
 784              		.loc 1 699 5 is_stmt 1 view .LVU252
 785 0050 1A68     		ldr	r2, [r3]
 786 0052 22F00202 		bic	r2, r2, #2
 787 0056 1A60     		str	r2, [r3]
 702:Drivers/STM32F3xx_HAL_Driver/Src/stm32f3xx_hal_can.c **** 
 788              		.loc 1 702 5 view .LVU253
 702:Drivers/STM32F3xx_HAL_Driver/Src/stm32f3xx_hal_can.c **** 
 789              		.loc 1 702 17 is_stmt 0 view .LVU254
 790 0058 0123     		movs	r3, #1
 791 005a 84F82030 		strb	r3, [r4, #32]
 705:Drivers/STM32F3xx_HAL_Driver/Src/stm32f3xx_hal_can.c ****   }
 792              		.loc 1 705 5 is_stmt 1 view .LVU255
 705:Drivers/STM32F3xx_HAL_Driver/Src/stm32f3xx_hal_can.c ****   }
 793              		.loc 1 705 12 is_stmt 0 view .LVU256
 794 005e 0020     		movs	r0, #0
 795 0060 D9E7     		b	.L64
 796              		.cfi_endproc
 797              	.LFE132:
ARM GAS  /tmp/ccTH4Y0M.s 			page 31


 799              		.section	.text.HAL_CAN_DeInit,"ax",%progbits
 800              		.align	1
 801              		.global	HAL_CAN_DeInit
 802              		.syntax unified
 803              		.thumb
 804              		.thumb_func
 805              		.fpu fpv4-sp-d16
 807              	HAL_CAN_DeInit:
 808              	.LVL41:
 809              	.LFB127:
 379:Drivers/STM32F3xx_HAL_Driver/Src/stm32f3xx_hal_can.c ****   /* Check CAN handle */
 810              		.loc 1 379 1 is_stmt 1 view -0
 811              		.cfi_startproc
 812              		@ args = 0, pretend = 0, frame = 0
 813              		@ frame_needed = 0, uses_anonymous_args = 0
 381:Drivers/STM32F3xx_HAL_Driver/Src/stm32f3xx_hal_can.c ****   {
 814              		.loc 1 381 3 view .LVU258
 381:Drivers/STM32F3xx_HAL_Driver/Src/stm32f3xx_hal_can.c ****   {
 815              		.loc 1 381 6 is_stmt 0 view .LVU259
 816 0000 80B1     		cbz	r0, .L71
 379:Drivers/STM32F3xx_HAL_Driver/Src/stm32f3xx_hal_can.c ****   /* Check CAN handle */
 817              		.loc 1 379 1 view .LVU260
 818 0002 10B5     		push	{r4, lr}
 819              	.LCFI7:
 820              		.cfi_def_cfa_offset 8
 821              		.cfi_offset 4, -8
 822              		.cfi_offset 14, -4
 823 0004 0446     		mov	r4, r0
 387:Drivers/STM32F3xx_HAL_Driver/Src/stm32f3xx_hal_can.c **** 
 824              		.loc 1 387 3 is_stmt 1 view .LVU261
 390:Drivers/STM32F3xx_HAL_Driver/Src/stm32f3xx_hal_can.c **** 
 825              		.loc 1 390 3 view .LVU262
 390:Drivers/STM32F3xx_HAL_Driver/Src/stm32f3xx_hal_can.c **** 
 826              		.loc 1 390 9 is_stmt 0 view .LVU263
 827 0006 FFF7FEFF 		bl	HAL_CAN_Stop
 828              	.LVL42:
 393:Drivers/STM32F3xx_HAL_Driver/Src/stm32f3xx_hal_can.c **** 
 829              		.loc 1 393 3 is_stmt 1 view .LVU264
 830 000a 2046     		mov	r0, r4
 831 000c FFF7FEFF 		bl	HAL_CAN_MspDeInit
 832              	.LVL43:
 396:Drivers/STM32F3xx_HAL_Driver/Src/stm32f3xx_hal_can.c **** 
 833              		.loc 1 396 3 view .LVU265
 834 0010 2268     		ldr	r2, [r4]
 835 0012 1368     		ldr	r3, [r2]
 836 0014 43F40043 		orr	r3, r3, #32768
 837 0018 1360     		str	r3, [r2]
 399:Drivers/STM32F3xx_HAL_Driver/Src/stm32f3xx_hal_can.c **** 
 838              		.loc 1 399 3 view .LVU266
 399:Drivers/STM32F3xx_HAL_Driver/Src/stm32f3xx_hal_can.c **** 
 839              		.loc 1 399 19 is_stmt 0 view .LVU267
 840 001a 0020     		movs	r0, #0
 841 001c 6062     		str	r0, [r4, #36]
 402:Drivers/STM32F3xx_HAL_Driver/Src/stm32f3xx_hal_can.c **** 
 842              		.loc 1 402 3 is_stmt 1 view .LVU268
 402:Drivers/STM32F3xx_HAL_Driver/Src/stm32f3xx_hal_can.c **** 
 843              		.loc 1 402 15 is_stmt 0 view .LVU269
ARM GAS  /tmp/ccTH4Y0M.s 			page 32


 844 001e 84F82000 		strb	r0, [r4, #32]
 405:Drivers/STM32F3xx_HAL_Driver/Src/stm32f3xx_hal_can.c **** }
 845              		.loc 1 405 3 is_stmt 1 view .LVU270
 406:Drivers/STM32F3xx_HAL_Driver/Src/stm32f3xx_hal_can.c **** 
 846              		.loc 1 406 1 is_stmt 0 view .LVU271
 847 0022 10BD     		pop	{r4, pc}
 848              	.LVL44:
 849              	.L71:
 850              	.LCFI8:
 851              		.cfi_def_cfa_offset 0
 852              		.cfi_restore 4
 853              		.cfi_restore 14
 383:Drivers/STM32F3xx_HAL_Driver/Src/stm32f3xx_hal_can.c ****   }
 854              		.loc 1 383 12 view .LVU272
 855 0024 0120     		movs	r0, #1
 856              	.LVL45:
 406:Drivers/STM32F3xx_HAL_Driver/Src/stm32f3xx_hal_can.c **** 
 857              		.loc 1 406 1 view .LVU273
 858 0026 7047     		bx	lr
 859              		.cfi_endproc
 860              	.LFE127:
 862              		.section	.text.HAL_CAN_RequestSleep,"ax",%progbits
 863              		.align	1
 864              		.global	HAL_CAN_RequestSleep
 865              		.syntax unified
 866              		.thumb
 867              		.thumb_func
 868              		.fpu fpv4-sp-d16
 870              	HAL_CAN_RequestSleep:
 871              	.LVL46:
 872              	.LFB133:
 715:Drivers/STM32F3xx_HAL_Driver/Src/stm32f3xx_hal_can.c **** 
 716:Drivers/STM32F3xx_HAL_Driver/Src/stm32f3xx_hal_can.c **** /**
 717:Drivers/STM32F3xx_HAL_Driver/Src/stm32f3xx_hal_can.c ****   * @brief  Request the sleep mode (low power) entry.
 718:Drivers/STM32F3xx_HAL_Driver/Src/stm32f3xx_hal_can.c ****   *         When returning from this function, Sleep mode will be entered
 719:Drivers/STM32F3xx_HAL_Driver/Src/stm32f3xx_hal_can.c ****   *         as soon as the current CAN activity (transmission or reception
 720:Drivers/STM32F3xx_HAL_Driver/Src/stm32f3xx_hal_can.c ****   *         of a CAN frame) has been completed.
 721:Drivers/STM32F3xx_HAL_Driver/Src/stm32f3xx_hal_can.c ****   * @param  hcan pointer to a CAN_HandleTypeDef structure that contains
 722:Drivers/STM32F3xx_HAL_Driver/Src/stm32f3xx_hal_can.c ****   *         the configuration information for the specified CAN.
 723:Drivers/STM32F3xx_HAL_Driver/Src/stm32f3xx_hal_can.c ****   * @retval HAL status.
 724:Drivers/STM32F3xx_HAL_Driver/Src/stm32f3xx_hal_can.c ****   */
 725:Drivers/STM32F3xx_HAL_Driver/Src/stm32f3xx_hal_can.c **** HAL_StatusTypeDef HAL_CAN_RequestSleep(CAN_HandleTypeDef *hcan)
 726:Drivers/STM32F3xx_HAL_Driver/Src/stm32f3xx_hal_can.c **** {
 873              		.loc 1 726 1 is_stmt 1 view -0
 874              		.cfi_startproc
 875              		@ args = 0, pretend = 0, frame = 0
 876              		@ frame_needed = 0, uses_anonymous_args = 0
 877              		@ link register save eliminated.
 727:Drivers/STM32F3xx_HAL_Driver/Src/stm32f3xx_hal_can.c ****   HAL_CAN_StateTypeDef state = hcan->State;
 878              		.loc 1 727 3 view .LVU275
 879              		.loc 1 727 24 is_stmt 0 view .LVU276
 880 0000 90F82030 		ldrb	r3, [r0, #32]	@ zero_extendqisi2
 881              	.LVL47:
 728:Drivers/STM32F3xx_HAL_Driver/Src/stm32f3xx_hal_can.c **** 
 729:Drivers/STM32F3xx_HAL_Driver/Src/stm32f3xx_hal_can.c ****   if ((state == HAL_CAN_STATE_READY) ||
 882              		.loc 1 729 3 is_stmt 1 view .LVU277
 883              		.loc 1 729 38 is_stmt 0 view .LVU278
ARM GAS  /tmp/ccTH4Y0M.s 			page 33


 884 0004 013B     		subs	r3, r3, #1
 885              	.LVL48:
 886              		.loc 1 729 38 view .LVU279
 887 0006 DBB2     		uxtb	r3, r3
 888              		.loc 1 729 6 view .LVU280
 889 0008 012B     		cmp	r3, #1
 890 000a 05D9     		bls	.L79
 730:Drivers/STM32F3xx_HAL_Driver/Src/stm32f3xx_hal_can.c ****       (state == HAL_CAN_STATE_LISTENING))
 731:Drivers/STM32F3xx_HAL_Driver/Src/stm32f3xx_hal_can.c ****   {
 732:Drivers/STM32F3xx_HAL_Driver/Src/stm32f3xx_hal_can.c ****     /* Request Sleep mode */
 733:Drivers/STM32F3xx_HAL_Driver/Src/stm32f3xx_hal_can.c ****     SET_BIT(hcan->Instance->MCR, CAN_MCR_SLEEP);
 734:Drivers/STM32F3xx_HAL_Driver/Src/stm32f3xx_hal_can.c **** 
 735:Drivers/STM32F3xx_HAL_Driver/Src/stm32f3xx_hal_can.c ****     /* Return function status */
 736:Drivers/STM32F3xx_HAL_Driver/Src/stm32f3xx_hal_can.c ****     return HAL_OK;
 737:Drivers/STM32F3xx_HAL_Driver/Src/stm32f3xx_hal_can.c ****   }
 738:Drivers/STM32F3xx_HAL_Driver/Src/stm32f3xx_hal_can.c ****   else
 739:Drivers/STM32F3xx_HAL_Driver/Src/stm32f3xx_hal_can.c ****   {
 740:Drivers/STM32F3xx_HAL_Driver/Src/stm32f3xx_hal_can.c ****     /* Update error code */
 741:Drivers/STM32F3xx_HAL_Driver/Src/stm32f3xx_hal_can.c ****     hcan->ErrorCode |= HAL_CAN_ERROR_NOT_INITIALIZED;
 891              		.loc 1 741 5 is_stmt 1 view .LVU281
 892              		.loc 1 741 21 is_stmt 0 view .LVU282
 893 000c 436A     		ldr	r3, [r0, #36]
 894 000e 43F48023 		orr	r3, r3, #262144
 895 0012 4362     		str	r3, [r0, #36]
 742:Drivers/STM32F3xx_HAL_Driver/Src/stm32f3xx_hal_can.c **** 
 743:Drivers/STM32F3xx_HAL_Driver/Src/stm32f3xx_hal_can.c ****     /* Return function status */
 744:Drivers/STM32F3xx_HAL_Driver/Src/stm32f3xx_hal_can.c ****     return HAL_ERROR;
 896              		.loc 1 744 5 is_stmt 1 view .LVU283
 897              		.loc 1 744 12 is_stmt 0 view .LVU284
 898 0014 0120     		movs	r0, #1
 899              	.LVL49:
 745:Drivers/STM32F3xx_HAL_Driver/Src/stm32f3xx_hal_can.c ****   }
 746:Drivers/STM32F3xx_HAL_Driver/Src/stm32f3xx_hal_can.c **** }
 900              		.loc 1 746 1 view .LVU285
 901 0016 7047     		bx	lr
 902              	.LVL50:
 903              	.L79:
 733:Drivers/STM32F3xx_HAL_Driver/Src/stm32f3xx_hal_can.c **** 
 904              		.loc 1 733 5 is_stmt 1 view .LVU286
 905 0018 0268     		ldr	r2, [r0]
 906 001a 1368     		ldr	r3, [r2]
 907 001c 43F00203 		orr	r3, r3, #2
 908 0020 1360     		str	r3, [r2]
 736:Drivers/STM32F3xx_HAL_Driver/Src/stm32f3xx_hal_can.c ****   }
 909              		.loc 1 736 5 view .LVU287
 736:Drivers/STM32F3xx_HAL_Driver/Src/stm32f3xx_hal_can.c ****   }
 910              		.loc 1 736 12 is_stmt 0 view .LVU288
 911 0022 0020     		movs	r0, #0
 912              	.LVL51:
 736:Drivers/STM32F3xx_HAL_Driver/Src/stm32f3xx_hal_can.c ****   }
 913              		.loc 1 736 12 view .LVU289
 914 0024 7047     		bx	lr
 915              		.cfi_endproc
 916              	.LFE133:
 918              		.section	.text.HAL_CAN_WakeUp,"ax",%progbits
 919              		.align	1
 920              		.global	HAL_CAN_WakeUp
ARM GAS  /tmp/ccTH4Y0M.s 			page 34


 921              		.syntax unified
 922              		.thumb
 923              		.thumb_func
 924              		.fpu fpv4-sp-d16
 926              	HAL_CAN_WakeUp:
 927              	.LVL52:
 928              	.LFB134:
 747:Drivers/STM32F3xx_HAL_Driver/Src/stm32f3xx_hal_can.c **** 
 748:Drivers/STM32F3xx_HAL_Driver/Src/stm32f3xx_hal_can.c **** /**
 749:Drivers/STM32F3xx_HAL_Driver/Src/stm32f3xx_hal_can.c ****   * @brief  Wake up from sleep mode.
 750:Drivers/STM32F3xx_HAL_Driver/Src/stm32f3xx_hal_can.c ****   *         When returning with HAL_OK status from this function, Sleep mode
 751:Drivers/STM32F3xx_HAL_Driver/Src/stm32f3xx_hal_can.c ****   *         is exited.
 752:Drivers/STM32F3xx_HAL_Driver/Src/stm32f3xx_hal_can.c ****   * @param  hcan pointer to a CAN_HandleTypeDef structure that contains
 753:Drivers/STM32F3xx_HAL_Driver/Src/stm32f3xx_hal_can.c ****   *         the configuration information for the specified CAN.
 754:Drivers/STM32F3xx_HAL_Driver/Src/stm32f3xx_hal_can.c ****   * @retval HAL status.
 755:Drivers/STM32F3xx_HAL_Driver/Src/stm32f3xx_hal_can.c ****   */
 756:Drivers/STM32F3xx_HAL_Driver/Src/stm32f3xx_hal_can.c **** HAL_StatusTypeDef HAL_CAN_WakeUp(CAN_HandleTypeDef *hcan)
 757:Drivers/STM32F3xx_HAL_Driver/Src/stm32f3xx_hal_can.c **** {
 929              		.loc 1 757 1 is_stmt 1 view -0
 930              		.cfi_startproc
 931              		@ args = 0, pretend = 0, frame = 8
 932              		@ frame_needed = 0, uses_anonymous_args = 0
 933              		@ link register save eliminated.
 934              		.loc 1 757 1 is_stmt 0 view .LVU291
 935 0000 82B0     		sub	sp, sp, #8
 936              	.LCFI9:
 937              		.cfi_def_cfa_offset 8
 758:Drivers/STM32F3xx_HAL_Driver/Src/stm32f3xx_hal_can.c ****   __IO uint32_t count = 0;
 938              		.loc 1 758 3 is_stmt 1 view .LVU292
 939              		.loc 1 758 17 is_stmt 0 view .LVU293
 940 0002 0023     		movs	r3, #0
 941 0004 0193     		str	r3, [sp, #4]
 759:Drivers/STM32F3xx_HAL_Driver/Src/stm32f3xx_hal_can.c ****   uint32_t timeout = 1000000U;
 942              		.loc 1 759 3 is_stmt 1 view .LVU294
 943              	.LVL53:
 760:Drivers/STM32F3xx_HAL_Driver/Src/stm32f3xx_hal_can.c ****   HAL_CAN_StateTypeDef state = hcan->State;
 944              		.loc 1 760 3 view .LVU295
 945              		.loc 1 760 24 is_stmt 0 view .LVU296
 946 0006 90F82030 		ldrb	r3, [r0, #32]	@ zero_extendqisi2
 947              	.LVL54:
 761:Drivers/STM32F3xx_HAL_Driver/Src/stm32f3xx_hal_can.c **** 
 762:Drivers/STM32F3xx_HAL_Driver/Src/stm32f3xx_hal_can.c ****   if ((state == HAL_CAN_STATE_READY) ||
 948              		.loc 1 762 3 is_stmt 1 view .LVU297
 949              		.loc 1 762 38 is_stmt 0 view .LVU298
 950 000a 013B     		subs	r3, r3, #1
 951              	.LVL55:
 952              		.loc 1 762 38 view .LVU299
 953 000c DBB2     		uxtb	r3, r3
 954              		.loc 1 762 6 view .LVU300
 955 000e 012B     		cmp	r3, #1
 956 0010 18D8     		bhi	.L81
 763:Drivers/STM32F3xx_HAL_Driver/Src/stm32f3xx_hal_can.c ****       (state == HAL_CAN_STATE_LISTENING))
 764:Drivers/STM32F3xx_HAL_Driver/Src/stm32f3xx_hal_can.c ****   {
 765:Drivers/STM32F3xx_HAL_Driver/Src/stm32f3xx_hal_can.c ****     /* Wake up request */
 766:Drivers/STM32F3xx_HAL_Driver/Src/stm32f3xx_hal_can.c ****     CLEAR_BIT(hcan->Instance->MCR, CAN_MCR_SLEEP);
 957              		.loc 1 766 5 is_stmt 1 view .LVU301
 958 0012 0268     		ldr	r2, [r0]
ARM GAS  /tmp/ccTH4Y0M.s 			page 35


 959 0014 1368     		ldr	r3, [r2]
 960 0016 23F00203 		bic	r3, r3, #2
 961 001a 1360     		str	r3, [r2]
 962              	.L84:
 767:Drivers/STM32F3xx_HAL_Driver/Src/stm32f3xx_hal_can.c **** 
 768:Drivers/STM32F3xx_HAL_Driver/Src/stm32f3xx_hal_can.c ****     /* Wait sleep mode is exited */
 769:Drivers/STM32F3xx_HAL_Driver/Src/stm32f3xx_hal_can.c ****     do
 963              		.loc 1 769 5 view .LVU302
 770:Drivers/STM32F3xx_HAL_Driver/Src/stm32f3xx_hal_can.c ****     {
 771:Drivers/STM32F3xx_HAL_Driver/Src/stm32f3xx_hal_can.c ****       /* Increment counter */
 772:Drivers/STM32F3xx_HAL_Driver/Src/stm32f3xx_hal_can.c ****       count++;
 964              		.loc 1 772 7 view .LVU303
 965              		.loc 1 772 12 is_stmt 0 view .LVU304
 966 001c 019B     		ldr	r3, [sp, #4]
 967 001e 0133     		adds	r3, r3, #1
 968 0020 0193     		str	r3, [sp, #4]
 773:Drivers/STM32F3xx_HAL_Driver/Src/stm32f3xx_hal_can.c **** 
 774:Drivers/STM32F3xx_HAL_Driver/Src/stm32f3xx_hal_can.c ****       /* Check if timeout is reached */
 775:Drivers/STM32F3xx_HAL_Driver/Src/stm32f3xx_hal_can.c ****       if (count > timeout)
 969              		.loc 1 775 7 is_stmt 1 view .LVU305
 970              		.loc 1 775 17 is_stmt 0 view .LVU306
 971 0022 019A     		ldr	r2, [sp, #4]
 972              		.loc 1 775 10 view .LVU307
 973 0024 0B4B     		ldr	r3, .L87
 974 0026 9A42     		cmp	r2, r3
 975 0028 06D8     		bhi	.L86
 776:Drivers/STM32F3xx_HAL_Driver/Src/stm32f3xx_hal_can.c ****       {
 777:Drivers/STM32F3xx_HAL_Driver/Src/stm32f3xx_hal_can.c ****         /* Update error code */
 778:Drivers/STM32F3xx_HAL_Driver/Src/stm32f3xx_hal_can.c ****         hcan->ErrorCode |= HAL_CAN_ERROR_TIMEOUT;
 779:Drivers/STM32F3xx_HAL_Driver/Src/stm32f3xx_hal_can.c **** 
 780:Drivers/STM32F3xx_HAL_Driver/Src/stm32f3xx_hal_can.c ****         return HAL_ERROR;
 781:Drivers/STM32F3xx_HAL_Driver/Src/stm32f3xx_hal_can.c ****       }
 782:Drivers/STM32F3xx_HAL_Driver/Src/stm32f3xx_hal_can.c ****     }
 783:Drivers/STM32F3xx_HAL_Driver/Src/stm32f3xx_hal_can.c ****     while ((hcan->Instance->MSR & CAN_MSR_SLAK) != 0U);
 976              		.loc 1 783 17 view .LVU308
 977 002a 0368     		ldr	r3, [r0]
 978              		.loc 1 783 27 view .LVU309
 979 002c 5B68     		ldr	r3, [r3, #4]
 980              		.loc 1 783 5 view .LVU310
 981 002e 13F0020F 		tst	r3, #2
 982 0032 F3D1     		bne	.L84
 784:Drivers/STM32F3xx_HAL_Driver/Src/stm32f3xx_hal_can.c **** 
 785:Drivers/STM32F3xx_HAL_Driver/Src/stm32f3xx_hal_can.c ****     /* Return function status */
 786:Drivers/STM32F3xx_HAL_Driver/Src/stm32f3xx_hal_can.c ****     return HAL_OK;
 983              		.loc 1 786 12 view .LVU311
 984 0034 0020     		movs	r0, #0
 985              	.LVL56:
 986              		.loc 1 786 12 view .LVU312
 987 0036 0AE0     		b	.L83
 988              	.LVL57:
 989              	.L86:
 778:Drivers/STM32F3xx_HAL_Driver/Src/stm32f3xx_hal_can.c **** 
 990              		.loc 1 778 9 is_stmt 1 view .LVU313
 778:Drivers/STM32F3xx_HAL_Driver/Src/stm32f3xx_hal_can.c **** 
 991              		.loc 1 778 25 is_stmt 0 view .LVU314
 992 0038 436A     		ldr	r3, [r0, #36]
 993 003a 43F40033 		orr	r3, r3, #131072
ARM GAS  /tmp/ccTH4Y0M.s 			page 36


 994 003e 4362     		str	r3, [r0, #36]
 780:Drivers/STM32F3xx_HAL_Driver/Src/stm32f3xx_hal_can.c ****       }
 995              		.loc 1 780 9 is_stmt 1 view .LVU315
 780:Drivers/STM32F3xx_HAL_Driver/Src/stm32f3xx_hal_can.c ****       }
 996              		.loc 1 780 16 is_stmt 0 view .LVU316
 997 0040 0120     		movs	r0, #1
 998              	.LVL58:
 780:Drivers/STM32F3xx_HAL_Driver/Src/stm32f3xx_hal_can.c ****       }
 999              		.loc 1 780 16 view .LVU317
 1000 0042 04E0     		b	.L83
 1001              	.LVL59:
 1002              	.L81:
 787:Drivers/STM32F3xx_HAL_Driver/Src/stm32f3xx_hal_can.c ****   }
 788:Drivers/STM32F3xx_HAL_Driver/Src/stm32f3xx_hal_can.c ****   else
 789:Drivers/STM32F3xx_HAL_Driver/Src/stm32f3xx_hal_can.c ****   {
 790:Drivers/STM32F3xx_HAL_Driver/Src/stm32f3xx_hal_can.c ****     /* Update error code */
 791:Drivers/STM32F3xx_HAL_Driver/Src/stm32f3xx_hal_can.c ****     hcan->ErrorCode |= HAL_CAN_ERROR_NOT_INITIALIZED;
 1003              		.loc 1 791 5 is_stmt 1 view .LVU318
 1004              		.loc 1 791 21 is_stmt 0 view .LVU319
 1005 0044 436A     		ldr	r3, [r0, #36]
 1006 0046 43F48023 		orr	r3, r3, #262144
 1007 004a 4362     		str	r3, [r0, #36]
 792:Drivers/STM32F3xx_HAL_Driver/Src/stm32f3xx_hal_can.c **** 
 793:Drivers/STM32F3xx_HAL_Driver/Src/stm32f3xx_hal_can.c ****     return HAL_ERROR;
 1008              		.loc 1 793 5 is_stmt 1 view .LVU320
 1009              		.loc 1 793 12 is_stmt 0 view .LVU321
 1010 004c 0120     		movs	r0, #1
 1011              	.LVL60:
 1012              	.L83:
 794:Drivers/STM32F3xx_HAL_Driver/Src/stm32f3xx_hal_can.c ****   }
 795:Drivers/STM32F3xx_HAL_Driver/Src/stm32f3xx_hal_can.c **** }
 1013              		.loc 1 795 1 view .LVU322
 1014 004e 02B0     		add	sp, sp, #8
 1015              	.LCFI10:
 1016              		.cfi_def_cfa_offset 0
 1017              		@ sp needed
 1018 0050 7047     		bx	lr
 1019              	.L88:
 1020 0052 00BF     		.align	2
 1021              	.L87:
 1022 0054 40420F00 		.word	1000000
 1023              		.cfi_endproc
 1024              	.LFE134:
 1026              		.section	.text.HAL_CAN_IsSleepActive,"ax",%progbits
 1027              		.align	1
 1028              		.global	HAL_CAN_IsSleepActive
 1029              		.syntax unified
 1030              		.thumb
 1031              		.thumb_func
 1032              		.fpu fpv4-sp-d16
 1034              	HAL_CAN_IsSleepActive:
 1035              	.LVL61:
 1036              	.LFB135:
 796:Drivers/STM32F3xx_HAL_Driver/Src/stm32f3xx_hal_can.c **** 
 797:Drivers/STM32F3xx_HAL_Driver/Src/stm32f3xx_hal_can.c **** /**
 798:Drivers/STM32F3xx_HAL_Driver/Src/stm32f3xx_hal_can.c ****   * @brief  Check is sleep mode is active.
 799:Drivers/STM32F3xx_HAL_Driver/Src/stm32f3xx_hal_can.c ****   * @param  hcan pointer to a CAN_HandleTypeDef structure that contains
ARM GAS  /tmp/ccTH4Y0M.s 			page 37


 800:Drivers/STM32F3xx_HAL_Driver/Src/stm32f3xx_hal_can.c ****   *         the configuration information for the specified CAN.
 801:Drivers/STM32F3xx_HAL_Driver/Src/stm32f3xx_hal_can.c ****   * @retval Status
 802:Drivers/STM32F3xx_HAL_Driver/Src/stm32f3xx_hal_can.c ****   *          - 0 : Sleep mode is not active.
 803:Drivers/STM32F3xx_HAL_Driver/Src/stm32f3xx_hal_can.c ****   *          - 1 : Sleep mode is active.
 804:Drivers/STM32F3xx_HAL_Driver/Src/stm32f3xx_hal_can.c ****   */
 805:Drivers/STM32F3xx_HAL_Driver/Src/stm32f3xx_hal_can.c **** uint32_t HAL_CAN_IsSleepActive(CAN_HandleTypeDef *hcan)
 806:Drivers/STM32F3xx_HAL_Driver/Src/stm32f3xx_hal_can.c **** {
 1037              		.loc 1 806 1 is_stmt 1 view -0
 1038              		.cfi_startproc
 1039              		@ args = 0, pretend = 0, frame = 0
 1040              		@ frame_needed = 0, uses_anonymous_args = 0
 1041              		@ link register save eliminated.
 807:Drivers/STM32F3xx_HAL_Driver/Src/stm32f3xx_hal_can.c ****   uint32_t status = 0U;
 1042              		.loc 1 807 3 view .LVU324
 808:Drivers/STM32F3xx_HAL_Driver/Src/stm32f3xx_hal_can.c ****   HAL_CAN_StateTypeDef state = hcan->State;
 1043              		.loc 1 808 3 view .LVU325
 1044              		.loc 1 808 24 is_stmt 0 view .LVU326
 1045 0000 90F82030 		ldrb	r3, [r0, #32]	@ zero_extendqisi2
 1046              	.LVL62:
 809:Drivers/STM32F3xx_HAL_Driver/Src/stm32f3xx_hal_can.c **** 
 810:Drivers/STM32F3xx_HAL_Driver/Src/stm32f3xx_hal_can.c ****   if ((state == HAL_CAN_STATE_READY) ||
 1047              		.loc 1 810 3 is_stmt 1 view .LVU327
 1048              		.loc 1 810 38 is_stmt 0 view .LVU328
 1049 0004 013B     		subs	r3, r3, #1
 1050              	.LVL63:
 1051              		.loc 1 810 38 view .LVU329
 1052 0006 DBB2     		uxtb	r3, r3
 1053              		.loc 1 810 6 view .LVU330
 1054 0008 012B     		cmp	r3, #1
 1055 000a 01D9     		bls	.L93
 807:Drivers/STM32F3xx_HAL_Driver/Src/stm32f3xx_hal_can.c ****   HAL_CAN_StateTypeDef state = hcan->State;
 1056              		.loc 1 807 12 view .LVU331
 1057 000c 0020     		movs	r0, #0
 1058              	.LVL64:
 807:Drivers/STM32F3xx_HAL_Driver/Src/stm32f3xx_hal_can.c ****   HAL_CAN_StateTypeDef state = hcan->State;
 1059              		.loc 1 807 12 view .LVU332
 1060 000e 7047     		bx	lr
 1061              	.LVL65:
 1062              	.L93:
 811:Drivers/STM32F3xx_HAL_Driver/Src/stm32f3xx_hal_can.c ****       (state == HAL_CAN_STATE_LISTENING))
 812:Drivers/STM32F3xx_HAL_Driver/Src/stm32f3xx_hal_can.c ****   {
 813:Drivers/STM32F3xx_HAL_Driver/Src/stm32f3xx_hal_can.c ****     /* Check Sleep mode */
 814:Drivers/STM32F3xx_HAL_Driver/Src/stm32f3xx_hal_can.c ****     if ((hcan->Instance->MSR & CAN_MSR_SLAK) != 0U)
 1063              		.loc 1 814 5 is_stmt 1 view .LVU333
 1064              		.loc 1 814 14 is_stmt 0 view .LVU334
 1065 0010 0368     		ldr	r3, [r0]
 1066              		.loc 1 814 24 view .LVU335
 1067 0012 5B68     		ldr	r3, [r3, #4]
 1068              		.loc 1 814 8 view .LVU336
 1069 0014 13F0020F 		tst	r3, #2
 1070 0018 01D1     		bne	.L92
 807:Drivers/STM32F3xx_HAL_Driver/Src/stm32f3xx_hal_can.c ****   HAL_CAN_StateTypeDef state = hcan->State;
 1071              		.loc 1 807 12 view .LVU337
 1072 001a 0020     		movs	r0, #0
 1073              	.LVL66:
 807:Drivers/STM32F3xx_HAL_Driver/Src/stm32f3xx_hal_can.c ****   HAL_CAN_StateTypeDef state = hcan->State;
 1074              		.loc 1 807 12 view .LVU338
ARM GAS  /tmp/ccTH4Y0M.s 			page 38


 1075 001c 7047     		bx	lr
 1076              	.LVL67:
 1077              	.L92:
 815:Drivers/STM32F3xx_HAL_Driver/Src/stm32f3xx_hal_can.c ****     {
 816:Drivers/STM32F3xx_HAL_Driver/Src/stm32f3xx_hal_can.c ****       status = 1U;
 1078              		.loc 1 816 14 view .LVU339
 1079 001e 0120     		movs	r0, #1
 1080              	.LVL68:
 817:Drivers/STM32F3xx_HAL_Driver/Src/stm32f3xx_hal_can.c ****     }
 818:Drivers/STM32F3xx_HAL_Driver/Src/stm32f3xx_hal_can.c ****   }
 819:Drivers/STM32F3xx_HAL_Driver/Src/stm32f3xx_hal_can.c **** 
 820:Drivers/STM32F3xx_HAL_Driver/Src/stm32f3xx_hal_can.c ****   /* Return function status */
 821:Drivers/STM32F3xx_HAL_Driver/Src/stm32f3xx_hal_can.c ****   return status;
 1081              		.loc 1 821 3 is_stmt 1 view .LVU340
 822:Drivers/STM32F3xx_HAL_Driver/Src/stm32f3xx_hal_can.c **** }
 1082              		.loc 1 822 1 is_stmt 0 view .LVU341
 1083 0020 7047     		bx	lr
 1084              		.cfi_endproc
 1085              	.LFE135:
 1087              		.section	.text.HAL_CAN_AddTxMessage,"ax",%progbits
 1088              		.align	1
 1089              		.global	HAL_CAN_AddTxMessage
 1090              		.syntax unified
 1091              		.thumb
 1092              		.thumb_func
 1093              		.fpu fpv4-sp-d16
 1095              	HAL_CAN_AddTxMessage:
 1096              	.LVL69:
 1097              	.LFB136:
 823:Drivers/STM32F3xx_HAL_Driver/Src/stm32f3xx_hal_can.c **** 
 824:Drivers/STM32F3xx_HAL_Driver/Src/stm32f3xx_hal_can.c **** /**
 825:Drivers/STM32F3xx_HAL_Driver/Src/stm32f3xx_hal_can.c ****   * @brief  Add a message to the first free Tx mailbox and activate the
 826:Drivers/STM32F3xx_HAL_Driver/Src/stm32f3xx_hal_can.c ****   *         corresponding transmission request.
 827:Drivers/STM32F3xx_HAL_Driver/Src/stm32f3xx_hal_can.c ****   * @param  hcan pointer to a CAN_HandleTypeDef structure that contains
 828:Drivers/STM32F3xx_HAL_Driver/Src/stm32f3xx_hal_can.c ****   *         the configuration information for the specified CAN.
 829:Drivers/STM32F3xx_HAL_Driver/Src/stm32f3xx_hal_can.c ****   * @param  pHeader pointer to a CAN_TxHeaderTypeDef structure.
 830:Drivers/STM32F3xx_HAL_Driver/Src/stm32f3xx_hal_can.c ****   * @param  aData array containing the payload of the Tx frame.
 831:Drivers/STM32F3xx_HAL_Driver/Src/stm32f3xx_hal_can.c ****   * @param  pTxMailbox pointer to a variable where the function will return
 832:Drivers/STM32F3xx_HAL_Driver/Src/stm32f3xx_hal_can.c ****   *         the TxMailbox used to store the Tx message.
 833:Drivers/STM32F3xx_HAL_Driver/Src/stm32f3xx_hal_can.c ****   *         This parameter can be a value of @arg CAN_Tx_Mailboxes.
 834:Drivers/STM32F3xx_HAL_Driver/Src/stm32f3xx_hal_can.c ****   * @retval HAL status
 835:Drivers/STM32F3xx_HAL_Driver/Src/stm32f3xx_hal_can.c ****   */
 836:Drivers/STM32F3xx_HAL_Driver/Src/stm32f3xx_hal_can.c **** HAL_StatusTypeDef HAL_CAN_AddTxMessage(CAN_HandleTypeDef *hcan, CAN_TxHeaderTypeDef *pHeader, uint8
 837:Drivers/STM32F3xx_HAL_Driver/Src/stm32f3xx_hal_can.c **** {
 1098              		.loc 1 837 1 is_stmt 1 view -0
 1099              		.cfi_startproc
 1100              		@ args = 0, pretend = 0, frame = 0
 1101              		@ frame_needed = 0, uses_anonymous_args = 0
 1102              		@ link register save eliminated.
 1103              		.loc 1 837 1 is_stmt 0 view .LVU343
 1104 0000 70B4     		push	{r4, r5, r6}
 1105              	.LCFI11:
 1106              		.cfi_def_cfa_offset 12
 1107              		.cfi_offset 4, -12
 1108              		.cfi_offset 5, -8
 1109              		.cfi_offset 6, -4
 838:Drivers/STM32F3xx_HAL_Driver/Src/stm32f3xx_hal_can.c ****   uint32_t transmitmailbox;
ARM GAS  /tmp/ccTH4Y0M.s 			page 39


 1110              		.loc 1 838 3 is_stmt 1 view .LVU344
 839:Drivers/STM32F3xx_HAL_Driver/Src/stm32f3xx_hal_can.c ****   HAL_CAN_StateTypeDef state = hcan->State;
 1111              		.loc 1 839 3 view .LVU345
 1112              		.loc 1 839 24 is_stmt 0 view .LVU346
 1113 0002 90F82040 		ldrb	r4, [r0, #32]	@ zero_extendqisi2
 1114              	.LVL70:
 840:Drivers/STM32F3xx_HAL_Driver/Src/stm32f3xx_hal_can.c ****   uint32_t tsr = READ_REG(hcan->Instance->TSR);
 1115              		.loc 1 840 3 is_stmt 1 view .LVU347
 1116              		.loc 1 840 18 is_stmt 0 view .LVU348
 1117 0006 0568     		ldr	r5, [r0]
 1118              		.loc 1 840 12 view .LVU349
 1119 0008 AD68     		ldr	r5, [r5, #8]
 1120              	.LVL71:
 841:Drivers/STM32F3xx_HAL_Driver/Src/stm32f3xx_hal_can.c **** 
 842:Drivers/STM32F3xx_HAL_Driver/Src/stm32f3xx_hal_can.c ****   /* Check the parameters */
 843:Drivers/STM32F3xx_HAL_Driver/Src/stm32f3xx_hal_can.c ****   assert_param(IS_CAN_IDTYPE(pHeader->IDE));
 1121              		.loc 1 843 3 is_stmt 1 view .LVU350
 844:Drivers/STM32F3xx_HAL_Driver/Src/stm32f3xx_hal_can.c ****   assert_param(IS_CAN_RTR(pHeader->RTR));
 1122              		.loc 1 844 3 view .LVU351
 845:Drivers/STM32F3xx_HAL_Driver/Src/stm32f3xx_hal_can.c ****   assert_param(IS_CAN_DLC(pHeader->DLC));
 1123              		.loc 1 845 3 view .LVU352
 846:Drivers/STM32F3xx_HAL_Driver/Src/stm32f3xx_hal_can.c ****   if (pHeader->IDE == CAN_ID_STD)
 1124              		.loc 1 846 3 view .LVU353
 847:Drivers/STM32F3xx_HAL_Driver/Src/stm32f3xx_hal_can.c ****   {
 848:Drivers/STM32F3xx_HAL_Driver/Src/stm32f3xx_hal_can.c ****     assert_param(IS_CAN_STDID(pHeader->StdId));
 849:Drivers/STM32F3xx_HAL_Driver/Src/stm32f3xx_hal_can.c ****   }
 850:Drivers/STM32F3xx_HAL_Driver/Src/stm32f3xx_hal_can.c ****   else
 851:Drivers/STM32F3xx_HAL_Driver/Src/stm32f3xx_hal_can.c ****   {
 852:Drivers/STM32F3xx_HAL_Driver/Src/stm32f3xx_hal_can.c ****     assert_param(IS_CAN_EXTID(pHeader->ExtId));
 1125              		.loc 1 852 5 view .LVU354
 853:Drivers/STM32F3xx_HAL_Driver/Src/stm32f3xx_hal_can.c ****   }
 854:Drivers/STM32F3xx_HAL_Driver/Src/stm32f3xx_hal_can.c ****   assert_param(IS_FUNCTIONAL_STATE(pHeader->TransmitGlobalTime));
 1126              		.loc 1 854 3 view .LVU355
 855:Drivers/STM32F3xx_HAL_Driver/Src/stm32f3xx_hal_can.c **** 
 856:Drivers/STM32F3xx_HAL_Driver/Src/stm32f3xx_hal_can.c ****   if ((state == HAL_CAN_STATE_READY) ||
 1127              		.loc 1 856 3 view .LVU356
 1128              		.loc 1 856 38 is_stmt 0 view .LVU357
 1129 000a 013C     		subs	r4, r4, #1
 1130              	.LVL72:
 1131              		.loc 1 856 38 view .LVU358
 1132 000c E4B2     		uxtb	r4, r4
 1133              		.loc 1 856 6 view .LVU359
 1134 000e 012C     		cmp	r4, #1
 1135 0010 65D8     		bhi	.L95
 857:Drivers/STM32F3xx_HAL_Driver/Src/stm32f3xx_hal_can.c ****       (state == HAL_CAN_STATE_LISTENING))
 858:Drivers/STM32F3xx_HAL_Driver/Src/stm32f3xx_hal_can.c ****   {
 859:Drivers/STM32F3xx_HAL_Driver/Src/stm32f3xx_hal_can.c ****     /* Check that all the Tx mailboxes are not full */
 860:Drivers/STM32F3xx_HAL_Driver/Src/stm32f3xx_hal_can.c ****     if (((tsr & CAN_TSR_TME0) != 0U) ||
 1136              		.loc 1 860 5 is_stmt 1 view .LVU360
 1137              		.loc 1 860 8 is_stmt 0 view .LVU361
 1138 0012 15F0E05F 		tst	r5, #469762048
 1139 0016 5CD0     		beq	.L96
 861:Drivers/STM32F3xx_HAL_Driver/Src/stm32f3xx_hal_can.c ****         ((tsr & CAN_TSR_TME1) != 0U) ||
 862:Drivers/STM32F3xx_HAL_Driver/Src/stm32f3xx_hal_can.c ****         ((tsr & CAN_TSR_TME2) != 0U))
 863:Drivers/STM32F3xx_HAL_Driver/Src/stm32f3xx_hal_can.c ****     {
 864:Drivers/STM32F3xx_HAL_Driver/Src/stm32f3xx_hal_can.c ****       /* Select an empty transmit mailbox */
 865:Drivers/STM32F3xx_HAL_Driver/Src/stm32f3xx_hal_can.c ****       transmitmailbox = (tsr & CAN_TSR_CODE) >> CAN_TSR_CODE_Pos;
ARM GAS  /tmp/ccTH4Y0M.s 			page 40


 1140              		.loc 1 865 7 is_stmt 1 view .LVU362
 1141              		.loc 1 865 23 is_stmt 0 view .LVU363
 1142 0018 C5F30165 		ubfx	r5, r5, #24, #2
 1143              	.LVL73:
 866:Drivers/STM32F3xx_HAL_Driver/Src/stm32f3xx_hal_can.c **** 
 867:Drivers/STM32F3xx_HAL_Driver/Src/stm32f3xx_hal_can.c ****       /* Check transmit mailbox value */
 868:Drivers/STM32F3xx_HAL_Driver/Src/stm32f3xx_hal_can.c ****       if (transmitmailbox > 2U)
 1144              		.loc 1 868 7 is_stmt 1 view .LVU364
 1145              		.loc 1 868 10 is_stmt 0 view .LVU365
 1146 001c 022D     		cmp	r5, #2
 1147 001e 05D9     		bls	.L97
 869:Drivers/STM32F3xx_HAL_Driver/Src/stm32f3xx_hal_can.c ****       {
 870:Drivers/STM32F3xx_HAL_Driver/Src/stm32f3xx_hal_can.c ****         /* Update error code */
 871:Drivers/STM32F3xx_HAL_Driver/Src/stm32f3xx_hal_can.c ****         hcan->ErrorCode |= HAL_CAN_ERROR_INTERNAL;
 1148              		.loc 1 871 9 is_stmt 1 view .LVU366
 1149              		.loc 1 871 25 is_stmt 0 view .LVU367
 1150 0020 436A     		ldr	r3, [r0, #36]
 1151              	.LVL74:
 1152              		.loc 1 871 25 view .LVU368
 1153 0022 43F40003 		orr	r3, r3, #8388608
 1154 0026 4362     		str	r3, [r0, #36]
 872:Drivers/STM32F3xx_HAL_Driver/Src/stm32f3xx_hal_can.c **** 
 873:Drivers/STM32F3xx_HAL_Driver/Src/stm32f3xx_hal_can.c ****         return HAL_ERROR;
 1155              		.loc 1 873 9 is_stmt 1 view .LVU369
 1156              		.loc 1 873 16 is_stmt 0 view .LVU370
 1157 0028 0120     		movs	r0, #1
 1158              	.LVL75:
 1159              		.loc 1 873 16 view .LVU371
 1160 002a 5DE0     		b	.L98
 1161              	.LVL76:
 1162              	.L97:
 874:Drivers/STM32F3xx_HAL_Driver/Src/stm32f3xx_hal_can.c ****       }
 875:Drivers/STM32F3xx_HAL_Driver/Src/stm32f3xx_hal_can.c **** 
 876:Drivers/STM32F3xx_HAL_Driver/Src/stm32f3xx_hal_can.c ****       /* Store the Tx mailbox */
 877:Drivers/STM32F3xx_HAL_Driver/Src/stm32f3xx_hal_can.c ****       *pTxMailbox = (uint32_t)1 << transmitmailbox;
 1163              		.loc 1 877 7 is_stmt 1 view .LVU372
 1164              		.loc 1 877 33 is_stmt 0 view .LVU373
 1165 002c 0124     		movs	r4, #1
 1166 002e AC40     		lsls	r4, r4, r5
 1167              		.loc 1 877 19 view .LVU374
 1168 0030 1C60     		str	r4, [r3]
 878:Drivers/STM32F3xx_HAL_Driver/Src/stm32f3xx_hal_can.c **** 
 879:Drivers/STM32F3xx_HAL_Driver/Src/stm32f3xx_hal_can.c ****       /* Set up the Id */
 880:Drivers/STM32F3xx_HAL_Driver/Src/stm32f3xx_hal_can.c ****       if (pHeader->IDE == CAN_ID_STD)
 1169              		.loc 1 880 7 is_stmt 1 view .LVU375
 1170              		.loc 1 880 18 is_stmt 0 view .LVU376
 1171 0032 8B68     		ldr	r3, [r1, #8]
 1172              	.LVL77:
 1173              		.loc 1 880 10 view .LVU377
 1174 0034 002B     		cmp	r3, #0
 1175 0036 39D1     		bne	.L99
 881:Drivers/STM32F3xx_HAL_Driver/Src/stm32f3xx_hal_can.c ****       {
 882:Drivers/STM32F3xx_HAL_Driver/Src/stm32f3xx_hal_can.c ****         hcan->Instance->sTxMailBox[transmitmailbox].TIR = ((pHeader->StdId << CAN_TI0R_STID_Pos) |
 1176              		.loc 1 882 9 is_stmt 1 view .LVU378
 1177              		.loc 1 882 68 is_stmt 0 view .LVU379
 1178 0038 0E68     		ldr	r6, [r1]
 883:Drivers/STM32F3xx_HAL_Driver/Src/stm32f3xx_hal_can.c ****                                                            pHeader->RTR);
ARM GAS  /tmp/ccTH4Y0M.s 			page 41


 1179              		.loc 1 883 67 view .LVU380
 1180 003a CB68     		ldr	r3, [r1, #12]
 882:Drivers/STM32F3xx_HAL_Driver/Src/stm32f3xx_hal_can.c ****                                                            pHeader->RTR);
 1181              		.loc 1 882 13 view .LVU381
 1182 003c 0468     		ldr	r4, [r0]
 882:Drivers/STM32F3xx_HAL_Driver/Src/stm32f3xx_hal_can.c ****                                                            pHeader->RTR);
 1183              		.loc 1 882 98 view .LVU382
 1184 003e 43EA4656 		orr	r6, r3, r6, lsl #21
 882:Drivers/STM32F3xx_HAL_Driver/Src/stm32f3xx_hal_can.c ****                                                            pHeader->RTR);
 1185              		.loc 1 882 57 view .LVU383
 1186 0042 05F11803 		add	r3, r5, #24
 1187 0046 1B01     		lsls	r3, r3, #4
 1188 0048 E650     		str	r6, [r4, r3]
 1189              	.L100:
 884:Drivers/STM32F3xx_HAL_Driver/Src/stm32f3xx_hal_can.c ****       }
 885:Drivers/STM32F3xx_HAL_Driver/Src/stm32f3xx_hal_can.c ****       else
 886:Drivers/STM32F3xx_HAL_Driver/Src/stm32f3xx_hal_can.c ****       {
 887:Drivers/STM32F3xx_HAL_Driver/Src/stm32f3xx_hal_can.c ****         hcan->Instance->sTxMailBox[transmitmailbox].TIR = ((pHeader->ExtId << CAN_TI0R_EXID_Pos) |
 888:Drivers/STM32F3xx_HAL_Driver/Src/stm32f3xx_hal_can.c ****                                                            pHeader->IDE |
 889:Drivers/STM32F3xx_HAL_Driver/Src/stm32f3xx_hal_can.c ****                                                            pHeader->RTR);
 890:Drivers/STM32F3xx_HAL_Driver/Src/stm32f3xx_hal_can.c ****       }
 891:Drivers/STM32F3xx_HAL_Driver/Src/stm32f3xx_hal_can.c **** 
 892:Drivers/STM32F3xx_HAL_Driver/Src/stm32f3xx_hal_can.c ****       /* Set up the DLC */
 893:Drivers/STM32F3xx_HAL_Driver/Src/stm32f3xx_hal_can.c ****       hcan->Instance->sTxMailBox[transmitmailbox].TDTR = (pHeader->DLC);
 1190              		.loc 1 893 7 is_stmt 1 view .LVU384
 1191              		.loc 1 893 11 is_stmt 0 view .LVU385
 1192 004a 0368     		ldr	r3, [r0]
 1193              		.loc 1 893 66 view .LVU386
 1194 004c 0C69     		ldr	r4, [r1, #16]
 1195              		.loc 1 893 56 view .LVU387
 1196 004e 05F11806 		add	r6, r5, #24
 1197 0052 03EB0613 		add	r3, r3, r6, lsl #4
 1198 0056 5C60     		str	r4, [r3, #4]
 894:Drivers/STM32F3xx_HAL_Driver/Src/stm32f3xx_hal_can.c **** 
 895:Drivers/STM32F3xx_HAL_Driver/Src/stm32f3xx_hal_can.c ****       /* Set up the Transmit Global Time mode */
 896:Drivers/STM32F3xx_HAL_Driver/Src/stm32f3xx_hal_can.c ****       if (pHeader->TransmitGlobalTime == ENABLE)
 1199              		.loc 1 896 7 is_stmt 1 view .LVU388
 1200              		.loc 1 896 18 is_stmt 0 view .LVU389
 1201 0058 0B7D     		ldrb	r3, [r1, #20]	@ zero_extendqisi2
 1202              		.loc 1 896 10 view .LVU390
 1203 005a 012B     		cmp	r3, #1
 1204 005c 31D0     		beq	.L103
 1205              	.LVL78:
 1206              	.L101:
 897:Drivers/STM32F3xx_HAL_Driver/Src/stm32f3xx_hal_can.c ****       {
 898:Drivers/STM32F3xx_HAL_Driver/Src/stm32f3xx_hal_can.c ****         SET_BIT(hcan->Instance->sTxMailBox[transmitmailbox].TDTR, CAN_TDT0R_TGT);
 899:Drivers/STM32F3xx_HAL_Driver/Src/stm32f3xx_hal_can.c ****       }
 900:Drivers/STM32F3xx_HAL_Driver/Src/stm32f3xx_hal_can.c **** 
 901:Drivers/STM32F3xx_HAL_Driver/Src/stm32f3xx_hal_can.c ****       /* Set up the data field */
 902:Drivers/STM32F3xx_HAL_Driver/Src/stm32f3xx_hal_can.c ****       WRITE_REG(hcan->Instance->sTxMailBox[transmitmailbox].TDHR,
 1207              		.loc 1 902 7 is_stmt 1 view .LVU391
 1208 005e D179     		ldrb	r1, [r2, #7]	@ zero_extendqisi2
 1209 0060 9379     		ldrb	r3, [r2, #6]	@ zero_extendqisi2
 1210 0062 1B04     		lsls	r3, r3, #16
 1211 0064 43EA0163 		orr	r3, r3, r1, lsl #24
 1212 0068 5179     		ldrb	r1, [r2, #5]	@ zero_extendqisi2
 1213 006a 43EA0123 		orr	r3, r3, r1, lsl #8
ARM GAS  /tmp/ccTH4Y0M.s 			page 42


 1214 006e 1479     		ldrb	r4, [r2, #4]	@ zero_extendqisi2
 1215 0070 0168     		ldr	r1, [r0]
 1216 0072 2343     		orrs	r3, r3, r4
 1217 0074 2C01     		lsls	r4, r5, #4
 1218 0076 2144     		add	r1, r1, r4
 1219 0078 C1F88C31 		str	r3, [r1, #396]
 903:Drivers/STM32F3xx_HAL_Driver/Src/stm32f3xx_hal_can.c ****                 ((uint32_t)aData[7] << CAN_TDH0R_DATA7_Pos) |
 904:Drivers/STM32F3xx_HAL_Driver/Src/stm32f3xx_hal_can.c ****                 ((uint32_t)aData[6] << CAN_TDH0R_DATA6_Pos) |
 905:Drivers/STM32F3xx_HAL_Driver/Src/stm32f3xx_hal_can.c ****                 ((uint32_t)aData[5] << CAN_TDH0R_DATA5_Pos) |
 906:Drivers/STM32F3xx_HAL_Driver/Src/stm32f3xx_hal_can.c ****                 ((uint32_t)aData[4] << CAN_TDH0R_DATA4_Pos));
 907:Drivers/STM32F3xx_HAL_Driver/Src/stm32f3xx_hal_can.c ****       WRITE_REG(hcan->Instance->sTxMailBox[transmitmailbox].TDLR,
 1220              		.loc 1 907 7 view .LVU392
 1221 007c D178     		ldrb	r1, [r2, #3]	@ zero_extendqisi2
 1222 007e 9378     		ldrb	r3, [r2, #2]	@ zero_extendqisi2
 1223 0080 1B04     		lsls	r3, r3, #16
 1224 0082 43EA0163 		orr	r3, r3, r1, lsl #24
 1225 0086 5178     		ldrb	r1, [r2, #1]	@ zero_extendqisi2
 1226 0088 43EA0123 		orr	r3, r3, r1, lsl #8
 1227 008c 1178     		ldrb	r1, [r2]	@ zero_extendqisi2
 1228 008e 0268     		ldr	r2, [r0]
 1229              	.LVL79:
 1230              		.loc 1 907 7 is_stmt 0 view .LVU393
 1231 0090 0B43     		orrs	r3, r3, r1
 1232 0092 2244     		add	r2, r2, r4
 1233 0094 C2F88831 		str	r3, [r2, #392]
 908:Drivers/STM32F3xx_HAL_Driver/Src/stm32f3xx_hal_can.c ****                 ((uint32_t)aData[3] << CAN_TDL0R_DATA3_Pos) |
 909:Drivers/STM32F3xx_HAL_Driver/Src/stm32f3xx_hal_can.c ****                 ((uint32_t)aData[2] << CAN_TDL0R_DATA2_Pos) |
 910:Drivers/STM32F3xx_HAL_Driver/Src/stm32f3xx_hal_can.c ****                 ((uint32_t)aData[1] << CAN_TDL0R_DATA1_Pos) |
 911:Drivers/STM32F3xx_HAL_Driver/Src/stm32f3xx_hal_can.c ****                 ((uint32_t)aData[0] << CAN_TDL0R_DATA0_Pos));
 912:Drivers/STM32F3xx_HAL_Driver/Src/stm32f3xx_hal_can.c **** 
 913:Drivers/STM32F3xx_HAL_Driver/Src/stm32f3xx_hal_can.c ****       /* Request transmission */
 914:Drivers/STM32F3xx_HAL_Driver/Src/stm32f3xx_hal_can.c ****       SET_BIT(hcan->Instance->sTxMailBox[transmitmailbox].TIR, CAN_TI0R_TXRQ);
 1234              		.loc 1 914 7 is_stmt 1 view .LVU394
 1235 0098 0168     		ldr	r1, [r0]
 1236 009a 05F11803 		add	r3, r5, #24
 1237 009e 1B01     		lsls	r3, r3, #4
 1238 00a0 CA58     		ldr	r2, [r1, r3]
 1239 00a2 42F00102 		orr	r2, r2, #1
 1240 00a6 CA50     		str	r2, [r1, r3]
 915:Drivers/STM32F3xx_HAL_Driver/Src/stm32f3xx_hal_can.c **** 
 916:Drivers/STM32F3xx_HAL_Driver/Src/stm32f3xx_hal_can.c ****       /* Return function status */
 917:Drivers/STM32F3xx_HAL_Driver/Src/stm32f3xx_hal_can.c ****       return HAL_OK;
 1241              		.loc 1 917 7 view .LVU395
 1242              		.loc 1 917 14 is_stmt 0 view .LVU396
 1243 00a8 0020     		movs	r0, #0
 1244              	.LVL80:
 1245              		.loc 1 917 14 view .LVU397
 1246 00aa 1DE0     		b	.L98
 1247              	.LVL81:
 1248              	.L99:
 887:Drivers/STM32F3xx_HAL_Driver/Src/stm32f3xx_hal_can.c ****                                                            pHeader->IDE |
 1249              		.loc 1 887 9 is_stmt 1 view .LVU398
 887:Drivers/STM32F3xx_HAL_Driver/Src/stm32f3xx_hal_can.c ****                                                            pHeader->IDE |
 1250              		.loc 1 887 68 is_stmt 0 view .LVU399
 1251 00ac 4C68     		ldr	r4, [r1, #4]
 887:Drivers/STM32F3xx_HAL_Driver/Src/stm32f3xx_hal_can.c ****                                                            pHeader->IDE |
 1252              		.loc 1 887 98 view .LVU400
ARM GAS  /tmp/ccTH4Y0M.s 			page 43


 1253 00ae 43EAC403 		orr	r3, r3, r4, lsl #3
 889:Drivers/STM32F3xx_HAL_Driver/Src/stm32f3xx_hal_can.c ****       }
 1254              		.loc 1 889 67 view .LVU401
 1255 00b2 CC68     		ldr	r4, [r1, #12]
 887:Drivers/STM32F3xx_HAL_Driver/Src/stm32f3xx_hal_can.c ****                                                            pHeader->IDE |
 1256              		.loc 1 887 13 view .LVU402
 1257 00b4 0668     		ldr	r6, [r0]
 888:Drivers/STM32F3xx_HAL_Driver/Src/stm32f3xx_hal_can.c ****                                                            pHeader->RTR);
 1258              		.loc 1 888 73 view .LVU403
 1259 00b6 2343     		orrs	r3, r3, r4
 887:Drivers/STM32F3xx_HAL_Driver/Src/stm32f3xx_hal_can.c ****                                                            pHeader->IDE |
 1260              		.loc 1 887 57 view .LVU404
 1261 00b8 05F11804 		add	r4, r5, #24
 1262 00bc 2401     		lsls	r4, r4, #4
 1263 00be 3351     		str	r3, [r6, r4]
 1264 00c0 C3E7     		b	.L100
 1265              	.L103:
 898:Drivers/STM32F3xx_HAL_Driver/Src/stm32f3xx_hal_can.c ****       }
 1266              		.loc 1 898 9 is_stmt 1 view .LVU405
 1267 00c2 0368     		ldr	r3, [r0]
 1268 00c4 03EB0613 		add	r3, r3, r6, lsl #4
 1269 00c8 5968     		ldr	r1, [r3, #4]
 1270              	.LVL82:
 898:Drivers/STM32F3xx_HAL_Driver/Src/stm32f3xx_hal_can.c ****       }
 1271              		.loc 1 898 9 is_stmt 0 view .LVU406
 1272 00ca 41F48071 		orr	r1, r1, #256
 1273 00ce 5960     		str	r1, [r3, #4]
 1274 00d0 C5E7     		b	.L101
 1275              	.LVL83:
 1276              	.L96:
 918:Drivers/STM32F3xx_HAL_Driver/Src/stm32f3xx_hal_can.c ****     }
 919:Drivers/STM32F3xx_HAL_Driver/Src/stm32f3xx_hal_can.c ****     else
 920:Drivers/STM32F3xx_HAL_Driver/Src/stm32f3xx_hal_can.c ****     {
 921:Drivers/STM32F3xx_HAL_Driver/Src/stm32f3xx_hal_can.c ****       /* Update error code */
 922:Drivers/STM32F3xx_HAL_Driver/Src/stm32f3xx_hal_can.c ****       hcan->ErrorCode |= HAL_CAN_ERROR_PARAM;
 1277              		.loc 1 922 7 is_stmt 1 view .LVU407
 1278              		.loc 1 922 23 is_stmt 0 view .LVU408
 1279 00d2 436A     		ldr	r3, [r0, #36]
 1280              	.LVL84:
 1281              		.loc 1 922 23 view .LVU409
 1282 00d4 43F40013 		orr	r3, r3, #2097152
 1283 00d8 4362     		str	r3, [r0, #36]
 923:Drivers/STM32F3xx_HAL_Driver/Src/stm32f3xx_hal_can.c **** 
 924:Drivers/STM32F3xx_HAL_Driver/Src/stm32f3xx_hal_can.c ****       return HAL_ERROR;
 1284              		.loc 1 924 7 is_stmt 1 view .LVU410
 1285              		.loc 1 924 14 is_stmt 0 view .LVU411
 1286 00da 0120     		movs	r0, #1
 1287              	.LVL85:
 1288              		.loc 1 924 14 view .LVU412
 1289 00dc 04E0     		b	.L98
 1290              	.LVL86:
 1291              	.L95:
 925:Drivers/STM32F3xx_HAL_Driver/Src/stm32f3xx_hal_can.c ****     }
 926:Drivers/STM32F3xx_HAL_Driver/Src/stm32f3xx_hal_can.c ****   }
 927:Drivers/STM32F3xx_HAL_Driver/Src/stm32f3xx_hal_can.c ****   else
 928:Drivers/STM32F3xx_HAL_Driver/Src/stm32f3xx_hal_can.c ****   {
 929:Drivers/STM32F3xx_HAL_Driver/Src/stm32f3xx_hal_can.c ****     /* Update error code */
ARM GAS  /tmp/ccTH4Y0M.s 			page 44


 930:Drivers/STM32F3xx_HAL_Driver/Src/stm32f3xx_hal_can.c ****     hcan->ErrorCode |= HAL_CAN_ERROR_NOT_INITIALIZED;
 1292              		.loc 1 930 5 is_stmt 1 view .LVU413
 1293              		.loc 1 930 21 is_stmt 0 view .LVU414
 1294 00de 436A     		ldr	r3, [r0, #36]
 1295              	.LVL87:
 1296              		.loc 1 930 21 view .LVU415
 1297 00e0 43F48023 		orr	r3, r3, #262144
 1298 00e4 4362     		str	r3, [r0, #36]
 931:Drivers/STM32F3xx_HAL_Driver/Src/stm32f3xx_hal_can.c **** 
 932:Drivers/STM32F3xx_HAL_Driver/Src/stm32f3xx_hal_can.c ****     return HAL_ERROR;
 1299              		.loc 1 932 5 is_stmt 1 view .LVU416
 1300              		.loc 1 932 12 is_stmt 0 view .LVU417
 1301 00e6 0120     		movs	r0, #1
 1302              	.LVL88:
 1303              	.L98:
 933:Drivers/STM32F3xx_HAL_Driver/Src/stm32f3xx_hal_can.c ****   }
 934:Drivers/STM32F3xx_HAL_Driver/Src/stm32f3xx_hal_can.c **** }
 1304              		.loc 1 934 1 view .LVU418
 1305 00e8 70BC     		pop	{r4, r5, r6}
 1306              	.LCFI12:
 1307              		.cfi_restore 6
 1308              		.cfi_restore 5
 1309              		.cfi_restore 4
 1310              		.cfi_def_cfa_offset 0
 1311 00ea 7047     		bx	lr
 1312              		.cfi_endproc
 1313              	.LFE136:
 1315              		.section	.text.HAL_CAN_AbortTxRequest,"ax",%progbits
 1316              		.align	1
 1317              		.global	HAL_CAN_AbortTxRequest
 1318              		.syntax unified
 1319              		.thumb
 1320              		.thumb_func
 1321              		.fpu fpv4-sp-d16
 1323              	HAL_CAN_AbortTxRequest:
 1324              	.LVL89:
 1325              	.LFB137:
 935:Drivers/STM32F3xx_HAL_Driver/Src/stm32f3xx_hal_can.c **** 
 936:Drivers/STM32F3xx_HAL_Driver/Src/stm32f3xx_hal_can.c **** /**
 937:Drivers/STM32F3xx_HAL_Driver/Src/stm32f3xx_hal_can.c ****   * @brief  Abort transmission requests
 938:Drivers/STM32F3xx_HAL_Driver/Src/stm32f3xx_hal_can.c ****   * @param  hcan pointer to an CAN_HandleTypeDef structure that contains
 939:Drivers/STM32F3xx_HAL_Driver/Src/stm32f3xx_hal_can.c ****   *         the configuration information for the specified CAN.
 940:Drivers/STM32F3xx_HAL_Driver/Src/stm32f3xx_hal_can.c ****   * @param  TxMailboxes List of the Tx Mailboxes to abort.
 941:Drivers/STM32F3xx_HAL_Driver/Src/stm32f3xx_hal_can.c ****   *         This parameter can be any combination of @arg CAN_Tx_Mailboxes.
 942:Drivers/STM32F3xx_HAL_Driver/Src/stm32f3xx_hal_can.c ****   * @retval HAL status
 943:Drivers/STM32F3xx_HAL_Driver/Src/stm32f3xx_hal_can.c ****   */
 944:Drivers/STM32F3xx_HAL_Driver/Src/stm32f3xx_hal_can.c **** HAL_StatusTypeDef HAL_CAN_AbortTxRequest(CAN_HandleTypeDef *hcan, uint32_t TxMailboxes)
 945:Drivers/STM32F3xx_HAL_Driver/Src/stm32f3xx_hal_can.c **** {
 1326              		.loc 1 945 1 is_stmt 1 view -0
 1327              		.cfi_startproc
 1328              		@ args = 0, pretend = 0, frame = 0
 1329              		@ frame_needed = 0, uses_anonymous_args = 0
 1330              		@ link register save eliminated.
 946:Drivers/STM32F3xx_HAL_Driver/Src/stm32f3xx_hal_can.c ****   HAL_CAN_StateTypeDef state = hcan->State;
 1331              		.loc 1 946 3 view .LVU420
 1332              		.loc 1 946 24 is_stmt 0 view .LVU421
 1333 0000 90F82030 		ldrb	r3, [r0, #32]	@ zero_extendqisi2
ARM GAS  /tmp/ccTH4Y0M.s 			page 45


 1334              	.LVL90:
 947:Drivers/STM32F3xx_HAL_Driver/Src/stm32f3xx_hal_can.c **** 
 948:Drivers/STM32F3xx_HAL_Driver/Src/stm32f3xx_hal_can.c ****   /* Check function parameters */
 949:Drivers/STM32F3xx_HAL_Driver/Src/stm32f3xx_hal_can.c ****   assert_param(IS_CAN_TX_MAILBOX_LIST(TxMailboxes));
 1335              		.loc 1 949 3 is_stmt 1 view .LVU422
 950:Drivers/STM32F3xx_HAL_Driver/Src/stm32f3xx_hal_can.c **** 
 951:Drivers/STM32F3xx_HAL_Driver/Src/stm32f3xx_hal_can.c ****   if ((state == HAL_CAN_STATE_READY) ||
 1336              		.loc 1 951 3 view .LVU423
 1337              		.loc 1 951 38 is_stmt 0 view .LVU424
 1338 0004 013B     		subs	r3, r3, #1
 1339              	.LVL91:
 1340              		.loc 1 951 38 view .LVU425
 1341 0006 DBB2     		uxtb	r3, r3
 1342              		.loc 1 951 6 view .LVU426
 1343 0008 012B     		cmp	r3, #1
 1344 000a 05D9     		bls	.L110
 952:Drivers/STM32F3xx_HAL_Driver/Src/stm32f3xx_hal_can.c ****       (state == HAL_CAN_STATE_LISTENING))
 953:Drivers/STM32F3xx_HAL_Driver/Src/stm32f3xx_hal_can.c ****   {
 954:Drivers/STM32F3xx_HAL_Driver/Src/stm32f3xx_hal_can.c ****     /* Check Tx Mailbox 0 */
 955:Drivers/STM32F3xx_HAL_Driver/Src/stm32f3xx_hal_can.c ****     if ((TxMailboxes & CAN_TX_MAILBOX0) != 0U)
 956:Drivers/STM32F3xx_HAL_Driver/Src/stm32f3xx_hal_can.c ****     {
 957:Drivers/STM32F3xx_HAL_Driver/Src/stm32f3xx_hal_can.c ****       /* Add cancellation request for Tx Mailbox 0 */
 958:Drivers/STM32F3xx_HAL_Driver/Src/stm32f3xx_hal_can.c ****       SET_BIT(hcan->Instance->TSR, CAN_TSR_ABRQ0);
 959:Drivers/STM32F3xx_HAL_Driver/Src/stm32f3xx_hal_can.c ****     }
 960:Drivers/STM32F3xx_HAL_Driver/Src/stm32f3xx_hal_can.c **** 
 961:Drivers/STM32F3xx_HAL_Driver/Src/stm32f3xx_hal_can.c ****     /* Check Tx Mailbox 1 */
 962:Drivers/STM32F3xx_HAL_Driver/Src/stm32f3xx_hal_can.c ****     if ((TxMailboxes & CAN_TX_MAILBOX1) != 0U)
 963:Drivers/STM32F3xx_HAL_Driver/Src/stm32f3xx_hal_can.c ****     {
 964:Drivers/STM32F3xx_HAL_Driver/Src/stm32f3xx_hal_can.c ****       /* Add cancellation request for Tx Mailbox 1 */
 965:Drivers/STM32F3xx_HAL_Driver/Src/stm32f3xx_hal_can.c ****       SET_BIT(hcan->Instance->TSR, CAN_TSR_ABRQ1);
 966:Drivers/STM32F3xx_HAL_Driver/Src/stm32f3xx_hal_can.c ****     }
 967:Drivers/STM32F3xx_HAL_Driver/Src/stm32f3xx_hal_can.c **** 
 968:Drivers/STM32F3xx_HAL_Driver/Src/stm32f3xx_hal_can.c ****     /* Check Tx Mailbox 2 */
 969:Drivers/STM32F3xx_HAL_Driver/Src/stm32f3xx_hal_can.c ****     if ((TxMailboxes & CAN_TX_MAILBOX2) != 0U)
 970:Drivers/STM32F3xx_HAL_Driver/Src/stm32f3xx_hal_can.c ****     {
 971:Drivers/STM32F3xx_HAL_Driver/Src/stm32f3xx_hal_can.c ****       /* Add cancellation request for Tx Mailbox 2 */
 972:Drivers/STM32F3xx_HAL_Driver/Src/stm32f3xx_hal_can.c ****       SET_BIT(hcan->Instance->TSR, CAN_TSR_ABRQ2);
 973:Drivers/STM32F3xx_HAL_Driver/Src/stm32f3xx_hal_can.c ****     }
 974:Drivers/STM32F3xx_HAL_Driver/Src/stm32f3xx_hal_can.c **** 
 975:Drivers/STM32F3xx_HAL_Driver/Src/stm32f3xx_hal_can.c ****     /* Return function status */
 976:Drivers/STM32F3xx_HAL_Driver/Src/stm32f3xx_hal_can.c ****     return HAL_OK;
 977:Drivers/STM32F3xx_HAL_Driver/Src/stm32f3xx_hal_can.c ****   }
 978:Drivers/STM32F3xx_HAL_Driver/Src/stm32f3xx_hal_can.c ****   else
 979:Drivers/STM32F3xx_HAL_Driver/Src/stm32f3xx_hal_can.c ****   {
 980:Drivers/STM32F3xx_HAL_Driver/Src/stm32f3xx_hal_can.c ****     /* Update error code */
 981:Drivers/STM32F3xx_HAL_Driver/Src/stm32f3xx_hal_can.c ****     hcan->ErrorCode |= HAL_CAN_ERROR_NOT_INITIALIZED;
 1345              		.loc 1 981 5 is_stmt 1 view .LVU427
 1346              		.loc 1 981 21 is_stmt 0 view .LVU428
 1347 000c 436A     		ldr	r3, [r0, #36]
 1348 000e 43F48023 		orr	r3, r3, #262144
 1349 0012 4362     		str	r3, [r0, #36]
 982:Drivers/STM32F3xx_HAL_Driver/Src/stm32f3xx_hal_can.c **** 
 983:Drivers/STM32F3xx_HAL_Driver/Src/stm32f3xx_hal_can.c ****     return HAL_ERROR;
 1350              		.loc 1 983 5 is_stmt 1 view .LVU429
 1351              		.loc 1 983 12 is_stmt 0 view .LVU430
 1352 0014 0120     		movs	r0, #1
 1353              	.LVL92:
ARM GAS  /tmp/ccTH4Y0M.s 			page 46


 984:Drivers/STM32F3xx_HAL_Driver/Src/stm32f3xx_hal_can.c ****   }
 985:Drivers/STM32F3xx_HAL_Driver/Src/stm32f3xx_hal_can.c **** }
 1354              		.loc 1 985 1 view .LVU431
 1355 0016 7047     		bx	lr
 1356              	.LVL93:
 1357              	.L110:
 955:Drivers/STM32F3xx_HAL_Driver/Src/stm32f3xx_hal_can.c ****     {
 1358              		.loc 1 955 5 is_stmt 1 view .LVU432
 955:Drivers/STM32F3xx_HAL_Driver/Src/stm32f3xx_hal_can.c ****     {
 1359              		.loc 1 955 8 is_stmt 0 view .LVU433
 1360 0018 11F0010F 		tst	r1, #1
 1361 001c 04D0     		beq	.L106
 958:Drivers/STM32F3xx_HAL_Driver/Src/stm32f3xx_hal_can.c ****     }
 1362              		.loc 1 958 7 is_stmt 1 view .LVU434
 1363 001e 0268     		ldr	r2, [r0]
 1364 0020 9368     		ldr	r3, [r2, #8]
 1365 0022 43F08003 		orr	r3, r3, #128
 1366 0026 9360     		str	r3, [r2, #8]
 1367              	.L106:
 962:Drivers/STM32F3xx_HAL_Driver/Src/stm32f3xx_hal_can.c ****     {
 1368              		.loc 1 962 5 view .LVU435
 962:Drivers/STM32F3xx_HAL_Driver/Src/stm32f3xx_hal_can.c ****     {
 1369              		.loc 1 962 8 is_stmt 0 view .LVU436
 1370 0028 11F0020F 		tst	r1, #2
 1371 002c 04D0     		beq	.L107
 965:Drivers/STM32F3xx_HAL_Driver/Src/stm32f3xx_hal_can.c ****     }
 1372              		.loc 1 965 7 is_stmt 1 view .LVU437
 1373 002e 0268     		ldr	r2, [r0]
 1374 0030 9368     		ldr	r3, [r2, #8]
 1375 0032 43F40043 		orr	r3, r3, #32768
 1376 0036 9360     		str	r3, [r2, #8]
 1377              	.L107:
 969:Drivers/STM32F3xx_HAL_Driver/Src/stm32f3xx_hal_can.c ****     {
 1378              		.loc 1 969 5 view .LVU438
 969:Drivers/STM32F3xx_HAL_Driver/Src/stm32f3xx_hal_can.c ****     {
 1379              		.loc 1 969 8 is_stmt 0 view .LVU439
 1380 0038 11F0040F 		tst	r1, #4
 1381 003c 04D0     		beq	.L108
 972:Drivers/STM32F3xx_HAL_Driver/Src/stm32f3xx_hal_can.c ****     }
 1382              		.loc 1 972 7 is_stmt 1 view .LVU440
 1383 003e 0268     		ldr	r2, [r0]
 1384 0040 9368     		ldr	r3, [r2, #8]
 1385 0042 43F40003 		orr	r3, r3, #8388608
 1386 0046 9360     		str	r3, [r2, #8]
 1387              	.L108:
 976:Drivers/STM32F3xx_HAL_Driver/Src/stm32f3xx_hal_can.c ****   }
 1388              		.loc 1 976 5 view .LVU441
 976:Drivers/STM32F3xx_HAL_Driver/Src/stm32f3xx_hal_can.c ****   }
 1389              		.loc 1 976 12 is_stmt 0 view .LVU442
 1390 0048 0020     		movs	r0, #0
 1391              	.LVL94:
 976:Drivers/STM32F3xx_HAL_Driver/Src/stm32f3xx_hal_can.c ****   }
 1392              		.loc 1 976 12 view .LVU443
 1393 004a 7047     		bx	lr
 1394              		.cfi_endproc
 1395              	.LFE137:
 1397              		.section	.text.HAL_CAN_GetTxMailboxesFreeLevel,"ax",%progbits
ARM GAS  /tmp/ccTH4Y0M.s 			page 47


 1398              		.align	1
 1399              		.global	HAL_CAN_GetTxMailboxesFreeLevel
 1400              		.syntax unified
 1401              		.thumb
 1402              		.thumb_func
 1403              		.fpu fpv4-sp-d16
 1405              	HAL_CAN_GetTxMailboxesFreeLevel:
 1406              	.LVL95:
 1407              	.LFB138:
 986:Drivers/STM32F3xx_HAL_Driver/Src/stm32f3xx_hal_can.c **** 
 987:Drivers/STM32F3xx_HAL_Driver/Src/stm32f3xx_hal_can.c **** /**
 988:Drivers/STM32F3xx_HAL_Driver/Src/stm32f3xx_hal_can.c ****   * @brief  Return Tx Mailboxes free level: number of free Tx Mailboxes.
 989:Drivers/STM32F3xx_HAL_Driver/Src/stm32f3xx_hal_can.c ****   * @param  hcan pointer to a CAN_HandleTypeDef structure that contains
 990:Drivers/STM32F3xx_HAL_Driver/Src/stm32f3xx_hal_can.c ****   *         the configuration information for the specified CAN.
 991:Drivers/STM32F3xx_HAL_Driver/Src/stm32f3xx_hal_can.c ****   * @retval Number of free Tx Mailboxes.
 992:Drivers/STM32F3xx_HAL_Driver/Src/stm32f3xx_hal_can.c ****   */
 993:Drivers/STM32F3xx_HAL_Driver/Src/stm32f3xx_hal_can.c **** uint32_t HAL_CAN_GetTxMailboxesFreeLevel(CAN_HandleTypeDef *hcan)
 994:Drivers/STM32F3xx_HAL_Driver/Src/stm32f3xx_hal_can.c **** {
 1408              		.loc 1 994 1 is_stmt 1 view -0
 1409              		.cfi_startproc
 1410              		@ args = 0, pretend = 0, frame = 0
 1411              		@ frame_needed = 0, uses_anonymous_args = 0
 1412              		@ link register save eliminated.
 995:Drivers/STM32F3xx_HAL_Driver/Src/stm32f3xx_hal_can.c ****   uint32_t freelevel = 0U;
 1413              		.loc 1 995 3 view .LVU445
 996:Drivers/STM32F3xx_HAL_Driver/Src/stm32f3xx_hal_can.c ****   HAL_CAN_StateTypeDef state = hcan->State;
 1414              		.loc 1 996 3 view .LVU446
 1415              		.loc 1 996 24 is_stmt 0 view .LVU447
 1416 0000 90F82030 		ldrb	r3, [r0, #32]	@ zero_extendqisi2
 1417              	.LVL96:
 997:Drivers/STM32F3xx_HAL_Driver/Src/stm32f3xx_hal_can.c **** 
 998:Drivers/STM32F3xx_HAL_Driver/Src/stm32f3xx_hal_can.c ****   if ((state == HAL_CAN_STATE_READY) ||
 1418              		.loc 1 998 3 is_stmt 1 view .LVU448
 1419              		.loc 1 998 38 is_stmt 0 view .LVU449
 1420 0004 013B     		subs	r3, r3, #1
 1421              	.LVL97:
 1422              		.loc 1 998 38 view .LVU450
 1423 0006 DBB2     		uxtb	r3, r3
 1424              		.loc 1 998 6 view .LVU451
 1425 0008 012B     		cmp	r3, #1
 1426 000a 01D9     		bls	.L117
 995:Drivers/STM32F3xx_HAL_Driver/Src/stm32f3xx_hal_can.c ****   HAL_CAN_StateTypeDef state = hcan->State;
 1427              		.loc 1 995 12 view .LVU452
 1428 000c 0020     		movs	r0, #0
 1429              	.LVL98:
 999:Drivers/STM32F3xx_HAL_Driver/Src/stm32f3xx_hal_can.c ****       (state == HAL_CAN_STATE_LISTENING))
1000:Drivers/STM32F3xx_HAL_Driver/Src/stm32f3xx_hal_can.c ****   {
1001:Drivers/STM32F3xx_HAL_Driver/Src/stm32f3xx_hal_can.c ****     /* Check Tx Mailbox 0 status */
1002:Drivers/STM32F3xx_HAL_Driver/Src/stm32f3xx_hal_can.c ****     if ((hcan->Instance->TSR & CAN_TSR_TME0) != 0U)
1003:Drivers/STM32F3xx_HAL_Driver/Src/stm32f3xx_hal_can.c ****     {
1004:Drivers/STM32F3xx_HAL_Driver/Src/stm32f3xx_hal_can.c ****       freelevel++;
1005:Drivers/STM32F3xx_HAL_Driver/Src/stm32f3xx_hal_can.c ****     }
1006:Drivers/STM32F3xx_HAL_Driver/Src/stm32f3xx_hal_can.c **** 
1007:Drivers/STM32F3xx_HAL_Driver/Src/stm32f3xx_hal_can.c ****     /* Check Tx Mailbox 1 status */
1008:Drivers/STM32F3xx_HAL_Driver/Src/stm32f3xx_hal_can.c ****     if ((hcan->Instance->TSR & CAN_TSR_TME1) != 0U)
1009:Drivers/STM32F3xx_HAL_Driver/Src/stm32f3xx_hal_can.c ****     {
1010:Drivers/STM32F3xx_HAL_Driver/Src/stm32f3xx_hal_can.c ****       freelevel++;
ARM GAS  /tmp/ccTH4Y0M.s 			page 48


1011:Drivers/STM32F3xx_HAL_Driver/Src/stm32f3xx_hal_can.c ****     }
1012:Drivers/STM32F3xx_HAL_Driver/Src/stm32f3xx_hal_can.c **** 
1013:Drivers/STM32F3xx_HAL_Driver/Src/stm32f3xx_hal_can.c ****     /* Check Tx Mailbox 2 status */
1014:Drivers/STM32F3xx_HAL_Driver/Src/stm32f3xx_hal_can.c ****     if ((hcan->Instance->TSR & CAN_TSR_TME2) != 0U)
1015:Drivers/STM32F3xx_HAL_Driver/Src/stm32f3xx_hal_can.c ****     {
1016:Drivers/STM32F3xx_HAL_Driver/Src/stm32f3xx_hal_can.c ****       freelevel++;
1017:Drivers/STM32F3xx_HAL_Driver/Src/stm32f3xx_hal_can.c ****     }
1018:Drivers/STM32F3xx_HAL_Driver/Src/stm32f3xx_hal_can.c ****   }
1019:Drivers/STM32F3xx_HAL_Driver/Src/stm32f3xx_hal_can.c **** 
1020:Drivers/STM32F3xx_HAL_Driver/Src/stm32f3xx_hal_can.c ****   /* Return Tx Mailboxes free level */
1021:Drivers/STM32F3xx_HAL_Driver/Src/stm32f3xx_hal_can.c ****   return freelevel;
 1430              		.loc 1 1021 3 is_stmt 1 view .LVU453
 1431              	.L111:
1022:Drivers/STM32F3xx_HAL_Driver/Src/stm32f3xx_hal_can.c **** }
 1432              		.loc 1 1022 1 is_stmt 0 view .LVU454
 1433 000e 7047     		bx	lr
 1434              	.LVL99:
 1435              	.L117:
1002:Drivers/STM32F3xx_HAL_Driver/Src/stm32f3xx_hal_can.c ****     {
 1436              		.loc 1 1002 5 is_stmt 1 view .LVU455
1002:Drivers/STM32F3xx_HAL_Driver/Src/stm32f3xx_hal_can.c ****     {
 1437              		.loc 1 1002 14 is_stmt 0 view .LVU456
 1438 0010 0368     		ldr	r3, [r0]
1002:Drivers/STM32F3xx_HAL_Driver/Src/stm32f3xx_hal_can.c ****     {
 1439              		.loc 1 1002 24 view .LVU457
 1440 0012 9A68     		ldr	r2, [r3, #8]
1002:Drivers/STM32F3xx_HAL_Driver/Src/stm32f3xx_hal_can.c ****     {
 1441              		.loc 1 1002 8 view .LVU458
 1442 0014 12F0806F 		tst	r2, #67108864
 1443 0018 0BD1     		bne	.L116
 995:Drivers/STM32F3xx_HAL_Driver/Src/stm32f3xx_hal_can.c ****   HAL_CAN_StateTypeDef state = hcan->State;
 1444              		.loc 1 995 12 view .LVU459
 1445 001a 0020     		movs	r0, #0
 1446              	.LVL100:
 1447              	.L113:
1008:Drivers/STM32F3xx_HAL_Driver/Src/stm32f3xx_hal_can.c ****     {
 1448              		.loc 1 1008 5 is_stmt 1 view .LVU460
1008:Drivers/STM32F3xx_HAL_Driver/Src/stm32f3xx_hal_can.c ****     {
 1449              		.loc 1 1008 24 is_stmt 0 view .LVU461
 1450 001c 9A68     		ldr	r2, [r3, #8]
1008:Drivers/STM32F3xx_HAL_Driver/Src/stm32f3xx_hal_can.c ****     {
 1451              		.loc 1 1008 8 view .LVU462
 1452 001e 12F0006F 		tst	r2, #134217728
 1453 0022 00D0     		beq	.L114
1010:Drivers/STM32F3xx_HAL_Driver/Src/stm32f3xx_hal_can.c ****     }
 1454              		.loc 1 1010 7 is_stmt 1 view .LVU463
1010:Drivers/STM32F3xx_HAL_Driver/Src/stm32f3xx_hal_can.c ****     }
 1455              		.loc 1 1010 16 is_stmt 0 view .LVU464
 1456 0024 0130     		adds	r0, r0, #1
 1457              	.LVL101:
 1458              	.L114:
1014:Drivers/STM32F3xx_HAL_Driver/Src/stm32f3xx_hal_can.c ****     {
 1459              		.loc 1 1014 5 is_stmt 1 view .LVU465
1014:Drivers/STM32F3xx_HAL_Driver/Src/stm32f3xx_hal_can.c ****     {
 1460              		.loc 1 1014 24 is_stmt 0 view .LVU466
 1461 0026 9B68     		ldr	r3, [r3, #8]
1014:Drivers/STM32F3xx_HAL_Driver/Src/stm32f3xx_hal_can.c ****     {
ARM GAS  /tmp/ccTH4Y0M.s 			page 49


 1462              		.loc 1 1014 8 view .LVU467
 1463 0028 13F0805F 		tst	r3, #268435456
 1464 002c EFD0     		beq	.L111
1016:Drivers/STM32F3xx_HAL_Driver/Src/stm32f3xx_hal_can.c ****     }
 1465              		.loc 1 1016 7 is_stmt 1 view .LVU468
1016:Drivers/STM32F3xx_HAL_Driver/Src/stm32f3xx_hal_can.c ****     }
 1466              		.loc 1 1016 16 is_stmt 0 view .LVU469
 1467 002e 0130     		adds	r0, r0, #1
 1468              	.LVL102:
1016:Drivers/STM32F3xx_HAL_Driver/Src/stm32f3xx_hal_can.c ****     }
 1469              		.loc 1 1016 16 view .LVU470
 1470 0030 7047     		bx	lr
 1471              	.LVL103:
 1472              	.L116:
1004:Drivers/STM32F3xx_HAL_Driver/Src/stm32f3xx_hal_can.c ****     }
 1473              		.loc 1 1004 16 view .LVU471
 1474 0032 0120     		movs	r0, #1
 1475              	.LVL104:
1004:Drivers/STM32F3xx_HAL_Driver/Src/stm32f3xx_hal_can.c ****     }
 1476              		.loc 1 1004 16 view .LVU472
 1477 0034 F2E7     		b	.L113
 1478              		.cfi_endproc
 1479              	.LFE138:
 1481              		.section	.text.HAL_CAN_IsTxMessagePending,"ax",%progbits
 1482              		.align	1
 1483              		.global	HAL_CAN_IsTxMessagePending
 1484              		.syntax unified
 1485              		.thumb
 1486              		.thumb_func
 1487              		.fpu fpv4-sp-d16
 1489              	HAL_CAN_IsTxMessagePending:
 1490              	.LVL105:
 1491              	.LFB139:
1023:Drivers/STM32F3xx_HAL_Driver/Src/stm32f3xx_hal_can.c **** 
1024:Drivers/STM32F3xx_HAL_Driver/Src/stm32f3xx_hal_can.c **** /**
1025:Drivers/STM32F3xx_HAL_Driver/Src/stm32f3xx_hal_can.c ****   * @brief  Check if a transmission request is pending on the selected Tx
1026:Drivers/STM32F3xx_HAL_Driver/Src/stm32f3xx_hal_can.c ****   *         Mailboxes.
1027:Drivers/STM32F3xx_HAL_Driver/Src/stm32f3xx_hal_can.c ****   * @param  hcan pointer to an CAN_HandleTypeDef structure that contains
1028:Drivers/STM32F3xx_HAL_Driver/Src/stm32f3xx_hal_can.c ****   *         the configuration information for the specified CAN.
1029:Drivers/STM32F3xx_HAL_Driver/Src/stm32f3xx_hal_can.c ****   * @param  TxMailboxes List of Tx Mailboxes to check.
1030:Drivers/STM32F3xx_HAL_Driver/Src/stm32f3xx_hal_can.c ****   *         This parameter can be any combination of @arg CAN_Tx_Mailboxes.
1031:Drivers/STM32F3xx_HAL_Driver/Src/stm32f3xx_hal_can.c ****   * @retval Status
1032:Drivers/STM32F3xx_HAL_Driver/Src/stm32f3xx_hal_can.c ****   *          - 0 : No pending transmission request on any selected Tx Mailboxes.
1033:Drivers/STM32F3xx_HAL_Driver/Src/stm32f3xx_hal_can.c ****   *          - 1 : Pending transmission request on at least one of the selected
1034:Drivers/STM32F3xx_HAL_Driver/Src/stm32f3xx_hal_can.c ****   *                Tx Mailbox.
1035:Drivers/STM32F3xx_HAL_Driver/Src/stm32f3xx_hal_can.c ****   */
1036:Drivers/STM32F3xx_HAL_Driver/Src/stm32f3xx_hal_can.c **** uint32_t HAL_CAN_IsTxMessagePending(CAN_HandleTypeDef *hcan, uint32_t TxMailboxes)
1037:Drivers/STM32F3xx_HAL_Driver/Src/stm32f3xx_hal_can.c **** {
 1492              		.loc 1 1037 1 is_stmt 1 view -0
 1493              		.cfi_startproc
 1494              		@ args = 0, pretend = 0, frame = 0
 1495              		@ frame_needed = 0, uses_anonymous_args = 0
 1496              		@ link register save eliminated.
1038:Drivers/STM32F3xx_HAL_Driver/Src/stm32f3xx_hal_can.c ****   uint32_t status = 0U;
 1497              		.loc 1 1038 3 view .LVU474
1039:Drivers/STM32F3xx_HAL_Driver/Src/stm32f3xx_hal_can.c ****   HAL_CAN_StateTypeDef state = hcan->State;
 1498              		.loc 1 1039 3 view .LVU475
ARM GAS  /tmp/ccTH4Y0M.s 			page 50


 1499              		.loc 1 1039 24 is_stmt 0 view .LVU476
 1500 0000 90F82030 		ldrb	r3, [r0, #32]	@ zero_extendqisi2
 1501              	.LVL106:
1040:Drivers/STM32F3xx_HAL_Driver/Src/stm32f3xx_hal_can.c **** 
1041:Drivers/STM32F3xx_HAL_Driver/Src/stm32f3xx_hal_can.c ****   /* Check function parameters */
1042:Drivers/STM32F3xx_HAL_Driver/Src/stm32f3xx_hal_can.c ****   assert_param(IS_CAN_TX_MAILBOX_LIST(TxMailboxes));
 1502              		.loc 1 1042 3 is_stmt 1 view .LVU477
1043:Drivers/STM32F3xx_HAL_Driver/Src/stm32f3xx_hal_can.c **** 
1044:Drivers/STM32F3xx_HAL_Driver/Src/stm32f3xx_hal_can.c ****   if ((state == HAL_CAN_STATE_READY) ||
 1503              		.loc 1 1044 3 view .LVU478
 1504              		.loc 1 1044 38 is_stmt 0 view .LVU479
 1505 0004 013B     		subs	r3, r3, #1
 1506              	.LVL107:
 1507              		.loc 1 1044 38 view .LVU480
 1508 0006 DBB2     		uxtb	r3, r3
 1509              		.loc 1 1044 6 view .LVU481
 1510 0008 012B     		cmp	r3, #1
 1511 000a 01D9     		bls	.L122
1038:Drivers/STM32F3xx_HAL_Driver/Src/stm32f3xx_hal_can.c ****   HAL_CAN_StateTypeDef state = hcan->State;
 1512              		.loc 1 1038 12 view .LVU482
 1513 000c 0020     		movs	r0, #0
 1514              	.LVL108:
1038:Drivers/STM32F3xx_HAL_Driver/Src/stm32f3xx_hal_can.c ****   HAL_CAN_StateTypeDef state = hcan->State;
 1515              		.loc 1 1038 12 view .LVU483
 1516 000e 7047     		bx	lr
 1517              	.LVL109:
 1518              	.L122:
1045:Drivers/STM32F3xx_HAL_Driver/Src/stm32f3xx_hal_can.c ****       (state == HAL_CAN_STATE_LISTENING))
1046:Drivers/STM32F3xx_HAL_Driver/Src/stm32f3xx_hal_can.c ****   {
1047:Drivers/STM32F3xx_HAL_Driver/Src/stm32f3xx_hal_can.c ****     /* Check pending transmission request on the selected Tx Mailboxes */
1048:Drivers/STM32F3xx_HAL_Driver/Src/stm32f3xx_hal_can.c ****     if ((hcan->Instance->TSR & (TxMailboxes << CAN_TSR_TME0_Pos)) != (TxMailboxes << CAN_TSR_TME0_P
 1519              		.loc 1 1048 5 is_stmt 1 view .LVU484
 1520              		.loc 1 1048 14 is_stmt 0 view .LVU485
 1521 0010 0368     		ldr	r3, [r0]
 1522              		.loc 1 1048 24 view .LVU486
 1523 0012 9B68     		ldr	r3, [r3, #8]
 1524              		.loc 1 1048 45 view .LVU487
 1525 0014 8906     		lsls	r1, r1, #26
 1526              	.LVL110:
 1527              		.loc 1 1048 8 view .LVU488
 1528 0016 31EA0303 		bics	r3, r1, r3
 1529 001a 01D0     		beq	.L123
1049:Drivers/STM32F3xx_HAL_Driver/Src/stm32f3xx_hal_can.c ****     {
1050:Drivers/STM32F3xx_HAL_Driver/Src/stm32f3xx_hal_can.c ****       status = 1U;
 1530              		.loc 1 1050 14 view .LVU489
 1531 001c 0120     		movs	r0, #1
 1532              	.LVL111:
1051:Drivers/STM32F3xx_HAL_Driver/Src/stm32f3xx_hal_can.c ****     }
1052:Drivers/STM32F3xx_HAL_Driver/Src/stm32f3xx_hal_can.c ****   }
1053:Drivers/STM32F3xx_HAL_Driver/Src/stm32f3xx_hal_can.c **** 
1054:Drivers/STM32F3xx_HAL_Driver/Src/stm32f3xx_hal_can.c ****   /* Return status */
1055:Drivers/STM32F3xx_HAL_Driver/Src/stm32f3xx_hal_can.c ****   return status;
 1533              		.loc 1 1055 3 is_stmt 1 view .LVU490
1056:Drivers/STM32F3xx_HAL_Driver/Src/stm32f3xx_hal_can.c **** }
 1534              		.loc 1 1056 1 is_stmt 0 view .LVU491
 1535 001e 7047     		bx	lr
 1536              	.LVL112:
ARM GAS  /tmp/ccTH4Y0M.s 			page 51


 1537              	.L123:
1038:Drivers/STM32F3xx_HAL_Driver/Src/stm32f3xx_hal_can.c ****   HAL_CAN_StateTypeDef state = hcan->State;
 1538              		.loc 1 1038 12 view .LVU492
 1539 0020 0020     		movs	r0, #0
 1540              	.LVL113:
1038:Drivers/STM32F3xx_HAL_Driver/Src/stm32f3xx_hal_can.c ****   HAL_CAN_StateTypeDef state = hcan->State;
 1541              		.loc 1 1038 12 view .LVU493
 1542 0022 7047     		bx	lr
 1543              		.cfi_endproc
 1544              	.LFE139:
 1546              		.section	.text.HAL_CAN_GetTxTimestamp,"ax",%progbits
 1547              		.align	1
 1548              		.global	HAL_CAN_GetTxTimestamp
 1549              		.syntax unified
 1550              		.thumb
 1551              		.thumb_func
 1552              		.fpu fpv4-sp-d16
 1554              	HAL_CAN_GetTxTimestamp:
 1555              	.LVL114:
 1556              	.LFB140:
1057:Drivers/STM32F3xx_HAL_Driver/Src/stm32f3xx_hal_can.c **** 
1058:Drivers/STM32F3xx_HAL_Driver/Src/stm32f3xx_hal_can.c **** /**
1059:Drivers/STM32F3xx_HAL_Driver/Src/stm32f3xx_hal_can.c ****   * @brief  Return timestamp of Tx message sent, if time triggered communication
1060:Drivers/STM32F3xx_HAL_Driver/Src/stm32f3xx_hal_can.c ****             mode is enabled.
1061:Drivers/STM32F3xx_HAL_Driver/Src/stm32f3xx_hal_can.c ****   * @param  hcan pointer to a CAN_HandleTypeDef structure that contains
1062:Drivers/STM32F3xx_HAL_Driver/Src/stm32f3xx_hal_can.c ****   *         the configuration information for the specified CAN.
1063:Drivers/STM32F3xx_HAL_Driver/Src/stm32f3xx_hal_can.c ****   * @param  TxMailbox Tx Mailbox where the timestamp of message sent will be
1064:Drivers/STM32F3xx_HAL_Driver/Src/stm32f3xx_hal_can.c ****   *         read.
1065:Drivers/STM32F3xx_HAL_Driver/Src/stm32f3xx_hal_can.c ****   *         This parameter can be one value of @arg CAN_Tx_Mailboxes.
1066:Drivers/STM32F3xx_HAL_Driver/Src/stm32f3xx_hal_can.c ****   * @retval Timestamp of message sent from Tx Mailbox.
1067:Drivers/STM32F3xx_HAL_Driver/Src/stm32f3xx_hal_can.c ****   */
1068:Drivers/STM32F3xx_HAL_Driver/Src/stm32f3xx_hal_can.c **** uint32_t HAL_CAN_GetTxTimestamp(CAN_HandleTypeDef *hcan, uint32_t TxMailbox)
1069:Drivers/STM32F3xx_HAL_Driver/Src/stm32f3xx_hal_can.c **** {
 1557              		.loc 1 1069 1 is_stmt 1 view -0
 1558              		.cfi_startproc
 1559              		@ args = 0, pretend = 0, frame = 0
 1560              		@ frame_needed = 0, uses_anonymous_args = 0
 1561              		@ link register save eliminated.
1070:Drivers/STM32F3xx_HAL_Driver/Src/stm32f3xx_hal_can.c ****   uint32_t timestamp = 0U;
 1562              		.loc 1 1070 3 view .LVU495
1071:Drivers/STM32F3xx_HAL_Driver/Src/stm32f3xx_hal_can.c ****   uint32_t transmitmailbox;
 1563              		.loc 1 1071 3 view .LVU496
1072:Drivers/STM32F3xx_HAL_Driver/Src/stm32f3xx_hal_can.c ****   HAL_CAN_StateTypeDef state = hcan->State;
 1564              		.loc 1 1072 3 view .LVU497
 1565              		.loc 1 1072 24 is_stmt 0 view .LVU498
 1566 0000 90F82030 		ldrb	r3, [r0, #32]	@ zero_extendqisi2
 1567              	.LVL115:
1073:Drivers/STM32F3xx_HAL_Driver/Src/stm32f3xx_hal_can.c **** 
1074:Drivers/STM32F3xx_HAL_Driver/Src/stm32f3xx_hal_can.c ****   /* Check function parameters */
1075:Drivers/STM32F3xx_HAL_Driver/Src/stm32f3xx_hal_can.c ****   assert_param(IS_CAN_TX_MAILBOX(TxMailbox));
 1568              		.loc 1 1075 3 is_stmt 1 view .LVU499
1076:Drivers/STM32F3xx_HAL_Driver/Src/stm32f3xx_hal_can.c **** 
1077:Drivers/STM32F3xx_HAL_Driver/Src/stm32f3xx_hal_can.c ****   if ((state == HAL_CAN_STATE_READY) ||
 1569              		.loc 1 1077 3 view .LVU500
 1570              		.loc 1 1077 38 is_stmt 0 view .LVU501
 1571 0004 013B     		subs	r3, r3, #1
 1572              	.LVL116:
ARM GAS  /tmp/ccTH4Y0M.s 			page 52


 1573              		.loc 1 1077 38 view .LVU502
 1574 0006 DBB2     		uxtb	r3, r3
 1575              		.loc 1 1077 6 view .LVU503
 1576 0008 012B     		cmp	r3, #1
 1577 000a 01D9     		bls	.L127
1070:Drivers/STM32F3xx_HAL_Driver/Src/stm32f3xx_hal_can.c ****   uint32_t transmitmailbox;
 1578              		.loc 1 1070 12 view .LVU504
 1579 000c 0020     		movs	r0, #0
 1580              	.LVL117:
1078:Drivers/STM32F3xx_HAL_Driver/Src/stm32f3xx_hal_can.c ****       (state == HAL_CAN_STATE_LISTENING))
1079:Drivers/STM32F3xx_HAL_Driver/Src/stm32f3xx_hal_can.c ****   {
1080:Drivers/STM32F3xx_HAL_Driver/Src/stm32f3xx_hal_can.c ****     /* Select the Tx mailbox */
1081:Drivers/STM32F3xx_HAL_Driver/Src/stm32f3xx_hal_can.c ****     transmitmailbox = POSITION_VAL(TxMailbox);
1082:Drivers/STM32F3xx_HAL_Driver/Src/stm32f3xx_hal_can.c **** 
1083:Drivers/STM32F3xx_HAL_Driver/Src/stm32f3xx_hal_can.c ****     /* Get timestamp */
1084:Drivers/STM32F3xx_HAL_Driver/Src/stm32f3xx_hal_can.c ****     timestamp = (hcan->Instance->sTxMailBox[transmitmailbox].TDTR & CAN_TDT0R_TIME) >> CAN_TDT0R_TI
1085:Drivers/STM32F3xx_HAL_Driver/Src/stm32f3xx_hal_can.c ****   }
1086:Drivers/STM32F3xx_HAL_Driver/Src/stm32f3xx_hal_can.c **** 
1087:Drivers/STM32F3xx_HAL_Driver/Src/stm32f3xx_hal_can.c ****   /* Return the timestamp */
1088:Drivers/STM32F3xx_HAL_Driver/Src/stm32f3xx_hal_can.c ****   return timestamp;
 1581              		.loc 1 1088 3 is_stmt 1 view .LVU505
1089:Drivers/STM32F3xx_HAL_Driver/Src/stm32f3xx_hal_can.c **** }
 1582              		.loc 1 1089 1 is_stmt 0 view .LVU506
 1583 000e 7047     		bx	lr
 1584              	.LVL118:
 1585              	.L127:
1081:Drivers/STM32F3xx_HAL_Driver/Src/stm32f3xx_hal_can.c **** 
 1586              		.loc 1 1081 5 is_stmt 1 view .LVU507
 1587              	.LBB4:
 1588              	.LBI4:
 1589              		.file 2 "Drivers/CMSIS/Include/cmsis_gcc.h"
   1:Drivers/CMSIS/Include/cmsis_gcc.h **** /**************************************************************************//**
   2:Drivers/CMSIS/Include/cmsis_gcc.h ****  * @file     cmsis_gcc.h
   3:Drivers/CMSIS/Include/cmsis_gcc.h ****  * @brief    CMSIS Cortex-M Core Function/Instruction Header File
   4:Drivers/CMSIS/Include/cmsis_gcc.h ****  * @version  V4.30
   5:Drivers/CMSIS/Include/cmsis_gcc.h ****  * @date     20. October 2015
   6:Drivers/CMSIS/Include/cmsis_gcc.h ****  ******************************************************************************/
   7:Drivers/CMSIS/Include/cmsis_gcc.h **** /* Copyright (c) 2009 - 2015 ARM LIMITED
   8:Drivers/CMSIS/Include/cmsis_gcc.h **** 
   9:Drivers/CMSIS/Include/cmsis_gcc.h ****    All rights reserved.
  10:Drivers/CMSIS/Include/cmsis_gcc.h ****    Redistribution and use in source and binary forms, with or without
  11:Drivers/CMSIS/Include/cmsis_gcc.h ****    modification, are permitted provided that the following conditions are met:
  12:Drivers/CMSIS/Include/cmsis_gcc.h ****    - Redistributions of source code must retain the above copyright
  13:Drivers/CMSIS/Include/cmsis_gcc.h ****      notice, this list of conditions and the following disclaimer.
  14:Drivers/CMSIS/Include/cmsis_gcc.h ****    - Redistributions in binary form must reproduce the above copyright
  15:Drivers/CMSIS/Include/cmsis_gcc.h ****      notice, this list of conditions and the following disclaimer in the
  16:Drivers/CMSIS/Include/cmsis_gcc.h ****      documentation and/or other materials provided with the distribution.
  17:Drivers/CMSIS/Include/cmsis_gcc.h ****    - Neither the name of ARM nor the names of its contributors may be used
  18:Drivers/CMSIS/Include/cmsis_gcc.h ****      to endorse or promote products derived from this software without
  19:Drivers/CMSIS/Include/cmsis_gcc.h ****      specific prior written permission.
  20:Drivers/CMSIS/Include/cmsis_gcc.h ****    *
  21:Drivers/CMSIS/Include/cmsis_gcc.h ****    THIS SOFTWARE IS PROVIDED BY THE COPYRIGHT HOLDERS AND CONTRIBUTORS "AS IS"
  22:Drivers/CMSIS/Include/cmsis_gcc.h ****    AND ANY EXPRESS OR IMPLIED WARRANTIES, INCLUDING, BUT NOT LIMITED TO, THE
  23:Drivers/CMSIS/Include/cmsis_gcc.h ****    IMPLIED WARRANTIES OF MERCHANTABILITY AND FITNESS FOR A PARTICULAR PURPOSE
  24:Drivers/CMSIS/Include/cmsis_gcc.h ****    ARE DISCLAIMED. IN NO EVENT SHALL COPYRIGHT HOLDERS AND CONTRIBUTORS BE
  25:Drivers/CMSIS/Include/cmsis_gcc.h ****    LIABLE FOR ANY DIRECT, INDIRECT, INCIDENTAL, SPECIAL, EXEMPLARY, OR
  26:Drivers/CMSIS/Include/cmsis_gcc.h ****    CONSEQUENTIAL DAMAGES (INCLUDING, BUT NOT LIMITED TO, PROCUREMENT OF
ARM GAS  /tmp/ccTH4Y0M.s 			page 53


  27:Drivers/CMSIS/Include/cmsis_gcc.h ****    SUBSTITUTE GOODS OR SERVICES; LOSS OF USE, DATA, OR PROFITS; OR BUSINESS
  28:Drivers/CMSIS/Include/cmsis_gcc.h ****    INTERRUPTION) HOWEVER CAUSED AND ON ANY THEORY OF LIABILITY, WHETHER IN
  29:Drivers/CMSIS/Include/cmsis_gcc.h ****    CONTRACT, STRICT LIABILITY, OR TORT (INCLUDING NEGLIGENCE OR OTHERWISE)
  30:Drivers/CMSIS/Include/cmsis_gcc.h ****    ARISING IN ANY WAY OUT OF THE USE OF THIS SOFTWARE, EVEN IF ADVISED OF THE
  31:Drivers/CMSIS/Include/cmsis_gcc.h ****    POSSIBILITY OF SUCH DAMAGE.
  32:Drivers/CMSIS/Include/cmsis_gcc.h ****    ---------------------------------------------------------------------------*/
  33:Drivers/CMSIS/Include/cmsis_gcc.h **** 
  34:Drivers/CMSIS/Include/cmsis_gcc.h **** 
  35:Drivers/CMSIS/Include/cmsis_gcc.h **** #ifndef __CMSIS_GCC_H
  36:Drivers/CMSIS/Include/cmsis_gcc.h **** #define __CMSIS_GCC_H
  37:Drivers/CMSIS/Include/cmsis_gcc.h **** 
  38:Drivers/CMSIS/Include/cmsis_gcc.h **** /* ignore some GCC warnings */
  39:Drivers/CMSIS/Include/cmsis_gcc.h **** #if defined ( __GNUC__ )
  40:Drivers/CMSIS/Include/cmsis_gcc.h **** #pragma GCC diagnostic push
  41:Drivers/CMSIS/Include/cmsis_gcc.h **** #pragma GCC diagnostic ignored "-Wsign-conversion"
  42:Drivers/CMSIS/Include/cmsis_gcc.h **** #pragma GCC diagnostic ignored "-Wconversion"
  43:Drivers/CMSIS/Include/cmsis_gcc.h **** #pragma GCC diagnostic ignored "-Wunused-parameter"
  44:Drivers/CMSIS/Include/cmsis_gcc.h **** #endif
  45:Drivers/CMSIS/Include/cmsis_gcc.h **** 
  46:Drivers/CMSIS/Include/cmsis_gcc.h **** 
  47:Drivers/CMSIS/Include/cmsis_gcc.h **** /* ###########################  Core Function Access  ########################### */
  48:Drivers/CMSIS/Include/cmsis_gcc.h **** /** \ingroup  CMSIS_Core_FunctionInterface
  49:Drivers/CMSIS/Include/cmsis_gcc.h ****     \defgroup CMSIS_Core_RegAccFunctions CMSIS Core Register Access Functions
  50:Drivers/CMSIS/Include/cmsis_gcc.h ****   @{
  51:Drivers/CMSIS/Include/cmsis_gcc.h ****  */
  52:Drivers/CMSIS/Include/cmsis_gcc.h **** 
  53:Drivers/CMSIS/Include/cmsis_gcc.h **** /**
  54:Drivers/CMSIS/Include/cmsis_gcc.h ****   \brief   Enable IRQ Interrupts
  55:Drivers/CMSIS/Include/cmsis_gcc.h ****   \details Enables IRQ interrupts by clearing the I-bit in the CPSR.
  56:Drivers/CMSIS/Include/cmsis_gcc.h ****            Can only be executed in Privileged modes.
  57:Drivers/CMSIS/Include/cmsis_gcc.h ****  */
  58:Drivers/CMSIS/Include/cmsis_gcc.h **** __attribute__( ( always_inline ) ) __STATIC_INLINE void __enable_irq(void)
  59:Drivers/CMSIS/Include/cmsis_gcc.h **** {
  60:Drivers/CMSIS/Include/cmsis_gcc.h ****   __ASM volatile ("cpsie i" : : : "memory");
  61:Drivers/CMSIS/Include/cmsis_gcc.h **** }
  62:Drivers/CMSIS/Include/cmsis_gcc.h **** 
  63:Drivers/CMSIS/Include/cmsis_gcc.h **** 
  64:Drivers/CMSIS/Include/cmsis_gcc.h **** /**
  65:Drivers/CMSIS/Include/cmsis_gcc.h ****   \brief   Disable IRQ Interrupts
  66:Drivers/CMSIS/Include/cmsis_gcc.h ****   \details Disables IRQ interrupts by setting the I-bit in the CPSR.
  67:Drivers/CMSIS/Include/cmsis_gcc.h ****   Can only be executed in Privileged modes.
  68:Drivers/CMSIS/Include/cmsis_gcc.h ****  */
  69:Drivers/CMSIS/Include/cmsis_gcc.h **** __attribute__( ( always_inline ) ) __STATIC_INLINE void __disable_irq(void)
  70:Drivers/CMSIS/Include/cmsis_gcc.h **** {
  71:Drivers/CMSIS/Include/cmsis_gcc.h ****   __ASM volatile ("cpsid i" : : : "memory");
  72:Drivers/CMSIS/Include/cmsis_gcc.h **** }
  73:Drivers/CMSIS/Include/cmsis_gcc.h **** 
  74:Drivers/CMSIS/Include/cmsis_gcc.h **** 
  75:Drivers/CMSIS/Include/cmsis_gcc.h **** /**
  76:Drivers/CMSIS/Include/cmsis_gcc.h ****   \brief   Get Control Register
  77:Drivers/CMSIS/Include/cmsis_gcc.h ****   \details Returns the content of the Control Register.
  78:Drivers/CMSIS/Include/cmsis_gcc.h ****   \return               Control Register value
  79:Drivers/CMSIS/Include/cmsis_gcc.h ****  */
  80:Drivers/CMSIS/Include/cmsis_gcc.h **** __attribute__( ( always_inline ) ) __STATIC_INLINE uint32_t __get_CONTROL(void)
  81:Drivers/CMSIS/Include/cmsis_gcc.h **** {
  82:Drivers/CMSIS/Include/cmsis_gcc.h ****   uint32_t result;
  83:Drivers/CMSIS/Include/cmsis_gcc.h **** 
ARM GAS  /tmp/ccTH4Y0M.s 			page 54


  84:Drivers/CMSIS/Include/cmsis_gcc.h ****   __ASM volatile ("MRS %0, control" : "=r" (result) );
  85:Drivers/CMSIS/Include/cmsis_gcc.h ****   return(result);
  86:Drivers/CMSIS/Include/cmsis_gcc.h **** }
  87:Drivers/CMSIS/Include/cmsis_gcc.h **** 
  88:Drivers/CMSIS/Include/cmsis_gcc.h **** 
  89:Drivers/CMSIS/Include/cmsis_gcc.h **** /**
  90:Drivers/CMSIS/Include/cmsis_gcc.h ****   \brief   Set Control Register
  91:Drivers/CMSIS/Include/cmsis_gcc.h ****   \details Writes the given value to the Control Register.
  92:Drivers/CMSIS/Include/cmsis_gcc.h ****   \param [in]    control  Control Register value to set
  93:Drivers/CMSIS/Include/cmsis_gcc.h ****  */
  94:Drivers/CMSIS/Include/cmsis_gcc.h **** __attribute__( ( always_inline ) ) __STATIC_INLINE void __set_CONTROL(uint32_t control)
  95:Drivers/CMSIS/Include/cmsis_gcc.h **** {
  96:Drivers/CMSIS/Include/cmsis_gcc.h ****   __ASM volatile ("MSR control, %0" : : "r" (control) : "memory");
  97:Drivers/CMSIS/Include/cmsis_gcc.h **** }
  98:Drivers/CMSIS/Include/cmsis_gcc.h **** 
  99:Drivers/CMSIS/Include/cmsis_gcc.h **** 
 100:Drivers/CMSIS/Include/cmsis_gcc.h **** /**
 101:Drivers/CMSIS/Include/cmsis_gcc.h ****   \brief   Get IPSR Register
 102:Drivers/CMSIS/Include/cmsis_gcc.h ****   \details Returns the content of the IPSR Register.
 103:Drivers/CMSIS/Include/cmsis_gcc.h ****   \return               IPSR Register value
 104:Drivers/CMSIS/Include/cmsis_gcc.h ****  */
 105:Drivers/CMSIS/Include/cmsis_gcc.h **** __attribute__( ( always_inline ) ) __STATIC_INLINE uint32_t __get_IPSR(void)
 106:Drivers/CMSIS/Include/cmsis_gcc.h **** {
 107:Drivers/CMSIS/Include/cmsis_gcc.h ****   uint32_t result;
 108:Drivers/CMSIS/Include/cmsis_gcc.h **** 
 109:Drivers/CMSIS/Include/cmsis_gcc.h ****   __ASM volatile ("MRS %0, ipsr" : "=r" (result) );
 110:Drivers/CMSIS/Include/cmsis_gcc.h ****   return(result);
 111:Drivers/CMSIS/Include/cmsis_gcc.h **** }
 112:Drivers/CMSIS/Include/cmsis_gcc.h **** 
 113:Drivers/CMSIS/Include/cmsis_gcc.h **** 
 114:Drivers/CMSIS/Include/cmsis_gcc.h **** /**
 115:Drivers/CMSIS/Include/cmsis_gcc.h ****   \brief   Get APSR Register
 116:Drivers/CMSIS/Include/cmsis_gcc.h ****   \details Returns the content of the APSR Register.
 117:Drivers/CMSIS/Include/cmsis_gcc.h ****   \return               APSR Register value
 118:Drivers/CMSIS/Include/cmsis_gcc.h ****  */
 119:Drivers/CMSIS/Include/cmsis_gcc.h **** __attribute__( ( always_inline ) ) __STATIC_INLINE uint32_t __get_APSR(void)
 120:Drivers/CMSIS/Include/cmsis_gcc.h **** {
 121:Drivers/CMSIS/Include/cmsis_gcc.h ****   uint32_t result;
 122:Drivers/CMSIS/Include/cmsis_gcc.h **** 
 123:Drivers/CMSIS/Include/cmsis_gcc.h ****   __ASM volatile ("MRS %0, apsr" : "=r" (result) );
 124:Drivers/CMSIS/Include/cmsis_gcc.h ****   return(result);
 125:Drivers/CMSIS/Include/cmsis_gcc.h **** }
 126:Drivers/CMSIS/Include/cmsis_gcc.h **** 
 127:Drivers/CMSIS/Include/cmsis_gcc.h **** 
 128:Drivers/CMSIS/Include/cmsis_gcc.h **** /**
 129:Drivers/CMSIS/Include/cmsis_gcc.h ****   \brief   Get xPSR Register
 130:Drivers/CMSIS/Include/cmsis_gcc.h ****   \details Returns the content of the xPSR Register.
 131:Drivers/CMSIS/Include/cmsis_gcc.h **** 
 132:Drivers/CMSIS/Include/cmsis_gcc.h ****     \return               xPSR Register value
 133:Drivers/CMSIS/Include/cmsis_gcc.h ****  */
 134:Drivers/CMSIS/Include/cmsis_gcc.h **** __attribute__( ( always_inline ) ) __STATIC_INLINE uint32_t __get_xPSR(void)
 135:Drivers/CMSIS/Include/cmsis_gcc.h **** {
 136:Drivers/CMSIS/Include/cmsis_gcc.h ****   uint32_t result;
 137:Drivers/CMSIS/Include/cmsis_gcc.h **** 
 138:Drivers/CMSIS/Include/cmsis_gcc.h ****   __ASM volatile ("MRS %0, xpsr" : "=r" (result) );
 139:Drivers/CMSIS/Include/cmsis_gcc.h ****   return(result);
 140:Drivers/CMSIS/Include/cmsis_gcc.h **** }
ARM GAS  /tmp/ccTH4Y0M.s 			page 55


 141:Drivers/CMSIS/Include/cmsis_gcc.h **** 
 142:Drivers/CMSIS/Include/cmsis_gcc.h **** 
 143:Drivers/CMSIS/Include/cmsis_gcc.h **** /**
 144:Drivers/CMSIS/Include/cmsis_gcc.h ****   \brief   Get Process Stack Pointer
 145:Drivers/CMSIS/Include/cmsis_gcc.h ****   \details Returns the current value of the Process Stack Pointer (PSP).
 146:Drivers/CMSIS/Include/cmsis_gcc.h ****   \return               PSP Register value
 147:Drivers/CMSIS/Include/cmsis_gcc.h ****  */
 148:Drivers/CMSIS/Include/cmsis_gcc.h **** __attribute__( ( always_inline ) ) __STATIC_INLINE uint32_t __get_PSP(void)
 149:Drivers/CMSIS/Include/cmsis_gcc.h **** {
 150:Drivers/CMSIS/Include/cmsis_gcc.h ****   register uint32_t result;
 151:Drivers/CMSIS/Include/cmsis_gcc.h **** 
 152:Drivers/CMSIS/Include/cmsis_gcc.h ****   __ASM volatile ("MRS %0, psp\n"  : "=r" (result) );
 153:Drivers/CMSIS/Include/cmsis_gcc.h ****   return(result);
 154:Drivers/CMSIS/Include/cmsis_gcc.h **** }
 155:Drivers/CMSIS/Include/cmsis_gcc.h **** 
 156:Drivers/CMSIS/Include/cmsis_gcc.h **** 
 157:Drivers/CMSIS/Include/cmsis_gcc.h **** /**
 158:Drivers/CMSIS/Include/cmsis_gcc.h ****   \brief   Set Process Stack Pointer
 159:Drivers/CMSIS/Include/cmsis_gcc.h ****   \details Assigns the given value to the Process Stack Pointer (PSP).
 160:Drivers/CMSIS/Include/cmsis_gcc.h ****   \param [in]    topOfProcStack  Process Stack Pointer value to set
 161:Drivers/CMSIS/Include/cmsis_gcc.h ****  */
 162:Drivers/CMSIS/Include/cmsis_gcc.h **** __attribute__( ( always_inline ) ) __STATIC_INLINE void __set_PSP(uint32_t topOfProcStack)
 163:Drivers/CMSIS/Include/cmsis_gcc.h **** {
 164:Drivers/CMSIS/Include/cmsis_gcc.h ****   __ASM volatile ("MSR psp, %0\n" : : "r" (topOfProcStack) : "sp");
 165:Drivers/CMSIS/Include/cmsis_gcc.h **** }
 166:Drivers/CMSIS/Include/cmsis_gcc.h **** 
 167:Drivers/CMSIS/Include/cmsis_gcc.h **** 
 168:Drivers/CMSIS/Include/cmsis_gcc.h **** /**
 169:Drivers/CMSIS/Include/cmsis_gcc.h ****   \brief   Get Main Stack Pointer
 170:Drivers/CMSIS/Include/cmsis_gcc.h ****   \details Returns the current value of the Main Stack Pointer (MSP).
 171:Drivers/CMSIS/Include/cmsis_gcc.h ****   \return               MSP Register value
 172:Drivers/CMSIS/Include/cmsis_gcc.h ****  */
 173:Drivers/CMSIS/Include/cmsis_gcc.h **** __attribute__( ( always_inline ) ) __STATIC_INLINE uint32_t __get_MSP(void)
 174:Drivers/CMSIS/Include/cmsis_gcc.h **** {
 175:Drivers/CMSIS/Include/cmsis_gcc.h ****   register uint32_t result;
 176:Drivers/CMSIS/Include/cmsis_gcc.h **** 
 177:Drivers/CMSIS/Include/cmsis_gcc.h ****   __ASM volatile ("MRS %0, msp\n" : "=r" (result) );
 178:Drivers/CMSIS/Include/cmsis_gcc.h ****   return(result);
 179:Drivers/CMSIS/Include/cmsis_gcc.h **** }
 180:Drivers/CMSIS/Include/cmsis_gcc.h **** 
 181:Drivers/CMSIS/Include/cmsis_gcc.h **** 
 182:Drivers/CMSIS/Include/cmsis_gcc.h **** /**
 183:Drivers/CMSIS/Include/cmsis_gcc.h ****   \brief   Set Main Stack Pointer
 184:Drivers/CMSIS/Include/cmsis_gcc.h ****   \details Assigns the given value to the Main Stack Pointer (MSP).
 185:Drivers/CMSIS/Include/cmsis_gcc.h **** 
 186:Drivers/CMSIS/Include/cmsis_gcc.h ****     \param [in]    topOfMainStack  Main Stack Pointer value to set
 187:Drivers/CMSIS/Include/cmsis_gcc.h ****  */
 188:Drivers/CMSIS/Include/cmsis_gcc.h **** __attribute__( ( always_inline ) ) __STATIC_INLINE void __set_MSP(uint32_t topOfMainStack)
 189:Drivers/CMSIS/Include/cmsis_gcc.h **** {
 190:Drivers/CMSIS/Include/cmsis_gcc.h ****   __ASM volatile ("MSR msp, %0\n" : : "r" (topOfMainStack) : "sp");
 191:Drivers/CMSIS/Include/cmsis_gcc.h **** }
 192:Drivers/CMSIS/Include/cmsis_gcc.h **** 
 193:Drivers/CMSIS/Include/cmsis_gcc.h **** 
 194:Drivers/CMSIS/Include/cmsis_gcc.h **** /**
 195:Drivers/CMSIS/Include/cmsis_gcc.h ****   \brief   Get Priority Mask
 196:Drivers/CMSIS/Include/cmsis_gcc.h ****   \details Returns the current state of the priority mask bit from the Priority Mask Register.
 197:Drivers/CMSIS/Include/cmsis_gcc.h ****   \return               Priority Mask value
ARM GAS  /tmp/ccTH4Y0M.s 			page 56


 198:Drivers/CMSIS/Include/cmsis_gcc.h ****  */
 199:Drivers/CMSIS/Include/cmsis_gcc.h **** __attribute__( ( always_inline ) ) __STATIC_INLINE uint32_t __get_PRIMASK(void)
 200:Drivers/CMSIS/Include/cmsis_gcc.h **** {
 201:Drivers/CMSIS/Include/cmsis_gcc.h ****   uint32_t result;
 202:Drivers/CMSIS/Include/cmsis_gcc.h **** 
 203:Drivers/CMSIS/Include/cmsis_gcc.h ****   __ASM volatile ("MRS %0, primask" : "=r" (result) );
 204:Drivers/CMSIS/Include/cmsis_gcc.h ****   return(result);
 205:Drivers/CMSIS/Include/cmsis_gcc.h **** }
 206:Drivers/CMSIS/Include/cmsis_gcc.h **** 
 207:Drivers/CMSIS/Include/cmsis_gcc.h **** 
 208:Drivers/CMSIS/Include/cmsis_gcc.h **** /**
 209:Drivers/CMSIS/Include/cmsis_gcc.h ****   \brief   Set Priority Mask
 210:Drivers/CMSIS/Include/cmsis_gcc.h ****   \details Assigns the given value to the Priority Mask Register.
 211:Drivers/CMSIS/Include/cmsis_gcc.h ****   \param [in]    priMask  Priority Mask
 212:Drivers/CMSIS/Include/cmsis_gcc.h ****  */
 213:Drivers/CMSIS/Include/cmsis_gcc.h **** __attribute__( ( always_inline ) ) __STATIC_INLINE void __set_PRIMASK(uint32_t priMask)
 214:Drivers/CMSIS/Include/cmsis_gcc.h **** {
 215:Drivers/CMSIS/Include/cmsis_gcc.h ****   __ASM volatile ("MSR primask, %0" : : "r" (priMask) : "memory");
 216:Drivers/CMSIS/Include/cmsis_gcc.h **** }
 217:Drivers/CMSIS/Include/cmsis_gcc.h **** 
 218:Drivers/CMSIS/Include/cmsis_gcc.h **** 
 219:Drivers/CMSIS/Include/cmsis_gcc.h **** #if       (__CORTEX_M >= 0x03U)
 220:Drivers/CMSIS/Include/cmsis_gcc.h **** 
 221:Drivers/CMSIS/Include/cmsis_gcc.h **** /**
 222:Drivers/CMSIS/Include/cmsis_gcc.h ****   \brief   Enable FIQ
 223:Drivers/CMSIS/Include/cmsis_gcc.h ****   \details Enables FIQ interrupts by clearing the F-bit in the CPSR.
 224:Drivers/CMSIS/Include/cmsis_gcc.h ****            Can only be executed in Privileged modes.
 225:Drivers/CMSIS/Include/cmsis_gcc.h ****  */
 226:Drivers/CMSIS/Include/cmsis_gcc.h **** __attribute__( ( always_inline ) ) __STATIC_INLINE void __enable_fault_irq(void)
 227:Drivers/CMSIS/Include/cmsis_gcc.h **** {
 228:Drivers/CMSIS/Include/cmsis_gcc.h ****   __ASM volatile ("cpsie f" : : : "memory");
 229:Drivers/CMSIS/Include/cmsis_gcc.h **** }
 230:Drivers/CMSIS/Include/cmsis_gcc.h **** 
 231:Drivers/CMSIS/Include/cmsis_gcc.h **** 
 232:Drivers/CMSIS/Include/cmsis_gcc.h **** /**
 233:Drivers/CMSIS/Include/cmsis_gcc.h ****   \brief   Disable FIQ
 234:Drivers/CMSIS/Include/cmsis_gcc.h ****   \details Disables FIQ interrupts by setting the F-bit in the CPSR.
 235:Drivers/CMSIS/Include/cmsis_gcc.h ****            Can only be executed in Privileged modes.
 236:Drivers/CMSIS/Include/cmsis_gcc.h ****  */
 237:Drivers/CMSIS/Include/cmsis_gcc.h **** __attribute__( ( always_inline ) ) __STATIC_INLINE void __disable_fault_irq(void)
 238:Drivers/CMSIS/Include/cmsis_gcc.h **** {
 239:Drivers/CMSIS/Include/cmsis_gcc.h ****   __ASM volatile ("cpsid f" : : : "memory");
 240:Drivers/CMSIS/Include/cmsis_gcc.h **** }
 241:Drivers/CMSIS/Include/cmsis_gcc.h **** 
 242:Drivers/CMSIS/Include/cmsis_gcc.h **** 
 243:Drivers/CMSIS/Include/cmsis_gcc.h **** /**
 244:Drivers/CMSIS/Include/cmsis_gcc.h ****   \brief   Get Base Priority
 245:Drivers/CMSIS/Include/cmsis_gcc.h ****   \details Returns the current value of the Base Priority register.
 246:Drivers/CMSIS/Include/cmsis_gcc.h ****   \return               Base Priority register value
 247:Drivers/CMSIS/Include/cmsis_gcc.h ****  */
 248:Drivers/CMSIS/Include/cmsis_gcc.h **** __attribute__( ( always_inline ) ) __STATIC_INLINE uint32_t __get_BASEPRI(void)
 249:Drivers/CMSIS/Include/cmsis_gcc.h **** {
 250:Drivers/CMSIS/Include/cmsis_gcc.h ****   uint32_t result;
 251:Drivers/CMSIS/Include/cmsis_gcc.h **** 
 252:Drivers/CMSIS/Include/cmsis_gcc.h ****   __ASM volatile ("MRS %0, basepri" : "=r" (result) );
 253:Drivers/CMSIS/Include/cmsis_gcc.h ****   return(result);
 254:Drivers/CMSIS/Include/cmsis_gcc.h **** }
ARM GAS  /tmp/ccTH4Y0M.s 			page 57


 255:Drivers/CMSIS/Include/cmsis_gcc.h **** 
 256:Drivers/CMSIS/Include/cmsis_gcc.h **** 
 257:Drivers/CMSIS/Include/cmsis_gcc.h **** /**
 258:Drivers/CMSIS/Include/cmsis_gcc.h ****   \brief   Set Base Priority
 259:Drivers/CMSIS/Include/cmsis_gcc.h ****   \details Assigns the given value to the Base Priority register.
 260:Drivers/CMSIS/Include/cmsis_gcc.h ****   \param [in]    basePri  Base Priority value to set
 261:Drivers/CMSIS/Include/cmsis_gcc.h ****  */
 262:Drivers/CMSIS/Include/cmsis_gcc.h **** __attribute__( ( always_inline ) ) __STATIC_INLINE void __set_BASEPRI(uint32_t value)
 263:Drivers/CMSIS/Include/cmsis_gcc.h **** {
 264:Drivers/CMSIS/Include/cmsis_gcc.h ****   __ASM volatile ("MSR basepri, %0" : : "r" (value) : "memory");
 265:Drivers/CMSIS/Include/cmsis_gcc.h **** }
 266:Drivers/CMSIS/Include/cmsis_gcc.h **** 
 267:Drivers/CMSIS/Include/cmsis_gcc.h **** 
 268:Drivers/CMSIS/Include/cmsis_gcc.h **** /**
 269:Drivers/CMSIS/Include/cmsis_gcc.h ****   \brief   Set Base Priority with condition
 270:Drivers/CMSIS/Include/cmsis_gcc.h ****   \details Assigns the given value to the Base Priority register only if BASEPRI masking is disable
 271:Drivers/CMSIS/Include/cmsis_gcc.h ****            or the new value increases the BASEPRI priority level.
 272:Drivers/CMSIS/Include/cmsis_gcc.h ****   \param [in]    basePri  Base Priority value to set
 273:Drivers/CMSIS/Include/cmsis_gcc.h ****  */
 274:Drivers/CMSIS/Include/cmsis_gcc.h **** __attribute__( ( always_inline ) ) __STATIC_INLINE void __set_BASEPRI_MAX(uint32_t value)
 275:Drivers/CMSIS/Include/cmsis_gcc.h **** {
 276:Drivers/CMSIS/Include/cmsis_gcc.h ****   __ASM volatile ("MSR basepri_max, %0" : : "r" (value) : "memory");
 277:Drivers/CMSIS/Include/cmsis_gcc.h **** }
 278:Drivers/CMSIS/Include/cmsis_gcc.h **** 
 279:Drivers/CMSIS/Include/cmsis_gcc.h **** 
 280:Drivers/CMSIS/Include/cmsis_gcc.h **** /**
 281:Drivers/CMSIS/Include/cmsis_gcc.h ****   \brief   Get Fault Mask
 282:Drivers/CMSIS/Include/cmsis_gcc.h ****   \details Returns the current value of the Fault Mask register.
 283:Drivers/CMSIS/Include/cmsis_gcc.h ****   \return               Fault Mask register value
 284:Drivers/CMSIS/Include/cmsis_gcc.h ****  */
 285:Drivers/CMSIS/Include/cmsis_gcc.h **** __attribute__( ( always_inline ) ) __STATIC_INLINE uint32_t __get_FAULTMASK(void)
 286:Drivers/CMSIS/Include/cmsis_gcc.h **** {
 287:Drivers/CMSIS/Include/cmsis_gcc.h ****   uint32_t result;
 288:Drivers/CMSIS/Include/cmsis_gcc.h **** 
 289:Drivers/CMSIS/Include/cmsis_gcc.h ****   __ASM volatile ("MRS %0, faultmask" : "=r" (result) );
 290:Drivers/CMSIS/Include/cmsis_gcc.h ****   return(result);
 291:Drivers/CMSIS/Include/cmsis_gcc.h **** }
 292:Drivers/CMSIS/Include/cmsis_gcc.h **** 
 293:Drivers/CMSIS/Include/cmsis_gcc.h **** 
 294:Drivers/CMSIS/Include/cmsis_gcc.h **** /**
 295:Drivers/CMSIS/Include/cmsis_gcc.h ****   \brief   Set Fault Mask
 296:Drivers/CMSIS/Include/cmsis_gcc.h ****   \details Assigns the given value to the Fault Mask register.
 297:Drivers/CMSIS/Include/cmsis_gcc.h ****   \param [in]    faultMask  Fault Mask value to set
 298:Drivers/CMSIS/Include/cmsis_gcc.h ****  */
 299:Drivers/CMSIS/Include/cmsis_gcc.h **** __attribute__( ( always_inline ) ) __STATIC_INLINE void __set_FAULTMASK(uint32_t faultMask)
 300:Drivers/CMSIS/Include/cmsis_gcc.h **** {
 301:Drivers/CMSIS/Include/cmsis_gcc.h ****   __ASM volatile ("MSR faultmask, %0" : : "r" (faultMask) : "memory");
 302:Drivers/CMSIS/Include/cmsis_gcc.h **** }
 303:Drivers/CMSIS/Include/cmsis_gcc.h **** 
 304:Drivers/CMSIS/Include/cmsis_gcc.h **** #endif /* (__CORTEX_M >= 0x03U) */
 305:Drivers/CMSIS/Include/cmsis_gcc.h **** 
 306:Drivers/CMSIS/Include/cmsis_gcc.h **** 
 307:Drivers/CMSIS/Include/cmsis_gcc.h **** #if       (__CORTEX_M == 0x04U) || (__CORTEX_M == 0x07U)
 308:Drivers/CMSIS/Include/cmsis_gcc.h **** 
 309:Drivers/CMSIS/Include/cmsis_gcc.h **** /**
 310:Drivers/CMSIS/Include/cmsis_gcc.h ****   \brief   Get FPSCR
 311:Drivers/CMSIS/Include/cmsis_gcc.h ****   \details Returns the current value of the Floating Point Status/Control register.
ARM GAS  /tmp/ccTH4Y0M.s 			page 58


 312:Drivers/CMSIS/Include/cmsis_gcc.h ****   \return               Floating Point Status/Control register value
 313:Drivers/CMSIS/Include/cmsis_gcc.h ****  */
 314:Drivers/CMSIS/Include/cmsis_gcc.h **** __attribute__( ( always_inline ) ) __STATIC_INLINE uint32_t __get_FPSCR(void)
 315:Drivers/CMSIS/Include/cmsis_gcc.h **** {
 316:Drivers/CMSIS/Include/cmsis_gcc.h **** #if (__FPU_PRESENT == 1U) && (__FPU_USED == 1U)
 317:Drivers/CMSIS/Include/cmsis_gcc.h ****   uint32_t result;
 318:Drivers/CMSIS/Include/cmsis_gcc.h **** 
 319:Drivers/CMSIS/Include/cmsis_gcc.h ****   /* Empty asm statement works as a scheduling barrier */
 320:Drivers/CMSIS/Include/cmsis_gcc.h ****   __ASM volatile ("");
 321:Drivers/CMSIS/Include/cmsis_gcc.h ****   __ASM volatile ("VMRS %0, fpscr" : "=r" (result) );
 322:Drivers/CMSIS/Include/cmsis_gcc.h ****   __ASM volatile ("");
 323:Drivers/CMSIS/Include/cmsis_gcc.h ****   return(result);
 324:Drivers/CMSIS/Include/cmsis_gcc.h **** #else
 325:Drivers/CMSIS/Include/cmsis_gcc.h ****    return(0);
 326:Drivers/CMSIS/Include/cmsis_gcc.h **** #endif
 327:Drivers/CMSIS/Include/cmsis_gcc.h **** }
 328:Drivers/CMSIS/Include/cmsis_gcc.h **** 
 329:Drivers/CMSIS/Include/cmsis_gcc.h **** 
 330:Drivers/CMSIS/Include/cmsis_gcc.h **** /**
 331:Drivers/CMSIS/Include/cmsis_gcc.h ****   \brief   Set FPSCR
 332:Drivers/CMSIS/Include/cmsis_gcc.h ****   \details Assigns the given value to the Floating Point Status/Control register.
 333:Drivers/CMSIS/Include/cmsis_gcc.h ****   \param [in]    fpscr  Floating Point Status/Control value to set
 334:Drivers/CMSIS/Include/cmsis_gcc.h ****  */
 335:Drivers/CMSIS/Include/cmsis_gcc.h **** __attribute__( ( always_inline ) ) __STATIC_INLINE void __set_FPSCR(uint32_t fpscr)
 336:Drivers/CMSIS/Include/cmsis_gcc.h **** {
 337:Drivers/CMSIS/Include/cmsis_gcc.h **** #if (__FPU_PRESENT == 1U) && (__FPU_USED == 1U)
 338:Drivers/CMSIS/Include/cmsis_gcc.h ****   /* Empty asm statement works as a scheduling barrier */
 339:Drivers/CMSIS/Include/cmsis_gcc.h ****   __ASM volatile ("");
 340:Drivers/CMSIS/Include/cmsis_gcc.h ****   __ASM volatile ("VMSR fpscr, %0" : : "r" (fpscr) : "vfpcc");
 341:Drivers/CMSIS/Include/cmsis_gcc.h ****   __ASM volatile ("");
 342:Drivers/CMSIS/Include/cmsis_gcc.h **** #endif
 343:Drivers/CMSIS/Include/cmsis_gcc.h **** }
 344:Drivers/CMSIS/Include/cmsis_gcc.h **** 
 345:Drivers/CMSIS/Include/cmsis_gcc.h **** #endif /* (__CORTEX_M == 0x04U) || (__CORTEX_M == 0x07U) */
 346:Drivers/CMSIS/Include/cmsis_gcc.h **** 
 347:Drivers/CMSIS/Include/cmsis_gcc.h **** 
 348:Drivers/CMSIS/Include/cmsis_gcc.h **** 
 349:Drivers/CMSIS/Include/cmsis_gcc.h **** /*@} end of CMSIS_Core_RegAccFunctions */
 350:Drivers/CMSIS/Include/cmsis_gcc.h **** 
 351:Drivers/CMSIS/Include/cmsis_gcc.h **** 
 352:Drivers/CMSIS/Include/cmsis_gcc.h **** /* ##########################  Core Instruction Access  ######################### */
 353:Drivers/CMSIS/Include/cmsis_gcc.h **** /** \defgroup CMSIS_Core_InstructionInterface CMSIS Core Instruction Interface
 354:Drivers/CMSIS/Include/cmsis_gcc.h ****   Access to dedicated instructions
 355:Drivers/CMSIS/Include/cmsis_gcc.h ****   @{
 356:Drivers/CMSIS/Include/cmsis_gcc.h **** */
 357:Drivers/CMSIS/Include/cmsis_gcc.h **** 
 358:Drivers/CMSIS/Include/cmsis_gcc.h **** /* Define macros for porting to both thumb1 and thumb2.
 359:Drivers/CMSIS/Include/cmsis_gcc.h ****  * For thumb1, use low register (r0-r7), specified by constraint "l"
 360:Drivers/CMSIS/Include/cmsis_gcc.h ****  * Otherwise, use general registers, specified by constraint "r" */
 361:Drivers/CMSIS/Include/cmsis_gcc.h **** #if defined (__thumb__) && !defined (__thumb2__)
 362:Drivers/CMSIS/Include/cmsis_gcc.h **** #define __CMSIS_GCC_OUT_REG(r) "=l" (r)
 363:Drivers/CMSIS/Include/cmsis_gcc.h **** #define __CMSIS_GCC_USE_REG(r) "l" (r)
 364:Drivers/CMSIS/Include/cmsis_gcc.h **** #else
 365:Drivers/CMSIS/Include/cmsis_gcc.h **** #define __CMSIS_GCC_OUT_REG(r) "=r" (r)
 366:Drivers/CMSIS/Include/cmsis_gcc.h **** #define __CMSIS_GCC_USE_REG(r) "r" (r)
 367:Drivers/CMSIS/Include/cmsis_gcc.h **** #endif
 368:Drivers/CMSIS/Include/cmsis_gcc.h **** 
ARM GAS  /tmp/ccTH4Y0M.s 			page 59


 369:Drivers/CMSIS/Include/cmsis_gcc.h **** /**
 370:Drivers/CMSIS/Include/cmsis_gcc.h ****   \brief   No Operation
 371:Drivers/CMSIS/Include/cmsis_gcc.h ****   \details No Operation does nothing. This instruction can be used for code alignment purposes.
 372:Drivers/CMSIS/Include/cmsis_gcc.h ****  */
 373:Drivers/CMSIS/Include/cmsis_gcc.h **** __attribute__((always_inline)) __STATIC_INLINE void __NOP(void)
 374:Drivers/CMSIS/Include/cmsis_gcc.h **** {
 375:Drivers/CMSIS/Include/cmsis_gcc.h ****   __ASM volatile ("nop");
 376:Drivers/CMSIS/Include/cmsis_gcc.h **** }
 377:Drivers/CMSIS/Include/cmsis_gcc.h **** 
 378:Drivers/CMSIS/Include/cmsis_gcc.h **** 
 379:Drivers/CMSIS/Include/cmsis_gcc.h **** /**
 380:Drivers/CMSIS/Include/cmsis_gcc.h ****   \brief   Wait For Interrupt
 381:Drivers/CMSIS/Include/cmsis_gcc.h ****   \details Wait For Interrupt is a hint instruction that suspends execution until one of a number o
 382:Drivers/CMSIS/Include/cmsis_gcc.h ****  */
 383:Drivers/CMSIS/Include/cmsis_gcc.h **** __attribute__((always_inline)) __STATIC_INLINE void __WFI(void)
 384:Drivers/CMSIS/Include/cmsis_gcc.h **** {
 385:Drivers/CMSIS/Include/cmsis_gcc.h ****   __ASM volatile ("wfi");
 386:Drivers/CMSIS/Include/cmsis_gcc.h **** }
 387:Drivers/CMSIS/Include/cmsis_gcc.h **** 
 388:Drivers/CMSIS/Include/cmsis_gcc.h **** 
 389:Drivers/CMSIS/Include/cmsis_gcc.h **** /**
 390:Drivers/CMSIS/Include/cmsis_gcc.h ****   \brief   Wait For Event
 391:Drivers/CMSIS/Include/cmsis_gcc.h ****   \details Wait For Event is a hint instruction that permits the processor to enter
 392:Drivers/CMSIS/Include/cmsis_gcc.h ****     a low-power state until one of a number of events occurs.
 393:Drivers/CMSIS/Include/cmsis_gcc.h ****  */
 394:Drivers/CMSIS/Include/cmsis_gcc.h **** __attribute__((always_inline)) __STATIC_INLINE void __WFE(void)
 395:Drivers/CMSIS/Include/cmsis_gcc.h **** {
 396:Drivers/CMSIS/Include/cmsis_gcc.h ****   __ASM volatile ("wfe");
 397:Drivers/CMSIS/Include/cmsis_gcc.h **** }
 398:Drivers/CMSIS/Include/cmsis_gcc.h **** 
 399:Drivers/CMSIS/Include/cmsis_gcc.h **** 
 400:Drivers/CMSIS/Include/cmsis_gcc.h **** /**
 401:Drivers/CMSIS/Include/cmsis_gcc.h ****   \brief   Send Event
 402:Drivers/CMSIS/Include/cmsis_gcc.h ****   \details Send Event is a hint instruction. It causes an event to be signaled to the CPU.
 403:Drivers/CMSIS/Include/cmsis_gcc.h ****  */
 404:Drivers/CMSIS/Include/cmsis_gcc.h **** __attribute__((always_inline)) __STATIC_INLINE void __SEV(void)
 405:Drivers/CMSIS/Include/cmsis_gcc.h **** {
 406:Drivers/CMSIS/Include/cmsis_gcc.h ****   __ASM volatile ("sev");
 407:Drivers/CMSIS/Include/cmsis_gcc.h **** }
 408:Drivers/CMSIS/Include/cmsis_gcc.h **** 
 409:Drivers/CMSIS/Include/cmsis_gcc.h **** 
 410:Drivers/CMSIS/Include/cmsis_gcc.h **** /**
 411:Drivers/CMSIS/Include/cmsis_gcc.h ****   \brief   Instruction Synchronization Barrier
 412:Drivers/CMSIS/Include/cmsis_gcc.h ****   \details Instruction Synchronization Barrier flushes the pipeline in the processor,
 413:Drivers/CMSIS/Include/cmsis_gcc.h ****            so that all instructions following the ISB are fetched from cache or memory,
 414:Drivers/CMSIS/Include/cmsis_gcc.h ****            after the instruction has been completed.
 415:Drivers/CMSIS/Include/cmsis_gcc.h ****  */
 416:Drivers/CMSIS/Include/cmsis_gcc.h **** __attribute__((always_inline)) __STATIC_INLINE void __ISB(void)
 417:Drivers/CMSIS/Include/cmsis_gcc.h **** {
 418:Drivers/CMSIS/Include/cmsis_gcc.h ****   __ASM volatile ("isb 0xF":::"memory");
 419:Drivers/CMSIS/Include/cmsis_gcc.h **** }
 420:Drivers/CMSIS/Include/cmsis_gcc.h **** 
 421:Drivers/CMSIS/Include/cmsis_gcc.h **** 
 422:Drivers/CMSIS/Include/cmsis_gcc.h **** /**
 423:Drivers/CMSIS/Include/cmsis_gcc.h ****   \brief   Data Synchronization Barrier
 424:Drivers/CMSIS/Include/cmsis_gcc.h ****   \details Acts as a special kind of Data Memory Barrier.
 425:Drivers/CMSIS/Include/cmsis_gcc.h ****            It completes when all explicit memory accesses before this instruction complete.
ARM GAS  /tmp/ccTH4Y0M.s 			page 60


 426:Drivers/CMSIS/Include/cmsis_gcc.h ****  */
 427:Drivers/CMSIS/Include/cmsis_gcc.h **** __attribute__((always_inline)) __STATIC_INLINE void __DSB(void)
 428:Drivers/CMSIS/Include/cmsis_gcc.h **** {
 429:Drivers/CMSIS/Include/cmsis_gcc.h ****   __ASM volatile ("dsb 0xF":::"memory");
 430:Drivers/CMSIS/Include/cmsis_gcc.h **** }
 431:Drivers/CMSIS/Include/cmsis_gcc.h **** 
 432:Drivers/CMSIS/Include/cmsis_gcc.h **** 
 433:Drivers/CMSIS/Include/cmsis_gcc.h **** /**
 434:Drivers/CMSIS/Include/cmsis_gcc.h ****   \brief   Data Memory Barrier
 435:Drivers/CMSIS/Include/cmsis_gcc.h ****   \details Ensures the apparent order of the explicit memory operations before
 436:Drivers/CMSIS/Include/cmsis_gcc.h ****            and after the instruction, without ensuring their completion.
 437:Drivers/CMSIS/Include/cmsis_gcc.h ****  */
 438:Drivers/CMSIS/Include/cmsis_gcc.h **** __attribute__((always_inline)) __STATIC_INLINE void __DMB(void)
 439:Drivers/CMSIS/Include/cmsis_gcc.h **** {
 440:Drivers/CMSIS/Include/cmsis_gcc.h ****   __ASM volatile ("dmb 0xF":::"memory");
 441:Drivers/CMSIS/Include/cmsis_gcc.h **** }
 442:Drivers/CMSIS/Include/cmsis_gcc.h **** 
 443:Drivers/CMSIS/Include/cmsis_gcc.h **** 
 444:Drivers/CMSIS/Include/cmsis_gcc.h **** /**
 445:Drivers/CMSIS/Include/cmsis_gcc.h ****   \brief   Reverse byte order (32 bit)
 446:Drivers/CMSIS/Include/cmsis_gcc.h ****   \details Reverses the byte order in integer value.
 447:Drivers/CMSIS/Include/cmsis_gcc.h ****   \param [in]    value  Value to reverse
 448:Drivers/CMSIS/Include/cmsis_gcc.h ****   \return               Reversed value
 449:Drivers/CMSIS/Include/cmsis_gcc.h ****  */
 450:Drivers/CMSIS/Include/cmsis_gcc.h **** __attribute__((always_inline)) __STATIC_INLINE uint32_t __REV(uint32_t value)
 451:Drivers/CMSIS/Include/cmsis_gcc.h **** {
 452:Drivers/CMSIS/Include/cmsis_gcc.h **** #if (__GNUC__ > 4) || (__GNUC__ == 4 && __GNUC_MINOR__ >= 5)
 453:Drivers/CMSIS/Include/cmsis_gcc.h ****   return __builtin_bswap32(value);
 454:Drivers/CMSIS/Include/cmsis_gcc.h **** #else
 455:Drivers/CMSIS/Include/cmsis_gcc.h ****   uint32_t result;
 456:Drivers/CMSIS/Include/cmsis_gcc.h **** 
 457:Drivers/CMSIS/Include/cmsis_gcc.h ****   __ASM volatile ("rev %0, %1" : __CMSIS_GCC_OUT_REG (result) : __CMSIS_GCC_USE_REG (value) );
 458:Drivers/CMSIS/Include/cmsis_gcc.h ****   return(result);
 459:Drivers/CMSIS/Include/cmsis_gcc.h **** #endif
 460:Drivers/CMSIS/Include/cmsis_gcc.h **** }
 461:Drivers/CMSIS/Include/cmsis_gcc.h **** 
 462:Drivers/CMSIS/Include/cmsis_gcc.h **** 
 463:Drivers/CMSIS/Include/cmsis_gcc.h **** /**
 464:Drivers/CMSIS/Include/cmsis_gcc.h ****   \brief   Reverse byte order (16 bit)
 465:Drivers/CMSIS/Include/cmsis_gcc.h ****   \details Reverses the byte order in two unsigned short values.
 466:Drivers/CMSIS/Include/cmsis_gcc.h ****   \param [in]    value  Value to reverse
 467:Drivers/CMSIS/Include/cmsis_gcc.h ****   \return               Reversed value
 468:Drivers/CMSIS/Include/cmsis_gcc.h ****  */
 469:Drivers/CMSIS/Include/cmsis_gcc.h **** __attribute__((always_inline)) __STATIC_INLINE uint32_t __REV16(uint32_t value)
 470:Drivers/CMSIS/Include/cmsis_gcc.h **** {
 471:Drivers/CMSIS/Include/cmsis_gcc.h ****   uint32_t result;
 472:Drivers/CMSIS/Include/cmsis_gcc.h **** 
 473:Drivers/CMSIS/Include/cmsis_gcc.h ****   __ASM volatile ("rev16 %0, %1" : __CMSIS_GCC_OUT_REG (result) : __CMSIS_GCC_USE_REG (value) );
 474:Drivers/CMSIS/Include/cmsis_gcc.h ****   return(result);
 475:Drivers/CMSIS/Include/cmsis_gcc.h **** }
 476:Drivers/CMSIS/Include/cmsis_gcc.h **** 
 477:Drivers/CMSIS/Include/cmsis_gcc.h **** 
 478:Drivers/CMSIS/Include/cmsis_gcc.h **** /**
 479:Drivers/CMSIS/Include/cmsis_gcc.h ****   \brief   Reverse byte order in signed short value
 480:Drivers/CMSIS/Include/cmsis_gcc.h ****   \details Reverses the byte order in a signed short value with sign extension to integer.
 481:Drivers/CMSIS/Include/cmsis_gcc.h ****   \param [in]    value  Value to reverse
 482:Drivers/CMSIS/Include/cmsis_gcc.h ****   \return               Reversed value
ARM GAS  /tmp/ccTH4Y0M.s 			page 61


 483:Drivers/CMSIS/Include/cmsis_gcc.h ****  */
 484:Drivers/CMSIS/Include/cmsis_gcc.h **** __attribute__((always_inline)) __STATIC_INLINE int32_t __REVSH(int32_t value)
 485:Drivers/CMSIS/Include/cmsis_gcc.h **** {
 486:Drivers/CMSIS/Include/cmsis_gcc.h **** #if (__GNUC__ > 4) || (__GNUC__ == 4 && __GNUC_MINOR__ >= 8)
 487:Drivers/CMSIS/Include/cmsis_gcc.h ****   return (short)__builtin_bswap16(value);
 488:Drivers/CMSIS/Include/cmsis_gcc.h **** #else
 489:Drivers/CMSIS/Include/cmsis_gcc.h ****   int32_t result;
 490:Drivers/CMSIS/Include/cmsis_gcc.h **** 
 491:Drivers/CMSIS/Include/cmsis_gcc.h ****   __ASM volatile ("revsh %0, %1" : __CMSIS_GCC_OUT_REG (result) : __CMSIS_GCC_USE_REG (value) );
 492:Drivers/CMSIS/Include/cmsis_gcc.h ****   return(result);
 493:Drivers/CMSIS/Include/cmsis_gcc.h **** #endif
 494:Drivers/CMSIS/Include/cmsis_gcc.h **** }
 495:Drivers/CMSIS/Include/cmsis_gcc.h **** 
 496:Drivers/CMSIS/Include/cmsis_gcc.h **** 
 497:Drivers/CMSIS/Include/cmsis_gcc.h **** /**
 498:Drivers/CMSIS/Include/cmsis_gcc.h ****   \brief   Rotate Right in unsigned value (32 bit)
 499:Drivers/CMSIS/Include/cmsis_gcc.h ****   \details Rotate Right (immediate) provides the value of the contents of a register rotated by a v
 500:Drivers/CMSIS/Include/cmsis_gcc.h ****   \param [in]    value  Value to rotate
 501:Drivers/CMSIS/Include/cmsis_gcc.h ****   \param [in]    value  Number of Bits to rotate
 502:Drivers/CMSIS/Include/cmsis_gcc.h ****   \return               Rotated value
 503:Drivers/CMSIS/Include/cmsis_gcc.h ****  */
 504:Drivers/CMSIS/Include/cmsis_gcc.h **** __attribute__((always_inline)) __STATIC_INLINE uint32_t __ROR(uint32_t op1, uint32_t op2)
 505:Drivers/CMSIS/Include/cmsis_gcc.h **** {
 506:Drivers/CMSIS/Include/cmsis_gcc.h ****   return (op1 >> op2) | (op1 << (32U - op2));
 507:Drivers/CMSIS/Include/cmsis_gcc.h **** }
 508:Drivers/CMSIS/Include/cmsis_gcc.h **** 
 509:Drivers/CMSIS/Include/cmsis_gcc.h **** 
 510:Drivers/CMSIS/Include/cmsis_gcc.h **** /**
 511:Drivers/CMSIS/Include/cmsis_gcc.h ****   \brief   Breakpoint
 512:Drivers/CMSIS/Include/cmsis_gcc.h ****   \details Causes the processor to enter Debug state.
 513:Drivers/CMSIS/Include/cmsis_gcc.h ****            Debug tools can use this to investigate system state when the instruction at a particula
 514:Drivers/CMSIS/Include/cmsis_gcc.h ****   \param [in]    value  is ignored by the processor.
 515:Drivers/CMSIS/Include/cmsis_gcc.h ****                  If required, a debugger can use it to store additional information about the break
 516:Drivers/CMSIS/Include/cmsis_gcc.h ****  */
 517:Drivers/CMSIS/Include/cmsis_gcc.h **** #define __BKPT(value)                       __ASM volatile ("bkpt "#value)
 518:Drivers/CMSIS/Include/cmsis_gcc.h **** 
 519:Drivers/CMSIS/Include/cmsis_gcc.h **** 
 520:Drivers/CMSIS/Include/cmsis_gcc.h **** /**
 521:Drivers/CMSIS/Include/cmsis_gcc.h ****   \brief   Reverse bit order of value
 522:Drivers/CMSIS/Include/cmsis_gcc.h ****   \details Reverses the bit order of the given value.
 523:Drivers/CMSIS/Include/cmsis_gcc.h ****   \param [in]    value  Value to reverse
 524:Drivers/CMSIS/Include/cmsis_gcc.h ****   \return               Reversed value
 525:Drivers/CMSIS/Include/cmsis_gcc.h ****  */
 526:Drivers/CMSIS/Include/cmsis_gcc.h **** __attribute__((always_inline)) __STATIC_INLINE uint32_t __RBIT(uint32_t value)
 1590              		.loc 2 526 57 view .LVU508
 1591              	.LBB5:
 527:Drivers/CMSIS/Include/cmsis_gcc.h **** {
 528:Drivers/CMSIS/Include/cmsis_gcc.h ****   uint32_t result;
 1592              		.loc 2 528 3 view .LVU509
 529:Drivers/CMSIS/Include/cmsis_gcc.h **** 
 530:Drivers/CMSIS/Include/cmsis_gcc.h **** #if       (__CORTEX_M >= 0x03U) || (__CORTEX_SC >= 300U)
 531:Drivers/CMSIS/Include/cmsis_gcc.h ****    __ASM volatile ("rbit %0, %1" : "=r" (result) : "r" (value) );
 1593              		.loc 2 531 4 view .LVU510
 1594              		.syntax unified
 1595              	@ 531 "Drivers/CMSIS/Include/cmsis_gcc.h" 1
 1596 0010 91FAA1F1 		rbit r1, r1
 1597              	@ 0 "" 2
ARM GAS  /tmp/ccTH4Y0M.s 			page 62


 1598              	.LVL119:
 532:Drivers/CMSIS/Include/cmsis_gcc.h **** #else
 533:Drivers/CMSIS/Include/cmsis_gcc.h ****   int32_t s = 4 /*sizeof(v)*/ * 8 - 1; /* extra shift needed at end */
 534:Drivers/CMSIS/Include/cmsis_gcc.h **** 
 535:Drivers/CMSIS/Include/cmsis_gcc.h ****   result = value;                      /* r will be reversed bits of v; first get LSB of v */
 536:Drivers/CMSIS/Include/cmsis_gcc.h ****   for (value >>= 1U; value; value >>= 1U)
 537:Drivers/CMSIS/Include/cmsis_gcc.h ****   {
 538:Drivers/CMSIS/Include/cmsis_gcc.h ****     result <<= 1U;
 539:Drivers/CMSIS/Include/cmsis_gcc.h ****     result |= value & 1U;
 540:Drivers/CMSIS/Include/cmsis_gcc.h ****     s--;
 541:Drivers/CMSIS/Include/cmsis_gcc.h ****   }
 542:Drivers/CMSIS/Include/cmsis_gcc.h ****   result <<= s;                        /* shift when v's highest bits are zero */
 543:Drivers/CMSIS/Include/cmsis_gcc.h **** #endif
 544:Drivers/CMSIS/Include/cmsis_gcc.h ****   return(result);
 1599              		.loc 2 544 3 view .LVU511
 1600              		.loc 2 544 3 is_stmt 0 view .LVU512
 1601              		.thumb
 1602              		.syntax unified
 1603              	.LBE5:
 1604              	.LBE4:
1081:Drivers/STM32F3xx_HAL_Driver/Src/stm32f3xx_hal_can.c **** 
 1605              		.loc 1 1081 23 view .LVU513
 1606 0014 B1FA81F1 		clz	r1, r1
 1607              	.LVL120:
1084:Drivers/STM32F3xx_HAL_Driver/Src/stm32f3xx_hal_can.c ****   }
 1608              		.loc 1 1084 5 is_stmt 1 view .LVU514
1084:Drivers/STM32F3xx_HAL_Driver/Src/stm32f3xx_hal_can.c ****   }
 1609              		.loc 1 1084 22 is_stmt 0 view .LVU515
 1610 0018 0368     		ldr	r3, [r0]
1084:Drivers/STM32F3xx_HAL_Driver/Src/stm32f3xx_hal_can.c ****   }
 1611              		.loc 1 1084 61 view .LVU516
 1612 001a 1831     		adds	r1, r1, #24
 1613              	.LVL121:
1084:Drivers/STM32F3xx_HAL_Driver/Src/stm32f3xx_hal_can.c ****   }
 1614              		.loc 1 1084 61 view .LVU517
 1615 001c 03EB0111 		add	r1, r3, r1, lsl #4
 1616              	.LVL122:
1084:Drivers/STM32F3xx_HAL_Driver/Src/stm32f3xx_hal_can.c ****   }
 1617              		.loc 1 1084 61 view .LVU518
 1618 0020 4868     		ldr	r0, [r1, #4]
 1619              	.LVL123:
1084:Drivers/STM32F3xx_HAL_Driver/Src/stm32f3xx_hal_can.c ****   }
 1620              		.loc 1 1084 85 view .LVU519
 1621 0022 000C     		lsrs	r0, r0, #16
 1622              	.LVL124:
1084:Drivers/STM32F3xx_HAL_Driver/Src/stm32f3xx_hal_can.c ****   }
 1623              		.loc 1 1084 85 view .LVU520
 1624 0024 7047     		bx	lr
 1625              		.cfi_endproc
 1626              	.LFE140:
 1628              		.section	.text.HAL_CAN_GetRxMessage,"ax",%progbits
 1629              		.align	1
 1630              		.global	HAL_CAN_GetRxMessage
 1631              		.syntax unified
 1632              		.thumb
 1633              		.thumb_func
 1634              		.fpu fpv4-sp-d16
ARM GAS  /tmp/ccTH4Y0M.s 			page 63


 1636              	HAL_CAN_GetRxMessage:
 1637              	.LVL125:
 1638              	.LFB141:
1090:Drivers/STM32F3xx_HAL_Driver/Src/stm32f3xx_hal_can.c **** 
1091:Drivers/STM32F3xx_HAL_Driver/Src/stm32f3xx_hal_can.c **** /**
1092:Drivers/STM32F3xx_HAL_Driver/Src/stm32f3xx_hal_can.c ****   * @brief  Get an CAN frame from the Rx FIFO zone into the message RAM.
1093:Drivers/STM32F3xx_HAL_Driver/Src/stm32f3xx_hal_can.c ****   * @param  hcan pointer to an CAN_HandleTypeDef structure that contains
1094:Drivers/STM32F3xx_HAL_Driver/Src/stm32f3xx_hal_can.c ****   *         the configuration information for the specified CAN.
1095:Drivers/STM32F3xx_HAL_Driver/Src/stm32f3xx_hal_can.c ****   * @param  RxFifo Fifo number of the received message to be read.
1096:Drivers/STM32F3xx_HAL_Driver/Src/stm32f3xx_hal_can.c ****   *         This parameter can be a value of @arg CAN_receive_FIFO_number.
1097:Drivers/STM32F3xx_HAL_Driver/Src/stm32f3xx_hal_can.c ****   * @param  pHeader pointer to a CAN_RxHeaderTypeDef structure where the header
1098:Drivers/STM32F3xx_HAL_Driver/Src/stm32f3xx_hal_can.c ****   *         of the Rx frame will be stored.
1099:Drivers/STM32F3xx_HAL_Driver/Src/stm32f3xx_hal_can.c ****   * @param  aData array where the payload of the Rx frame will be stored.
1100:Drivers/STM32F3xx_HAL_Driver/Src/stm32f3xx_hal_can.c ****   * @retval HAL status
1101:Drivers/STM32F3xx_HAL_Driver/Src/stm32f3xx_hal_can.c ****   */
1102:Drivers/STM32F3xx_HAL_Driver/Src/stm32f3xx_hal_can.c **** HAL_StatusTypeDef HAL_CAN_GetRxMessage(CAN_HandleTypeDef *hcan, uint32_t RxFifo, CAN_RxHeaderTypeDe
1103:Drivers/STM32F3xx_HAL_Driver/Src/stm32f3xx_hal_can.c **** {
 1639              		.loc 1 1103 1 is_stmt 1 view -0
 1640              		.cfi_startproc
 1641              		@ args = 0, pretend = 0, frame = 0
 1642              		@ frame_needed = 0, uses_anonymous_args = 0
 1643              		@ link register save eliminated.
 1644              		.loc 1 1103 1 is_stmt 0 view .LVU522
 1645 0000 30B4     		push	{r4, r5}
 1646              	.LCFI13:
 1647              		.cfi_def_cfa_offset 8
 1648              		.cfi_offset 4, -8
 1649              		.cfi_offset 5, -4
1104:Drivers/STM32F3xx_HAL_Driver/Src/stm32f3xx_hal_can.c ****   HAL_CAN_StateTypeDef state = hcan->State;
 1650              		.loc 1 1104 3 is_stmt 1 view .LVU523
 1651              		.loc 1 1104 24 is_stmt 0 view .LVU524
 1652 0002 90F82040 		ldrb	r4, [r0, #32]	@ zero_extendqisi2
 1653              	.LVL126:
1105:Drivers/STM32F3xx_HAL_Driver/Src/stm32f3xx_hal_can.c **** 
1106:Drivers/STM32F3xx_HAL_Driver/Src/stm32f3xx_hal_can.c ****   assert_param(IS_CAN_RX_FIFO(RxFifo));
 1654              		.loc 1 1106 3 is_stmt 1 view .LVU525
1107:Drivers/STM32F3xx_HAL_Driver/Src/stm32f3xx_hal_can.c **** 
1108:Drivers/STM32F3xx_HAL_Driver/Src/stm32f3xx_hal_can.c ****   if ((state == HAL_CAN_STATE_READY) ||
 1655              		.loc 1 1108 3 view .LVU526
 1656              		.loc 1 1108 38 is_stmt 0 view .LVU527
 1657 0006 013C     		subs	r4, r4, #1
 1658              	.LVL127:
 1659              		.loc 1 1108 38 view .LVU528
 1660 0008 E4B2     		uxtb	r4, r4
 1661              		.loc 1 1108 6 view .LVU529
 1662 000a 012C     		cmp	r4, #1
 1663 000c 00F28A80 		bhi	.L129
1109:Drivers/STM32F3xx_HAL_Driver/Src/stm32f3xx_hal_can.c ****       (state == HAL_CAN_STATE_LISTENING))
1110:Drivers/STM32F3xx_HAL_Driver/Src/stm32f3xx_hal_can.c ****   {
1111:Drivers/STM32F3xx_HAL_Driver/Src/stm32f3xx_hal_can.c ****     /* Check the Rx FIFO */
1112:Drivers/STM32F3xx_HAL_Driver/Src/stm32f3xx_hal_can.c ****     if (RxFifo == CAN_RX_FIFO0) /* Rx element is assigned to Rx FIFO 0 */
 1664              		.loc 1 1112 5 is_stmt 1 view .LVU530
 1665              		.loc 1 1112 8 is_stmt 0 view .LVU531
 1666 0010 51B9     		cbnz	r1, .L130
1113:Drivers/STM32F3xx_HAL_Driver/Src/stm32f3xx_hal_can.c ****     {
1114:Drivers/STM32F3xx_HAL_Driver/Src/stm32f3xx_hal_can.c ****       /* Check that the Rx FIFO 0 is not empty */
1115:Drivers/STM32F3xx_HAL_Driver/Src/stm32f3xx_hal_can.c ****       if ((hcan->Instance->RF0R & CAN_RF0R_FMP0) == 0U)
ARM GAS  /tmp/ccTH4Y0M.s 			page 64


 1667              		.loc 1 1115 7 is_stmt 1 view .LVU532
 1668              		.loc 1 1115 16 is_stmt 0 view .LVU533
 1669 0012 0468     		ldr	r4, [r0]
 1670              		.loc 1 1115 26 view .LVU534
 1671 0014 E468     		ldr	r4, [r4, #12]
 1672              		.loc 1 1115 10 view .LVU535
 1673 0016 14F0030F 		tst	r4, #3
 1674 001a 10D1     		bne	.L131
1116:Drivers/STM32F3xx_HAL_Driver/Src/stm32f3xx_hal_can.c ****       {
1117:Drivers/STM32F3xx_HAL_Driver/Src/stm32f3xx_hal_can.c ****         /* Update error code */
1118:Drivers/STM32F3xx_HAL_Driver/Src/stm32f3xx_hal_can.c ****         hcan->ErrorCode |= HAL_CAN_ERROR_PARAM;
 1675              		.loc 1 1118 9 is_stmt 1 view .LVU536
 1676              		.loc 1 1118 25 is_stmt 0 view .LVU537
 1677 001c 436A     		ldr	r3, [r0, #36]
 1678              	.LVL128:
 1679              		.loc 1 1118 25 view .LVU538
 1680 001e 43F40013 		orr	r3, r3, #2097152
 1681 0022 4362     		str	r3, [r0, #36]
1119:Drivers/STM32F3xx_HAL_Driver/Src/stm32f3xx_hal_can.c **** 
1120:Drivers/STM32F3xx_HAL_Driver/Src/stm32f3xx_hal_can.c ****         return HAL_ERROR;
 1682              		.loc 1 1120 9 is_stmt 1 view .LVU539
 1683              		.loc 1 1120 16 is_stmt 0 view .LVU540
 1684 0024 0120     		movs	r0, #1
 1685              	.LVL129:
 1686              		.loc 1 1120 16 view .LVU541
 1687 0026 82E0     		b	.L132
 1688              	.LVL130:
 1689              	.L130:
1121:Drivers/STM32F3xx_HAL_Driver/Src/stm32f3xx_hal_can.c ****       }
1122:Drivers/STM32F3xx_HAL_Driver/Src/stm32f3xx_hal_can.c ****     }
1123:Drivers/STM32F3xx_HAL_Driver/Src/stm32f3xx_hal_can.c ****     else /* Rx element is assigned to Rx FIFO 1 */
1124:Drivers/STM32F3xx_HAL_Driver/Src/stm32f3xx_hal_can.c ****     {
1125:Drivers/STM32F3xx_HAL_Driver/Src/stm32f3xx_hal_can.c ****       /* Check that the Rx FIFO 1 is not empty */
1126:Drivers/STM32F3xx_HAL_Driver/Src/stm32f3xx_hal_can.c ****       if ((hcan->Instance->RF1R & CAN_RF1R_FMP1) == 0U)
 1690              		.loc 1 1126 7 is_stmt 1 view .LVU542
 1691              		.loc 1 1126 16 is_stmt 0 view .LVU543
 1692 0028 0468     		ldr	r4, [r0]
 1693              		.loc 1 1126 26 view .LVU544
 1694 002a 2469     		ldr	r4, [r4, #16]
 1695              		.loc 1 1126 10 view .LVU545
 1696 002c 14F0030F 		tst	r4, #3
 1697 0030 05D1     		bne	.L131
1127:Drivers/STM32F3xx_HAL_Driver/Src/stm32f3xx_hal_can.c ****       {
1128:Drivers/STM32F3xx_HAL_Driver/Src/stm32f3xx_hal_can.c ****         /* Update error code */
1129:Drivers/STM32F3xx_HAL_Driver/Src/stm32f3xx_hal_can.c ****         hcan->ErrorCode |= HAL_CAN_ERROR_PARAM;
 1698              		.loc 1 1129 9 is_stmt 1 view .LVU546
 1699              		.loc 1 1129 25 is_stmt 0 view .LVU547
 1700 0032 436A     		ldr	r3, [r0, #36]
 1701              	.LVL131:
 1702              		.loc 1 1129 25 view .LVU548
 1703 0034 43F40013 		orr	r3, r3, #2097152
 1704 0038 4362     		str	r3, [r0, #36]
1130:Drivers/STM32F3xx_HAL_Driver/Src/stm32f3xx_hal_can.c **** 
1131:Drivers/STM32F3xx_HAL_Driver/Src/stm32f3xx_hal_can.c ****         return HAL_ERROR;
 1705              		.loc 1 1131 9 is_stmt 1 view .LVU549
 1706              		.loc 1 1131 16 is_stmt 0 view .LVU550
 1707 003a 0120     		movs	r0, #1
ARM GAS  /tmp/ccTH4Y0M.s 			page 65


 1708              	.LVL132:
 1709              		.loc 1 1131 16 view .LVU551
 1710 003c 77E0     		b	.L132
 1711              	.LVL133:
 1712              	.L131:
1132:Drivers/STM32F3xx_HAL_Driver/Src/stm32f3xx_hal_can.c ****       }
1133:Drivers/STM32F3xx_HAL_Driver/Src/stm32f3xx_hal_can.c ****     }
1134:Drivers/STM32F3xx_HAL_Driver/Src/stm32f3xx_hal_can.c **** 
1135:Drivers/STM32F3xx_HAL_Driver/Src/stm32f3xx_hal_can.c ****     /* Get the header */
1136:Drivers/STM32F3xx_HAL_Driver/Src/stm32f3xx_hal_can.c ****     pHeader->IDE = CAN_RI0R_IDE & hcan->Instance->sFIFOMailBox[RxFifo].RIR;
 1713              		.loc 1 1136 5 is_stmt 1 view .LVU552
 1714              		.loc 1 1136 39 is_stmt 0 view .LVU553
 1715 003e 0568     		ldr	r5, [r0]
 1716              		.loc 1 1136 71 view .LVU554
 1717 0040 01F11B04 		add	r4, r1, #27
 1718 0044 2401     		lsls	r4, r4, #4
 1719 0046 2C59     		ldr	r4, [r5, r4]
 1720              		.loc 1 1136 33 view .LVU555
 1721 0048 04F00404 		and	r4, r4, #4
 1722              		.loc 1 1136 18 view .LVU556
 1723 004c 9460     		str	r4, [r2, #8]
1137:Drivers/STM32F3xx_HAL_Driver/Src/stm32f3xx_hal_can.c ****     if (pHeader->IDE == CAN_ID_STD)
 1724              		.loc 1 1137 5 is_stmt 1 view .LVU557
 1725              		.loc 1 1137 8 is_stmt 0 view .LVU558
 1726 004e 002C     		cmp	r4, #0
 1727 0050 5AD1     		bne	.L133
1138:Drivers/STM32F3xx_HAL_Driver/Src/stm32f3xx_hal_can.c ****     {
1139:Drivers/STM32F3xx_HAL_Driver/Src/stm32f3xx_hal_can.c ****       pHeader->StdId = (CAN_RI0R_STID & hcan->Instance->sFIFOMailBox[RxFifo].RIR) >> CAN_TI0R_STID_
 1728              		.loc 1 1139 7 is_stmt 1 view .LVU559
 1729              		.loc 1 1139 45 is_stmt 0 view .LVU560
 1730 0052 0568     		ldr	r5, [r0]
 1731              		.loc 1 1139 77 view .LVU561
 1732 0054 01F11B04 		add	r4, r1, #27
 1733 0058 2401     		lsls	r4, r4, #4
 1734 005a 2C59     		ldr	r4, [r5, r4]
 1735              		.loc 1 1139 83 view .LVU562
 1736 005c 640D     		lsrs	r4, r4, #21
 1737              		.loc 1 1139 22 view .LVU563
 1738 005e 1460     		str	r4, [r2]
 1739              	.L134:
1140:Drivers/STM32F3xx_HAL_Driver/Src/stm32f3xx_hal_can.c ****     }
1141:Drivers/STM32F3xx_HAL_Driver/Src/stm32f3xx_hal_can.c ****     else
1142:Drivers/STM32F3xx_HAL_Driver/Src/stm32f3xx_hal_can.c ****     {
1143:Drivers/STM32F3xx_HAL_Driver/Src/stm32f3xx_hal_can.c ****       pHeader->ExtId = ((CAN_RI0R_EXID | CAN_RI0R_STID) & hcan->Instance->sFIFOMailBox[RxFifo].RIR)
1144:Drivers/STM32F3xx_HAL_Driver/Src/stm32f3xx_hal_can.c ****     }
1145:Drivers/STM32F3xx_HAL_Driver/Src/stm32f3xx_hal_can.c ****     pHeader->RTR = (CAN_RI0R_RTR & hcan->Instance->sFIFOMailBox[RxFifo].RIR) >> CAN_RI0R_RTR_Pos;
 1740              		.loc 1 1145 5 is_stmt 1 view .LVU564
 1741              		.loc 1 1145 40 is_stmt 0 view .LVU565
 1742 0060 0568     		ldr	r5, [r0]
 1743              		.loc 1 1145 72 view .LVU566
 1744 0062 01F11B04 		add	r4, r1, #27
 1745 0066 2401     		lsls	r4, r4, #4
 1746 0068 2D59     		ldr	r5, [r5, r4]
 1747              		.loc 1 1145 78 view .LVU567
 1748 006a C5F34005 		ubfx	r5, r5, #1, #1
 1749              		.loc 1 1145 18 view .LVU568
 1750 006e D560     		str	r5, [r2, #12]
ARM GAS  /tmp/ccTH4Y0M.s 			page 66


1146:Drivers/STM32F3xx_HAL_Driver/Src/stm32f3xx_hal_can.c ****     pHeader->DLC = (CAN_RDT0R_DLC & hcan->Instance->sFIFOMailBox[RxFifo].RDTR) >> CAN_RDT0R_DLC_Pos
 1751              		.loc 1 1146 5 is_stmt 1 view .LVU569
 1752              		.loc 1 1146 41 is_stmt 0 view .LVU570
 1753 0070 0568     		ldr	r5, [r0]
 1754              		.loc 1 1146 73 view .LVU571
 1755 0072 2544     		add	r5, r5, r4
 1756 0074 6D68     		ldr	r5, [r5, #4]
 1757              		.loc 1 1146 80 view .LVU572
 1758 0076 05F00F05 		and	r5, r5, #15
 1759              		.loc 1 1146 18 view .LVU573
 1760 007a 1561     		str	r5, [r2, #16]
1147:Drivers/STM32F3xx_HAL_Driver/Src/stm32f3xx_hal_can.c ****     pHeader->FilterMatchIndex = (CAN_RDT0R_FMI & hcan->Instance->sFIFOMailBox[RxFifo].RDTR) >> CAN_
 1761              		.loc 1 1147 5 is_stmt 1 view .LVU574
 1762              		.loc 1 1147 54 is_stmt 0 view .LVU575
 1763 007c 0568     		ldr	r5, [r0]
 1764              		.loc 1 1147 86 view .LVU576
 1765 007e 2544     		add	r5, r5, r4
 1766 0080 6D68     		ldr	r5, [r5, #4]
 1767              		.loc 1 1147 93 view .LVU577
 1768 0082 C5F30725 		ubfx	r5, r5, #8, #8
 1769              		.loc 1 1147 31 view .LVU578
 1770 0086 9561     		str	r5, [r2, #24]
1148:Drivers/STM32F3xx_HAL_Driver/Src/stm32f3xx_hal_can.c ****     pHeader->Timestamp = (CAN_RDT0R_TIME & hcan->Instance->sFIFOMailBox[RxFifo].RDTR) >> CAN_RDT0R_
 1771              		.loc 1 1148 5 is_stmt 1 view .LVU579
 1772              		.loc 1 1148 48 is_stmt 0 view .LVU580
 1773 0088 0568     		ldr	r5, [r0]
 1774              		.loc 1 1148 80 view .LVU581
 1775 008a 2C44     		add	r4, r4, r5
 1776 008c 6468     		ldr	r4, [r4, #4]
 1777              		.loc 1 1148 87 view .LVU582
 1778 008e 240C     		lsrs	r4, r4, #16
 1779              		.loc 1 1148 24 view .LVU583
 1780 0090 5461     		str	r4, [r2, #20]
1149:Drivers/STM32F3xx_HAL_Driver/Src/stm32f3xx_hal_can.c **** 
1150:Drivers/STM32F3xx_HAL_Driver/Src/stm32f3xx_hal_can.c ****     /* Get the data */
1151:Drivers/STM32F3xx_HAL_Driver/Src/stm32f3xx_hal_can.c ****     aData[0] = (uint8_t)((CAN_RDL0R_DATA0 & hcan->Instance->sFIFOMailBox[RxFifo].RDLR) >> CAN_RDL0R
 1781              		.loc 1 1151 5 is_stmt 1 view .LVU584
 1782              		.loc 1 1151 49 is_stmt 0 view .LVU585
 1783 0092 0468     		ldr	r4, [r0]
 1784              		.loc 1 1151 81 view .LVU586
 1785 0094 0A01     		lsls	r2, r1, #4
 1786              	.LVL134:
 1787              		.loc 1 1151 81 view .LVU587
 1788 0096 1444     		add	r4, r4, r2
 1789 0098 D4F8B841 		ldr	r4, [r4, #440]
 1790              		.loc 1 1151 14 view .LVU588
 1791 009c 1C70     		strb	r4, [r3]
1152:Drivers/STM32F3xx_HAL_Driver/Src/stm32f3xx_hal_can.c ****     aData[1] = (uint8_t)((CAN_RDL0R_DATA1 & hcan->Instance->sFIFOMailBox[RxFifo].RDLR) >> CAN_RDL0R
 1792              		.loc 1 1152 5 is_stmt 1 view .LVU589
 1793              		.loc 1 1152 49 is_stmt 0 view .LVU590
 1794 009e 0468     		ldr	r4, [r0]
 1795              		.loc 1 1152 81 view .LVU591
 1796 00a0 1444     		add	r4, r4, r2
 1797 00a2 D4F8B841 		ldr	r4, [r4, #440]
 1798              		.loc 1 1152 16 view .LVU592
 1799 00a6 C4F30724 		ubfx	r4, r4, #8, #8
 1800              		.loc 1 1152 14 view .LVU593
ARM GAS  /tmp/ccTH4Y0M.s 			page 67


 1801 00aa 5C70     		strb	r4, [r3, #1]
