ARM GAS  C:\Users\acw\AppData\Local\Temp\cc19hnAV.s 			page 1


   1              		.cpu cortex-m4
   2              		.eabi_attribute 27, 1
   3              		.eabi_attribute 28, 1
   4              		.eabi_attribute 20, 1
   5              		.eabi_attribute 21, 1
   6              		.eabi_attribute 23, 3
   7              		.eabi_attribute 24, 1
   8              		.eabi_attribute 25, 1
   9              		.eabi_attribute 26, 1
  10              		.eabi_attribute 30, 1
  11              		.eabi_attribute 34, 1
  12              		.eabi_attribute 18, 4
  13              		.file	"usb.c"
  14              		.text
  15              	.Ltext0:
  16              		.cfi_sections	.debug_frame
  17              		.section	.text.MX_USB_PCD_Init,"ax",%progbits
  18              		.align	1
  19              		.global	MX_USB_PCD_Init
  20              		.syntax unified
  21              		.thumb
  22              		.thumb_func
  23              		.fpu fpv4-sp-d16
  25              	MX_USB_PCD_Init:
  26              	.LFB126:
  27              		.file 1 "Src/usb.c"
   1:Src/usb.c     **** /**
   2:Src/usb.c     ****   ******************************************************************************
   3:Src/usb.c     ****   * File Name          : USB.c
   4:Src/usb.c     ****   * Description        : This file provides code for the configuration
   5:Src/usb.c     ****   *                      of the USB instances.
   6:Src/usb.c     ****   ******************************************************************************
   7:Src/usb.c     ****   * @attention
   8:Src/usb.c     ****   *
   9:Src/usb.c     ****   * <h2><center>&copy; Copyright (c) 2019 STMicroelectronics.
  10:Src/usb.c     ****   * All rights reserved.</center></h2>
  11:Src/usb.c     ****   *
  12:Src/usb.c     ****   * This software component is licensed by ST under Ultimate Liberty license
  13:Src/usb.c     ****   * SLA0044, the "License"; You may not use this file except in compliance with
  14:Src/usb.c     ****   * the License. You may obtain a copy of the License at:
  15:Src/usb.c     ****   *                             www.st.com/SLA0044
  16:Src/usb.c     ****   *
  17:Src/usb.c     ****   ******************************************************************************
  18:Src/usb.c     ****   */
  19:Src/usb.c     **** 
  20:Src/usb.c     **** /* Includes ------------------------------------------------------------------*/
  21:Src/usb.c     **** #include "usb.h"
  22:Src/usb.c     **** 
  23:Src/usb.c     **** /* USER CODE BEGIN 0 */
  24:Src/usb.c     **** 
  25:Src/usb.c     **** /* USER CODE END 0 */
  26:Src/usb.c     **** 
  27:Src/usb.c     **** PCD_HandleTypeDef hpcd_USB_FS;
  28:Src/usb.c     **** 
  29:Src/usb.c     **** /* USB init function */
  30:Src/usb.c     **** 
  31:Src/usb.c     **** void MX_USB_PCD_Init(void)
ARM GAS  C:\Users\acw\AppData\Local\Temp\cc19hnAV.s 			page 2


  32:Src/usb.c     **** {
  28              		.loc 1 32 0
  29              		.cfi_startproc
  30              		@ args = 0, pretend = 0, frame = 0
  31              		@ frame_needed = 0, uses_anonymous_args = 0
  32 0000 08B5     		push	{r3, lr}
  33              	.LCFI0:
  34              		.cfi_def_cfa_offset 8
  35              		.cfi_offset 3, -8
  36              		.cfi_offset 14, -4
  33:Src/usb.c     **** 
  34:Src/usb.c     ****   hpcd_USB_FS.Instance = USB;
  37              		.loc 1 34 0
  38 0002 0948     		ldr	r0, .L5
  39 0004 094B     		ldr	r3, .L5+4
  40 0006 0360     		str	r3, [r0]
  35:Src/usb.c     ****   hpcd_USB_FS.Init.dev_endpoints = 8;
  41              		.loc 1 35 0
  42 0008 0823     		movs	r3, #8
  43 000a 4360     		str	r3, [r0, #4]
  36:Src/usb.c     ****   hpcd_USB_FS.Init.speed = PCD_SPEED_FULL;
  44              		.loc 1 36 0
  45 000c 0223     		movs	r3, #2
  46 000e 8360     		str	r3, [r0, #8]
  37:Src/usb.c     ****   hpcd_USB_FS.Init.phy_itface = PCD_PHY_EMBEDDED;
  47              		.loc 1 37 0
  48 0010 0361     		str	r3, [r0, #16]
  38:Src/usb.c     ****   hpcd_USB_FS.Init.low_power_enable = DISABLE;
  49              		.loc 1 38 0
  50 0012 0023     		movs	r3, #0
  51 0014 8361     		str	r3, [r0, #24]
  39:Src/usb.c     ****   hpcd_USB_FS.Init.battery_charging_enable = DISABLE;
  52              		.loc 1 39 0
  53 0016 0362     		str	r3, [r0, #32]
  40:Src/usb.c     ****   if (HAL_PCD_Init(&hpcd_USB_FS) != HAL_OK)
  54              		.loc 1 40 0
  55 0018 FFF7FEFF 		bl	HAL_PCD_Init
  56              	.LVL0:
  57 001c 00B9     		cbnz	r0, .L4
  58              	.L1:
  41:Src/usb.c     ****   {
  42:Src/usb.c     ****     Error_Handler();
  43:Src/usb.c     ****   }
  44:Src/usb.c     **** 
  45:Src/usb.c     **** }
  59              		.loc 1 45 0
  60 001e 08BD     		pop	{r3, pc}
  61              	.L4:
  42:Src/usb.c     ****   }
  62              		.loc 1 42 0
  63 0020 FFF7FEFF 		bl	Error_Handler
  64              	.LVL1:
  65              		.loc 1 45 0
  66 0024 FBE7     		b	.L1
  67              	.L6:
  68 0026 00BF     		.align	2
  69              	.L5:
ARM GAS  C:\Users\acw\AppData\Local\Temp\cc19hnAV.s 			page 3


  70 0028 00000000 		.word	hpcd_USB_FS
  71 002c 005C0040 		.word	1073765376
  72              		.cfi_endproc
  73              	.LFE126:
  75              		.section	.text.HAL_PCD_MspInit,"ax",%progbits
  76              		.align	1
  77              		.global	HAL_PCD_MspInit
  78              		.syntax unified
  79              		.thumb
  80              		.thumb_func
  81              		.fpu fpv4-sp-d16
  83              	HAL_PCD_MspInit:
  84              	.LFB127:
  46:Src/usb.c     **** 
  47:Src/usb.c     **** void HAL_PCD_MspInit(PCD_HandleTypeDef* pcdHandle)
  48:Src/usb.c     **** {
  85              		.loc 1 48 0
  86              		.cfi_startproc
  87              		@ args = 0, pretend = 0, frame = 32
  88              		@ frame_needed = 0, uses_anonymous_args = 0
  89              	.LVL2:
  90 0000 10B5     		push	{r4, lr}
  91              	.LCFI1:
  92              		.cfi_def_cfa_offset 8
  93              		.cfi_offset 4, -8
  94              		.cfi_offset 14, -4
  95 0002 88B0     		sub	sp, sp, #32
  96              	.LCFI2:
  97              		.cfi_def_cfa_offset 40
  49:Src/usb.c     **** 
  50:Src/usb.c     ****   GPIO_InitTypeDef GPIO_InitStruct = {0};
  98              		.loc 1 50 0
  99 0004 0023     		movs	r3, #0
 100 0006 0393     		str	r3, [sp, #12]
 101 0008 0493     		str	r3, [sp, #16]
 102 000a 0593     		str	r3, [sp, #20]
 103 000c 0693     		str	r3, [sp, #24]
 104 000e 0793     		str	r3, [sp, #28]
  51:Src/usb.c     ****   if(pcdHandle->Instance==USB)
 105              		.loc 1 51 0
 106 0010 0268     		ldr	r2, [r0]
 107 0012 134B     		ldr	r3, .L11
 108 0014 9A42     		cmp	r2, r3
 109 0016 01D0     		beq	.L10
 110              	.LVL3:
 111              	.L7:
  52:Src/usb.c     ****   {
  53:Src/usb.c     ****   /* USER CODE BEGIN USB_MspInit 0 */
  54:Src/usb.c     **** 
  55:Src/usb.c     ****   /* USER CODE END USB_MspInit 0 */
  56:Src/usb.c     ****   
  57:Src/usb.c     ****     __HAL_RCC_GPIOA_CLK_ENABLE();
  58:Src/usb.c     ****     /**USB GPIO Configuration    
  59:Src/usb.c     ****     PA11     ------> USB_DM
  60:Src/usb.c     ****     PA12     ------> USB_DP 
  61:Src/usb.c     ****     */
  62:Src/usb.c     ****     GPIO_InitStruct.Pin = GPIO_PIN_11|GPIO_PIN_12;
ARM GAS  C:\Users\acw\AppData\Local\Temp\cc19hnAV.s 			page 4


  63:Src/usb.c     ****     GPIO_InitStruct.Mode = GPIO_MODE_AF_PP;
  64:Src/usb.c     ****     GPIO_InitStruct.Pull = GPIO_NOPULL;
  65:Src/usb.c     ****     GPIO_InitStruct.Speed = GPIO_SPEED_FREQ_HIGH;
  66:Src/usb.c     ****     GPIO_InitStruct.Alternate = GPIO_AF14_USB;
  67:Src/usb.c     ****     HAL_GPIO_Init(GPIOA, &GPIO_InitStruct);
  68:Src/usb.c     **** 
  69:Src/usb.c     ****     /* USB clock enable */
  70:Src/usb.c     ****     __HAL_RCC_USB_CLK_ENABLE();
  71:Src/usb.c     ****   /* USER CODE BEGIN USB_MspInit 1 */
  72:Src/usb.c     **** 
  73:Src/usb.c     ****   /* USER CODE END USB_MspInit 1 */
  74:Src/usb.c     ****   }
  75:Src/usb.c     **** }
 112              		.loc 1 75 0
 113 0018 08B0     		add	sp, sp, #32
 114              	.LCFI3:
 115              		.cfi_remember_state
 116              		.cfi_def_cfa_offset 8
 117              		@ sp needed
 118 001a 10BD     		pop	{r4, pc}
 119              	.LVL4:
 120              	.L10:
 121              	.LCFI4:
 122              		.cfi_restore_state
 123              	.LBB2:
  57:Src/usb.c     ****     /**USB GPIO Configuration    
 124              		.loc 1 57 0
 125 001c 114C     		ldr	r4, .L11+4
 126 001e 6369     		ldr	r3, [r4, #20]
 127 0020 43F40033 		orr	r3, r3, #131072
 128 0024 6361     		str	r3, [r4, #20]
 129 0026 6369     		ldr	r3, [r4, #20]
 130 0028 03F40033 		and	r3, r3, #131072
 131 002c 0193     		str	r3, [sp, #4]
 132 002e 019B     		ldr	r3, [sp, #4]
 133              	.LBE2:
  62:Src/usb.c     ****     GPIO_InitStruct.Mode = GPIO_MODE_AF_PP;
 134              		.loc 1 62 0
 135 0030 4FF4C053 		mov	r3, #6144
 136 0034 0393     		str	r3, [sp, #12]
  63:Src/usb.c     ****     GPIO_InitStruct.Pull = GPIO_NOPULL;
 137              		.loc 1 63 0
 138 0036 0223     		movs	r3, #2
 139 0038 0493     		str	r3, [sp, #16]
  65:Src/usb.c     ****     GPIO_InitStruct.Alternate = GPIO_AF14_USB;
 140              		.loc 1 65 0
 141 003a 0323     		movs	r3, #3
 142 003c 0693     		str	r3, [sp, #24]
  66:Src/usb.c     ****     HAL_GPIO_Init(GPIOA, &GPIO_InitStruct);
 143              		.loc 1 66 0
 144 003e 0E23     		movs	r3, #14
 145 0040 0793     		str	r3, [sp, #28]
  67:Src/usb.c     **** 
 146              		.loc 1 67 0
 147 0042 03A9     		add	r1, sp, #12
 148 0044 4FF09040 		mov	r0, #1207959552
 149              	.LVL5:
ARM GAS  C:\Users\acw\AppData\Local\Temp\cc19hnAV.s 			page 5


 150 0048 FFF7FEFF 		bl	HAL_GPIO_Init
 151              	.LVL6:
 152              	.LBB3:
  70:Src/usb.c     ****   /* USER CODE BEGIN USB_MspInit 1 */
 153              		.loc 1 70 0
 154 004c E369     		ldr	r3, [r4, #28]
 155 004e 43F40003 		orr	r3, r3, #8388608
 156 0052 E361     		str	r3, [r4, #28]
 157 0054 E369     		ldr	r3, [r4, #28]
 158 0056 03F40003 		and	r3, r3, #8388608
 159 005a 0293     		str	r3, [sp, #8]
 160 005c 029B     		ldr	r3, [sp, #8]
 161              	.LBE3:
 162              		.loc 1 75 0
 163 005e DBE7     		b	.L7
 164              	.L12:
 165              		.align	2
 166              	.L11:
 167 0060 005C0040 		.word	1073765376
 168 0064 00100240 		.word	1073876992
 169              		.cfi_endproc
 170              	.LFE127:
 172              		.section	.text.HAL_PCD_MspDeInit,"ax",%progbits
 173              		.align	1
 174              		.global	HAL_PCD_MspDeInit
 175              		.syntax unified
 176              		.thumb
 177              		.thumb_func
 178              		.fpu fpv4-sp-d16
 180              	HAL_PCD_MspDeInit:
 181              	.LFB128:
  76:Src/usb.c     **** 
  77:Src/usb.c     **** void HAL_PCD_MspDeInit(PCD_HandleTypeDef* pcdHandle)
  78:Src/usb.c     **** {
 182              		.loc 1 78 0
 183              		.cfi_startproc
 184              		@ args = 0, pretend = 0, frame = 0
 185              		@ frame_needed = 0, uses_anonymous_args = 0
 186              	.LVL7:
 187 0000 08B5     		push	{r3, lr}
 188              	.LCFI5:
 189              		.cfi_def_cfa_offset 8
 190              		.cfi_offset 3, -8
 191              		.cfi_offset 14, -4
  79:Src/usb.c     **** 
  80:Src/usb.c     ****   if(pcdHandle->Instance==USB)
 192              		.loc 1 80 0
 193 0002 0268     		ldr	r2, [r0]
 194 0004 074B     		ldr	r3, .L17
 195 0006 9A42     		cmp	r2, r3
 196 0008 00D0     		beq	.L16
 197              	.LVL8:
 198              	.L13:
  81:Src/usb.c     ****   {
  82:Src/usb.c     ****   /* USER CODE BEGIN USB_MspDeInit 0 */
  83:Src/usb.c     **** 
  84:Src/usb.c     ****   /* USER CODE END USB_MspDeInit 0 */
ARM GAS  C:\Users\acw\AppData\Local\Temp\cc19hnAV.s 			page 6


  85:Src/usb.c     ****     /* Peripheral clock disable */
  86:Src/usb.c     ****     __HAL_RCC_USB_CLK_DISABLE();
  87:Src/usb.c     ****   
  88:Src/usb.c     ****     /**USB GPIO Configuration    
  89:Src/usb.c     ****     PA11     ------> USB_DM
  90:Src/usb.c     ****     PA12     ------> USB_DP 
  91:Src/usb.c     ****     */
  92:Src/usb.c     ****     HAL_GPIO_DeInit(GPIOA, GPIO_PIN_11|GPIO_PIN_12);
  93:Src/usb.c     **** 
  94:Src/usb.c     ****   /* USER CODE BEGIN USB_MspDeInit 1 */
  95:Src/usb.c     **** 
  96:Src/usb.c     ****   /* USER CODE END USB_MspDeInit 1 */
  97:Src/usb.c     ****   }
  98:Src/usb.c     **** } 
 199              		.loc 1 98 0
 200 000a 08BD     		pop	{r3, pc}
 201              	.LVL9:
 202              	.L16:
  86:Src/usb.c     ****   
 203              		.loc 1 86 0
 204 000c 064A     		ldr	r2, .L17+4
 205 000e D369     		ldr	r3, [r2, #28]
 206 0010 23F40003 		bic	r3, r3, #8388608
 207 0014 D361     		str	r3, [r2, #28]
  92:Src/usb.c     **** 
 208              		.loc 1 92 0
 209 0016 4FF4C051 		mov	r1, #6144
 210 001a 4FF09040 		mov	r0, #1207959552
 211              	.LVL10:
 212 001e FFF7FEFF 		bl	HAL_GPIO_DeInit
 213              	.LVL11:
 214              		.loc 1 98 0
 215 0022 F2E7     		b	.L13
 216              	.L18:
 217              		.align	2
 218              	.L17:
 219 0024 005C0040 		.word	1073765376
 220 0028 00100240 		.word	1073876992
 221              		.cfi_endproc
 222              	.LFE128:
 224              		.comm	hpcd_USB_FS,936,4
 225              		.text
 226              	.Letext0:
 227              		.file 2 "c:\\program files (x86)\\gnu tools arm embedded\\7 2018-q2-update\\arm-none-eabi\\include
 228              		.file 3 "c:\\program files (x86)\\gnu tools arm embedded\\7 2018-q2-update\\arm-none-eabi\\include
 229              		.file 4 "Drivers/CMSIS/Include/core_cm4.h"
 230              		.file 5 "Drivers/CMSIS/Device/ST/STM32F3xx/Include/system_stm32f3xx.h"
 231              		.file 6 "Drivers/CMSIS/Device/ST/STM32F3xx/Include/stm32f373xc.h"
 232              		.file 7 "c:\\program files (x86)\\gnu tools arm embedded\\7 2018-q2-update\\arm-none-eabi\\include
 233              		.file 8 "c:\\program files (x86)\\gnu tools arm embedded\\7 2018-q2-update\\arm-none-eabi\\include
 234              		.file 9 "c:\\program files (x86)\\gnu tools arm embedded\\7 2018-q2-update\\lib\\gcc\\arm-none-eab
 235              		.file 10 "c:\\program files (x86)\\gnu tools arm embedded\\7 2018-q2-update\\arm-none-eabi\\includ
 236              		.file 11 "Drivers/CMSIS/Device/ST/STM32F3xx/Include/stm32f3xx.h"
 237              		.file 12 "Drivers/STM32F3xx_HAL_Driver/Inc/stm32f3xx_hal_def.h"
 238              		.file 13 "Drivers/STM32F3xx_HAL_Driver/Inc/stm32f3xx_hal_gpio.h"
 239              		.file 14 "Drivers/STM32F3xx_HAL_Driver/Inc/stm32f3xx_hal_pcd.h"
 240              		.file 15 "Drivers/STM32F3xx_HAL_Driver/Inc/stm32f3xx_hal.h"
ARM GAS  C:\Users\acw\AppData\Local\Temp\cc19hnAV.s 			page 7


 241              		.file 16 "Inc/usb.h"
 242              		.file 17 "Inc/main.h"
ARM GAS  C:\Users\acw\AppData\Local\Temp\cc19hnAV.s 			page 8

